
orion_F303_boost_v3.elf:     file format elf32-littlearm

Sections:
Idx Name          Size      VMA       LMA       File off  Algn
  0 .isr_vector   00000188  08000000  08000000  00010000  2**0
                  CONTENTS, ALLOC, LOAD, READONLY, DATA
  1 .text         0000754c  08000190  08000190  00010190  2**4
                  CONTENTS, ALLOC, LOAD, READONLY, CODE
  2 .rodata       00000464  080076e0  080076e0  000176e0  2**3
                  CONTENTS, ALLOC, LOAD, READONLY, DATA
  3 .ARM.extab    00000000  08007b44  08007b44  000201dc  2**0
                  CONTENTS
  4 .ARM          00000000  08007b44  08007b44  000201dc  2**0
                  CONTENTS
  5 .preinit_array 00000000  08007b44  08007b44  000201dc  2**0
                  CONTENTS, ALLOC, LOAD, DATA
  6 .init_array   00000004  08007b44  08007b44  00017b44  2**2
                  CONTENTS, ALLOC, LOAD, DATA
  7 .fini_array   00000004  08007b48  08007b48  00017b48  2**2
                  CONTENTS, ALLOC, LOAD, DATA
  8 .data         000001dc  20000000  08007b4c  00020000  2**2
                  CONTENTS, ALLOC, LOAD, DATA
  9 .ccmram       00000000  10000000  10000000  000201dc  2**0
                  CONTENTS
 10 .bss          000003e8  200001dc  200001dc  000201dc  2**2
                  ALLOC
 11 ._user_heap_stack 00000604  200005c4  200005c4  000201dc  2**0
                  ALLOC
 12 .ARM.attributes 00000030  00000000  00000000  000201dc  2**0
                  CONTENTS, READONLY
 13 .comment      00000050  00000000  00000000  0002020c  2**0
                  CONTENTS, READONLY
 14 .debug_frame  00001170  00000000  00000000  0002025c  2**2
                  CONTENTS, READONLY, DEBUGGING, OCTETS

Disassembly of section .text:

08000190 <__do_global_dtors_aux>:
 8000190:	b510      	push	{r4, lr}
 8000192:	4c05      	ldr	r4, [pc, #20]	; (80001a8 <__do_global_dtors_aux+0x18>)
 8000194:	7823      	ldrb	r3, [r4, #0]
 8000196:	b933      	cbnz	r3, 80001a6 <__do_global_dtors_aux+0x16>
 8000198:	4b04      	ldr	r3, [pc, #16]	; (80001ac <__do_global_dtors_aux+0x1c>)
 800019a:	b113      	cbz	r3, 80001a2 <__do_global_dtors_aux+0x12>
 800019c:	4804      	ldr	r0, [pc, #16]	; (80001b0 <__do_global_dtors_aux+0x20>)
 800019e:	f3af 8000 	nop.w
 80001a2:	2301      	movs	r3, #1
 80001a4:	7023      	strb	r3, [r4, #0]
 80001a6:	bd10      	pop	{r4, pc}
 80001a8:	200001dc 	.word	0x200001dc
 80001ac:	00000000 	.word	0x00000000
 80001b0:	080076c4 	.word	0x080076c4

080001b4 <frame_dummy>:
 80001b4:	b508      	push	{r3, lr}
 80001b6:	4b03      	ldr	r3, [pc, #12]	; (80001c4 <frame_dummy+0x10>)
 80001b8:	b11b      	cbz	r3, 80001c2 <frame_dummy+0xe>
 80001ba:	4903      	ldr	r1, [pc, #12]	; (80001c8 <frame_dummy+0x14>)
 80001bc:	4803      	ldr	r0, [pc, #12]	; (80001cc <frame_dummy+0x18>)
 80001be:	f3af 8000 	nop.w
 80001c2:	bd08      	pop	{r3, pc}
 80001c4:	00000000 	.word	0x00000000
 80001c8:	200001e0 	.word	0x200001e0
 80001cc:	080076c4 	.word	0x080076c4

080001d0 <strlen>:
 80001d0:	4603      	mov	r3, r0
 80001d2:	f813 2b01 	ldrb.w	r2, [r3], #1
 80001d6:	2a00      	cmp	r2, #0
 80001d8:	d1fb      	bne.n	80001d2 <strlen+0x2>
 80001da:	1a18      	subs	r0, r3, r0
 80001dc:	3801      	subs	r0, #1
 80001de:	4770      	bx	lr

080001e0 <memchr>:
 80001e0:	f001 01ff 	and.w	r1, r1, #255	; 0xff
 80001e4:	2a10      	cmp	r2, #16
 80001e6:	db2b      	blt.n	8000240 <memchr+0x60>
 80001e8:	f010 0f07 	tst.w	r0, #7
 80001ec:	d008      	beq.n	8000200 <memchr+0x20>
 80001ee:	f810 3b01 	ldrb.w	r3, [r0], #1
 80001f2:	3a01      	subs	r2, #1
 80001f4:	428b      	cmp	r3, r1
 80001f6:	d02d      	beq.n	8000254 <memchr+0x74>
 80001f8:	f010 0f07 	tst.w	r0, #7
 80001fc:	b342      	cbz	r2, 8000250 <memchr+0x70>
 80001fe:	d1f6      	bne.n	80001ee <memchr+0xe>
 8000200:	b4f0      	push	{r4, r5, r6, r7}
 8000202:	ea41 2101 	orr.w	r1, r1, r1, lsl #8
 8000206:	ea41 4101 	orr.w	r1, r1, r1, lsl #16
 800020a:	f022 0407 	bic.w	r4, r2, #7
 800020e:	f07f 0700 	mvns.w	r7, #0
 8000212:	2300      	movs	r3, #0
 8000214:	e8f0 5602 	ldrd	r5, r6, [r0], #8
 8000218:	3c08      	subs	r4, #8
 800021a:	ea85 0501 	eor.w	r5, r5, r1
 800021e:	ea86 0601 	eor.w	r6, r6, r1
 8000222:	fa85 f547 	uadd8	r5, r5, r7
 8000226:	faa3 f587 	sel	r5, r3, r7
 800022a:	fa86 f647 	uadd8	r6, r6, r7
 800022e:	faa5 f687 	sel	r6, r5, r7
 8000232:	b98e      	cbnz	r6, 8000258 <memchr+0x78>
 8000234:	d1ee      	bne.n	8000214 <memchr+0x34>
 8000236:	bcf0      	pop	{r4, r5, r6, r7}
 8000238:	f001 01ff 	and.w	r1, r1, #255	; 0xff
 800023c:	f002 0207 	and.w	r2, r2, #7
 8000240:	b132      	cbz	r2, 8000250 <memchr+0x70>
 8000242:	f810 3b01 	ldrb.w	r3, [r0], #1
 8000246:	3a01      	subs	r2, #1
 8000248:	ea83 0301 	eor.w	r3, r3, r1
 800024c:	b113      	cbz	r3, 8000254 <memchr+0x74>
 800024e:	d1f8      	bne.n	8000242 <memchr+0x62>
 8000250:	2000      	movs	r0, #0
 8000252:	4770      	bx	lr
 8000254:	3801      	subs	r0, #1
 8000256:	4770      	bx	lr
 8000258:	2d00      	cmp	r5, #0
 800025a:	bf06      	itte	eq
 800025c:	4635      	moveq	r5, r6
 800025e:	3803      	subeq	r0, #3
 8000260:	3807      	subne	r0, #7
 8000262:	f015 0f01 	tst.w	r5, #1
 8000266:	d107      	bne.n	8000278 <memchr+0x98>
 8000268:	3001      	adds	r0, #1
 800026a:	f415 7f80 	tst.w	r5, #256	; 0x100
 800026e:	bf02      	ittt	eq
 8000270:	3001      	addeq	r0, #1
 8000272:	f415 3fc0 	tsteq.w	r5, #98304	; 0x18000
 8000276:	3001      	addeq	r0, #1
 8000278:	bcf0      	pop	{r4, r5, r6, r7}
 800027a:	3801      	subs	r0, #1
 800027c:	4770      	bx	lr
 800027e:	bf00      	nop

08000280 <__aeabi_drsub>:
 8000280:	f081 4100 	eor.w	r1, r1, #2147483648	; 0x80000000
 8000284:	e002      	b.n	800028c <__adddf3>
 8000286:	bf00      	nop

08000288 <__aeabi_dsub>:
 8000288:	f083 4300 	eor.w	r3, r3, #2147483648	; 0x80000000

0800028c <__adddf3>:
 800028c:	b530      	push	{r4, r5, lr}
 800028e:	ea4f 0441 	mov.w	r4, r1, lsl #1
 8000292:	ea4f 0543 	mov.w	r5, r3, lsl #1
 8000296:	ea94 0f05 	teq	r4, r5
 800029a:	bf08      	it	eq
 800029c:	ea90 0f02 	teqeq	r0, r2
 80002a0:	bf1f      	itttt	ne
 80002a2:	ea54 0c00 	orrsne.w	ip, r4, r0
 80002a6:	ea55 0c02 	orrsne.w	ip, r5, r2
 80002aa:	ea7f 5c64 	mvnsne.w	ip, r4, asr #21
 80002ae:	ea7f 5c65 	mvnsne.w	ip, r5, asr #21
 80002b2:	f000 80e2 	beq.w	800047a <__adddf3+0x1ee>
 80002b6:	ea4f 5454 	mov.w	r4, r4, lsr #21
 80002ba:	ebd4 5555 	rsbs	r5, r4, r5, lsr #21
 80002be:	bfb8      	it	lt
 80002c0:	426d      	neglt	r5, r5
 80002c2:	dd0c      	ble.n	80002de <__adddf3+0x52>
 80002c4:	442c      	add	r4, r5
 80002c6:	ea80 0202 	eor.w	r2, r0, r2
 80002ca:	ea81 0303 	eor.w	r3, r1, r3
 80002ce:	ea82 0000 	eor.w	r0, r2, r0
 80002d2:	ea83 0101 	eor.w	r1, r3, r1
 80002d6:	ea80 0202 	eor.w	r2, r0, r2
 80002da:	ea81 0303 	eor.w	r3, r1, r3
 80002de:	2d36      	cmp	r5, #54	; 0x36
 80002e0:	bf88      	it	hi
 80002e2:	bd30      	pophi	{r4, r5, pc}
 80002e4:	f011 4f00 	tst.w	r1, #2147483648	; 0x80000000
 80002e8:	ea4f 3101 	mov.w	r1, r1, lsl #12
 80002ec:	f44f 1c80 	mov.w	ip, #1048576	; 0x100000
 80002f0:	ea4c 3111 	orr.w	r1, ip, r1, lsr #12
 80002f4:	d002      	beq.n	80002fc <__adddf3+0x70>
 80002f6:	4240      	negs	r0, r0
 80002f8:	eb61 0141 	sbc.w	r1, r1, r1, lsl #1
 80002fc:	f013 4f00 	tst.w	r3, #2147483648	; 0x80000000
 8000300:	ea4f 3303 	mov.w	r3, r3, lsl #12
 8000304:	ea4c 3313 	orr.w	r3, ip, r3, lsr #12
 8000308:	d002      	beq.n	8000310 <__adddf3+0x84>
 800030a:	4252      	negs	r2, r2
 800030c:	eb63 0343 	sbc.w	r3, r3, r3, lsl #1
 8000310:	ea94 0f05 	teq	r4, r5
 8000314:	f000 80a7 	beq.w	8000466 <__adddf3+0x1da>
 8000318:	f1a4 0401 	sub.w	r4, r4, #1
 800031c:	f1d5 0e20 	rsbs	lr, r5, #32
 8000320:	db0d      	blt.n	800033e <__adddf3+0xb2>
 8000322:	fa02 fc0e 	lsl.w	ip, r2, lr
 8000326:	fa22 f205 	lsr.w	r2, r2, r5
 800032a:	1880      	adds	r0, r0, r2
 800032c:	f141 0100 	adc.w	r1, r1, #0
 8000330:	fa03 f20e 	lsl.w	r2, r3, lr
 8000334:	1880      	adds	r0, r0, r2
 8000336:	fa43 f305 	asr.w	r3, r3, r5
 800033a:	4159      	adcs	r1, r3
 800033c:	e00e      	b.n	800035c <__adddf3+0xd0>
 800033e:	f1a5 0520 	sub.w	r5, r5, #32
 8000342:	f10e 0e20 	add.w	lr, lr, #32
 8000346:	2a01      	cmp	r2, #1
 8000348:	fa03 fc0e 	lsl.w	ip, r3, lr
 800034c:	bf28      	it	cs
 800034e:	f04c 0c02 	orrcs.w	ip, ip, #2
 8000352:	fa43 f305 	asr.w	r3, r3, r5
 8000356:	18c0      	adds	r0, r0, r3
 8000358:	eb51 71e3 	adcs.w	r1, r1, r3, asr #31
 800035c:	f001 4500 	and.w	r5, r1, #2147483648	; 0x80000000
 8000360:	d507      	bpl.n	8000372 <__adddf3+0xe6>
 8000362:	f04f 0e00 	mov.w	lr, #0
 8000366:	f1dc 0c00 	rsbs	ip, ip, #0
 800036a:	eb7e 0000 	sbcs.w	r0, lr, r0
 800036e:	eb6e 0101 	sbc.w	r1, lr, r1
 8000372:	f5b1 1f80 	cmp.w	r1, #1048576	; 0x100000
 8000376:	d31b      	bcc.n	80003b0 <__adddf3+0x124>
 8000378:	f5b1 1f00 	cmp.w	r1, #2097152	; 0x200000
 800037c:	d30c      	bcc.n	8000398 <__adddf3+0x10c>
 800037e:	0849      	lsrs	r1, r1, #1
 8000380:	ea5f 0030 	movs.w	r0, r0, rrx
 8000384:	ea4f 0c3c 	mov.w	ip, ip, rrx
 8000388:	f104 0401 	add.w	r4, r4, #1
 800038c:	ea4f 5244 	mov.w	r2, r4, lsl #21
 8000390:	f512 0f80 	cmn.w	r2, #4194304	; 0x400000
 8000394:	f080 809a 	bcs.w	80004cc <__adddf3+0x240>
 8000398:	f1bc 4f00 	cmp.w	ip, #2147483648	; 0x80000000
 800039c:	bf08      	it	eq
 800039e:	ea5f 0c50 	movseq.w	ip, r0, lsr #1
 80003a2:	f150 0000 	adcs.w	r0, r0, #0
 80003a6:	eb41 5104 	adc.w	r1, r1, r4, lsl #20
 80003aa:	ea41 0105 	orr.w	r1, r1, r5
 80003ae:	bd30      	pop	{r4, r5, pc}
 80003b0:	ea5f 0c4c 	movs.w	ip, ip, lsl #1
 80003b4:	4140      	adcs	r0, r0
 80003b6:	eb41 0101 	adc.w	r1, r1, r1
 80003ba:	3c01      	subs	r4, #1
 80003bc:	bf28      	it	cs
 80003be:	f5b1 1f80 	cmpcs.w	r1, #1048576	; 0x100000
 80003c2:	d2e9      	bcs.n	8000398 <__adddf3+0x10c>
 80003c4:	f091 0f00 	teq	r1, #0
 80003c8:	bf04      	itt	eq
 80003ca:	4601      	moveq	r1, r0
 80003cc:	2000      	moveq	r0, #0
 80003ce:	fab1 f381 	clz	r3, r1
 80003d2:	bf08      	it	eq
 80003d4:	3320      	addeq	r3, #32
 80003d6:	f1a3 030b 	sub.w	r3, r3, #11
 80003da:	f1b3 0220 	subs.w	r2, r3, #32
 80003de:	da0c      	bge.n	80003fa <__adddf3+0x16e>
 80003e0:	320c      	adds	r2, #12
 80003e2:	dd08      	ble.n	80003f6 <__adddf3+0x16a>
 80003e4:	f102 0c14 	add.w	ip, r2, #20
 80003e8:	f1c2 020c 	rsb	r2, r2, #12
 80003ec:	fa01 f00c 	lsl.w	r0, r1, ip
 80003f0:	fa21 f102 	lsr.w	r1, r1, r2
 80003f4:	e00c      	b.n	8000410 <__adddf3+0x184>
 80003f6:	f102 0214 	add.w	r2, r2, #20
 80003fa:	bfd8      	it	le
 80003fc:	f1c2 0c20 	rsble	ip, r2, #32
 8000400:	fa01 f102 	lsl.w	r1, r1, r2
 8000404:	fa20 fc0c 	lsr.w	ip, r0, ip
 8000408:	bfdc      	itt	le
 800040a:	ea41 010c 	orrle.w	r1, r1, ip
 800040e:	4090      	lslle	r0, r2
 8000410:	1ae4      	subs	r4, r4, r3
 8000412:	bfa2      	ittt	ge
 8000414:	eb01 5104 	addge.w	r1, r1, r4, lsl #20
 8000418:	4329      	orrge	r1, r5
 800041a:	bd30      	popge	{r4, r5, pc}
 800041c:	ea6f 0404 	mvn.w	r4, r4
 8000420:	3c1f      	subs	r4, #31
 8000422:	da1c      	bge.n	800045e <__adddf3+0x1d2>
 8000424:	340c      	adds	r4, #12
 8000426:	dc0e      	bgt.n	8000446 <__adddf3+0x1ba>
 8000428:	f104 0414 	add.w	r4, r4, #20
 800042c:	f1c4 0220 	rsb	r2, r4, #32
 8000430:	fa20 f004 	lsr.w	r0, r0, r4
 8000434:	fa01 f302 	lsl.w	r3, r1, r2
 8000438:	ea40 0003 	orr.w	r0, r0, r3
 800043c:	fa21 f304 	lsr.w	r3, r1, r4
 8000440:	ea45 0103 	orr.w	r1, r5, r3
 8000444:	bd30      	pop	{r4, r5, pc}
 8000446:	f1c4 040c 	rsb	r4, r4, #12
 800044a:	f1c4 0220 	rsb	r2, r4, #32
 800044e:	fa20 f002 	lsr.w	r0, r0, r2
 8000452:	fa01 f304 	lsl.w	r3, r1, r4
 8000456:	ea40 0003 	orr.w	r0, r0, r3
 800045a:	4629      	mov	r1, r5
 800045c:	bd30      	pop	{r4, r5, pc}
 800045e:	fa21 f004 	lsr.w	r0, r1, r4
 8000462:	4629      	mov	r1, r5
 8000464:	bd30      	pop	{r4, r5, pc}
 8000466:	f094 0f00 	teq	r4, #0
 800046a:	f483 1380 	eor.w	r3, r3, #1048576	; 0x100000
 800046e:	bf06      	itte	eq
 8000470:	f481 1180 	eoreq.w	r1, r1, #1048576	; 0x100000
 8000474:	3401      	addeq	r4, #1
 8000476:	3d01      	subne	r5, #1
 8000478:	e74e      	b.n	8000318 <__adddf3+0x8c>
 800047a:	ea7f 5c64 	mvns.w	ip, r4, asr #21
 800047e:	bf18      	it	ne
 8000480:	ea7f 5c65 	mvnsne.w	ip, r5, asr #21
 8000484:	d029      	beq.n	80004da <__adddf3+0x24e>
 8000486:	ea94 0f05 	teq	r4, r5
 800048a:	bf08      	it	eq
 800048c:	ea90 0f02 	teqeq	r0, r2
 8000490:	d005      	beq.n	800049e <__adddf3+0x212>
 8000492:	ea54 0c00 	orrs.w	ip, r4, r0
 8000496:	bf04      	itt	eq
 8000498:	4619      	moveq	r1, r3
 800049a:	4610      	moveq	r0, r2
 800049c:	bd30      	pop	{r4, r5, pc}
 800049e:	ea91 0f03 	teq	r1, r3
 80004a2:	bf1e      	ittt	ne
 80004a4:	2100      	movne	r1, #0
 80004a6:	2000      	movne	r0, #0
 80004a8:	bd30      	popne	{r4, r5, pc}
 80004aa:	ea5f 5c54 	movs.w	ip, r4, lsr #21
 80004ae:	d105      	bne.n	80004bc <__adddf3+0x230>
 80004b0:	0040      	lsls	r0, r0, #1
 80004b2:	4149      	adcs	r1, r1
 80004b4:	bf28      	it	cs
 80004b6:	f041 4100 	orrcs.w	r1, r1, #2147483648	; 0x80000000
 80004ba:	bd30      	pop	{r4, r5, pc}
 80004bc:	f514 0480 	adds.w	r4, r4, #4194304	; 0x400000
 80004c0:	bf3c      	itt	cc
 80004c2:	f501 1180 	addcc.w	r1, r1, #1048576	; 0x100000
 80004c6:	bd30      	popcc	{r4, r5, pc}
 80004c8:	f001 4500 	and.w	r5, r1, #2147483648	; 0x80000000
 80004cc:	f045 41fe 	orr.w	r1, r5, #2130706432	; 0x7f000000
 80004d0:	f441 0170 	orr.w	r1, r1, #15728640	; 0xf00000
 80004d4:	f04f 0000 	mov.w	r0, #0
 80004d8:	bd30      	pop	{r4, r5, pc}
 80004da:	ea7f 5c64 	mvns.w	ip, r4, asr #21
 80004de:	bf1a      	itte	ne
 80004e0:	4619      	movne	r1, r3
 80004e2:	4610      	movne	r0, r2
 80004e4:	ea7f 5c65 	mvnseq.w	ip, r5, asr #21
 80004e8:	bf1c      	itt	ne
 80004ea:	460b      	movne	r3, r1
 80004ec:	4602      	movne	r2, r0
 80004ee:	ea50 3401 	orrs.w	r4, r0, r1, lsl #12
 80004f2:	bf06      	itte	eq
 80004f4:	ea52 3503 	orrseq.w	r5, r2, r3, lsl #12
 80004f8:	ea91 0f03 	teqeq	r1, r3
 80004fc:	f441 2100 	orrne.w	r1, r1, #524288	; 0x80000
 8000500:	bd30      	pop	{r4, r5, pc}
 8000502:	bf00      	nop

08000504 <__aeabi_ui2d>:
 8000504:	f090 0f00 	teq	r0, #0
 8000508:	bf04      	itt	eq
 800050a:	2100      	moveq	r1, #0
 800050c:	4770      	bxeq	lr
 800050e:	b530      	push	{r4, r5, lr}
 8000510:	f44f 6480 	mov.w	r4, #1024	; 0x400
 8000514:	f104 0432 	add.w	r4, r4, #50	; 0x32
 8000518:	f04f 0500 	mov.w	r5, #0
 800051c:	f04f 0100 	mov.w	r1, #0
 8000520:	e750      	b.n	80003c4 <__adddf3+0x138>
 8000522:	bf00      	nop

08000524 <__aeabi_i2d>:
 8000524:	f090 0f00 	teq	r0, #0
 8000528:	bf04      	itt	eq
 800052a:	2100      	moveq	r1, #0
 800052c:	4770      	bxeq	lr
 800052e:	b530      	push	{r4, r5, lr}
 8000530:	f44f 6480 	mov.w	r4, #1024	; 0x400
 8000534:	f104 0432 	add.w	r4, r4, #50	; 0x32
 8000538:	f010 4500 	ands.w	r5, r0, #2147483648	; 0x80000000
 800053c:	bf48      	it	mi
 800053e:	4240      	negmi	r0, r0
 8000540:	f04f 0100 	mov.w	r1, #0
 8000544:	e73e      	b.n	80003c4 <__adddf3+0x138>
 8000546:	bf00      	nop

08000548 <__aeabi_f2d>:
 8000548:	0042      	lsls	r2, r0, #1
 800054a:	ea4f 01e2 	mov.w	r1, r2, asr #3
 800054e:	ea4f 0131 	mov.w	r1, r1, rrx
 8000552:	ea4f 7002 	mov.w	r0, r2, lsl #28
 8000556:	bf1f      	itttt	ne
 8000558:	f012 437f 	andsne.w	r3, r2, #4278190080	; 0xff000000
 800055c:	f093 4f7f 	teqne	r3, #4278190080	; 0xff000000
 8000560:	f081 5160 	eorne.w	r1, r1, #939524096	; 0x38000000
 8000564:	4770      	bxne	lr
 8000566:	f032 427f 	bics.w	r2, r2, #4278190080	; 0xff000000
 800056a:	bf08      	it	eq
 800056c:	4770      	bxeq	lr
 800056e:	f093 4f7f 	teq	r3, #4278190080	; 0xff000000
 8000572:	bf04      	itt	eq
 8000574:	f441 2100 	orreq.w	r1, r1, #524288	; 0x80000
 8000578:	4770      	bxeq	lr
 800057a:	b530      	push	{r4, r5, lr}
 800057c:	f44f 7460 	mov.w	r4, #896	; 0x380
 8000580:	f001 4500 	and.w	r5, r1, #2147483648	; 0x80000000
 8000584:	f021 4100 	bic.w	r1, r1, #2147483648	; 0x80000000
 8000588:	e71c      	b.n	80003c4 <__adddf3+0x138>
 800058a:	bf00      	nop

0800058c <__aeabi_ul2d>:
 800058c:	ea50 0201 	orrs.w	r2, r0, r1
 8000590:	bf08      	it	eq
 8000592:	4770      	bxeq	lr
 8000594:	b530      	push	{r4, r5, lr}
 8000596:	f04f 0500 	mov.w	r5, #0
 800059a:	e00a      	b.n	80005b2 <__aeabi_l2d+0x16>

0800059c <__aeabi_l2d>:
 800059c:	ea50 0201 	orrs.w	r2, r0, r1
 80005a0:	bf08      	it	eq
 80005a2:	4770      	bxeq	lr
 80005a4:	b530      	push	{r4, r5, lr}
 80005a6:	f011 4500 	ands.w	r5, r1, #2147483648	; 0x80000000
 80005aa:	d502      	bpl.n	80005b2 <__aeabi_l2d+0x16>
 80005ac:	4240      	negs	r0, r0
 80005ae:	eb61 0141 	sbc.w	r1, r1, r1, lsl #1
 80005b2:	f44f 6480 	mov.w	r4, #1024	; 0x400
 80005b6:	f104 0432 	add.w	r4, r4, #50	; 0x32
 80005ba:	ea5f 5c91 	movs.w	ip, r1, lsr #22
 80005be:	f43f aed8 	beq.w	8000372 <__adddf3+0xe6>
 80005c2:	f04f 0203 	mov.w	r2, #3
 80005c6:	ea5f 0cdc 	movs.w	ip, ip, lsr #3
 80005ca:	bf18      	it	ne
 80005cc:	3203      	addne	r2, #3
 80005ce:	ea5f 0cdc 	movs.w	ip, ip, lsr #3
 80005d2:	bf18      	it	ne
 80005d4:	3203      	addne	r2, #3
 80005d6:	eb02 02dc 	add.w	r2, r2, ip, lsr #3
 80005da:	f1c2 0320 	rsb	r3, r2, #32
 80005de:	fa00 fc03 	lsl.w	ip, r0, r3
 80005e2:	fa20 f002 	lsr.w	r0, r0, r2
 80005e6:	fa01 fe03 	lsl.w	lr, r1, r3
 80005ea:	ea40 000e 	orr.w	r0, r0, lr
 80005ee:	fa21 f102 	lsr.w	r1, r1, r2
 80005f2:	4414      	add	r4, r2
 80005f4:	e6bd      	b.n	8000372 <__adddf3+0xe6>
 80005f6:	bf00      	nop

080005f8 <__aeabi_dmul>:
 80005f8:	b570      	push	{r4, r5, r6, lr}
 80005fa:	f04f 0cff 	mov.w	ip, #255	; 0xff
 80005fe:	f44c 6ce0 	orr.w	ip, ip, #1792	; 0x700
 8000602:	ea1c 5411 	ands.w	r4, ip, r1, lsr #20
 8000606:	bf1d      	ittte	ne
 8000608:	ea1c 5513 	andsne.w	r5, ip, r3, lsr #20
 800060c:	ea94 0f0c 	teqne	r4, ip
 8000610:	ea95 0f0c 	teqne	r5, ip
 8000614:	f000 f8de 	bleq	80007d4 <__aeabi_dmul+0x1dc>
 8000618:	442c      	add	r4, r5
 800061a:	ea81 0603 	eor.w	r6, r1, r3
 800061e:	ea21 514c 	bic.w	r1, r1, ip, lsl #21
 8000622:	ea23 534c 	bic.w	r3, r3, ip, lsl #21
 8000626:	ea50 3501 	orrs.w	r5, r0, r1, lsl #12
 800062a:	bf18      	it	ne
 800062c:	ea52 3503 	orrsne.w	r5, r2, r3, lsl #12
 8000630:	f441 1180 	orr.w	r1, r1, #1048576	; 0x100000
 8000634:	f443 1380 	orr.w	r3, r3, #1048576	; 0x100000
 8000638:	d038      	beq.n	80006ac <__aeabi_dmul+0xb4>
 800063a:	fba0 ce02 	umull	ip, lr, r0, r2
 800063e:	f04f 0500 	mov.w	r5, #0
 8000642:	fbe1 e502 	umlal	lr, r5, r1, r2
 8000646:	f006 4200 	and.w	r2, r6, #2147483648	; 0x80000000
 800064a:	fbe0 e503 	umlal	lr, r5, r0, r3
 800064e:	f04f 0600 	mov.w	r6, #0
 8000652:	fbe1 5603 	umlal	r5, r6, r1, r3
 8000656:	f09c 0f00 	teq	ip, #0
 800065a:	bf18      	it	ne
 800065c:	f04e 0e01 	orrne.w	lr, lr, #1
 8000660:	f1a4 04ff 	sub.w	r4, r4, #255	; 0xff
 8000664:	f5b6 7f00 	cmp.w	r6, #512	; 0x200
 8000668:	f564 7440 	sbc.w	r4, r4, #768	; 0x300
 800066c:	d204      	bcs.n	8000678 <__aeabi_dmul+0x80>
 800066e:	ea5f 0e4e 	movs.w	lr, lr, lsl #1
 8000672:	416d      	adcs	r5, r5
 8000674:	eb46 0606 	adc.w	r6, r6, r6
 8000678:	ea42 21c6 	orr.w	r1, r2, r6, lsl #11
 800067c:	ea41 5155 	orr.w	r1, r1, r5, lsr #21
 8000680:	ea4f 20c5 	mov.w	r0, r5, lsl #11
 8000684:	ea40 505e 	orr.w	r0, r0, lr, lsr #21
 8000688:	ea4f 2ece 	mov.w	lr, lr, lsl #11
 800068c:	f1b4 0cfd 	subs.w	ip, r4, #253	; 0xfd
 8000690:	bf88      	it	hi
 8000692:	f5bc 6fe0 	cmphi.w	ip, #1792	; 0x700
 8000696:	d81e      	bhi.n	80006d6 <__aeabi_dmul+0xde>
 8000698:	f1be 4f00 	cmp.w	lr, #2147483648	; 0x80000000
 800069c:	bf08      	it	eq
 800069e:	ea5f 0e50 	movseq.w	lr, r0, lsr #1
 80006a2:	f150 0000 	adcs.w	r0, r0, #0
 80006a6:	eb41 5104 	adc.w	r1, r1, r4, lsl #20
 80006aa:	bd70      	pop	{r4, r5, r6, pc}
 80006ac:	f006 4600 	and.w	r6, r6, #2147483648	; 0x80000000
 80006b0:	ea46 0101 	orr.w	r1, r6, r1
 80006b4:	ea40 0002 	orr.w	r0, r0, r2
 80006b8:	ea81 0103 	eor.w	r1, r1, r3
 80006bc:	ebb4 045c 	subs.w	r4, r4, ip, lsr #1
 80006c0:	bfc2      	ittt	gt
 80006c2:	ebd4 050c 	rsbsgt	r5, r4, ip
 80006c6:	ea41 5104 	orrgt.w	r1, r1, r4, lsl #20
 80006ca:	bd70      	popgt	{r4, r5, r6, pc}
 80006cc:	f441 1180 	orr.w	r1, r1, #1048576	; 0x100000
 80006d0:	f04f 0e00 	mov.w	lr, #0
 80006d4:	3c01      	subs	r4, #1
 80006d6:	f300 80ab 	bgt.w	8000830 <__aeabi_dmul+0x238>
 80006da:	f114 0f36 	cmn.w	r4, #54	; 0x36
 80006de:	bfde      	ittt	le
 80006e0:	2000      	movle	r0, #0
 80006e2:	f001 4100 	andle.w	r1, r1, #2147483648	; 0x80000000
 80006e6:	bd70      	pople	{r4, r5, r6, pc}
 80006e8:	f1c4 0400 	rsb	r4, r4, #0
 80006ec:	3c20      	subs	r4, #32
 80006ee:	da35      	bge.n	800075c <__aeabi_dmul+0x164>
 80006f0:	340c      	adds	r4, #12
 80006f2:	dc1b      	bgt.n	800072c <__aeabi_dmul+0x134>
 80006f4:	f104 0414 	add.w	r4, r4, #20
 80006f8:	f1c4 0520 	rsb	r5, r4, #32
 80006fc:	fa00 f305 	lsl.w	r3, r0, r5
 8000700:	fa20 f004 	lsr.w	r0, r0, r4
 8000704:	fa01 f205 	lsl.w	r2, r1, r5
 8000708:	ea40 0002 	orr.w	r0, r0, r2
 800070c:	f001 4200 	and.w	r2, r1, #2147483648	; 0x80000000
 8000710:	f021 4100 	bic.w	r1, r1, #2147483648	; 0x80000000
 8000714:	eb10 70d3 	adds.w	r0, r0, r3, lsr #31
 8000718:	fa21 f604 	lsr.w	r6, r1, r4
 800071c:	eb42 0106 	adc.w	r1, r2, r6
 8000720:	ea5e 0e43 	orrs.w	lr, lr, r3, lsl #1
 8000724:	bf08      	it	eq
 8000726:	ea20 70d3 	biceq.w	r0, r0, r3, lsr #31
 800072a:	bd70      	pop	{r4, r5, r6, pc}
 800072c:	f1c4 040c 	rsb	r4, r4, #12
 8000730:	f1c4 0520 	rsb	r5, r4, #32
 8000734:	fa00 f304 	lsl.w	r3, r0, r4
 8000738:	fa20 f005 	lsr.w	r0, r0, r5
 800073c:	fa01 f204 	lsl.w	r2, r1, r4
 8000740:	ea40 0002 	orr.w	r0, r0, r2
 8000744:	f001 4100 	and.w	r1, r1, #2147483648	; 0x80000000
 8000748:	eb10 70d3 	adds.w	r0, r0, r3, lsr #31
 800074c:	f141 0100 	adc.w	r1, r1, #0
 8000750:	ea5e 0e43 	orrs.w	lr, lr, r3, lsl #1
 8000754:	bf08      	it	eq
 8000756:	ea20 70d3 	biceq.w	r0, r0, r3, lsr #31
 800075a:	bd70      	pop	{r4, r5, r6, pc}
 800075c:	f1c4 0520 	rsb	r5, r4, #32
 8000760:	fa00 f205 	lsl.w	r2, r0, r5
 8000764:	ea4e 0e02 	orr.w	lr, lr, r2
 8000768:	fa20 f304 	lsr.w	r3, r0, r4
 800076c:	fa01 f205 	lsl.w	r2, r1, r5
 8000770:	ea43 0302 	orr.w	r3, r3, r2
 8000774:	fa21 f004 	lsr.w	r0, r1, r4
 8000778:	f001 4100 	and.w	r1, r1, #2147483648	; 0x80000000
 800077c:	fa21 f204 	lsr.w	r2, r1, r4
 8000780:	ea20 0002 	bic.w	r0, r0, r2
 8000784:	eb00 70d3 	add.w	r0, r0, r3, lsr #31
 8000788:	ea5e 0e43 	orrs.w	lr, lr, r3, lsl #1
 800078c:	bf08      	it	eq
 800078e:	ea20 70d3 	biceq.w	r0, r0, r3, lsr #31
 8000792:	bd70      	pop	{r4, r5, r6, pc}
 8000794:	f094 0f00 	teq	r4, #0
 8000798:	d10f      	bne.n	80007ba <__aeabi_dmul+0x1c2>
 800079a:	f001 4600 	and.w	r6, r1, #2147483648	; 0x80000000
 800079e:	0040      	lsls	r0, r0, #1
 80007a0:	eb41 0101 	adc.w	r1, r1, r1
 80007a4:	f411 1f80 	tst.w	r1, #1048576	; 0x100000
 80007a8:	bf08      	it	eq
 80007aa:	3c01      	subeq	r4, #1
 80007ac:	d0f7      	beq.n	800079e <__aeabi_dmul+0x1a6>
 80007ae:	ea41 0106 	orr.w	r1, r1, r6
 80007b2:	f095 0f00 	teq	r5, #0
 80007b6:	bf18      	it	ne
 80007b8:	4770      	bxne	lr
 80007ba:	f003 4600 	and.w	r6, r3, #2147483648	; 0x80000000
 80007be:	0052      	lsls	r2, r2, #1
 80007c0:	eb43 0303 	adc.w	r3, r3, r3
 80007c4:	f413 1f80 	tst.w	r3, #1048576	; 0x100000
 80007c8:	bf08      	it	eq
 80007ca:	3d01      	subeq	r5, #1
 80007cc:	d0f7      	beq.n	80007be <__aeabi_dmul+0x1c6>
 80007ce:	ea43 0306 	orr.w	r3, r3, r6
 80007d2:	4770      	bx	lr
 80007d4:	ea94 0f0c 	teq	r4, ip
 80007d8:	ea0c 5513 	and.w	r5, ip, r3, lsr #20
 80007dc:	bf18      	it	ne
 80007de:	ea95 0f0c 	teqne	r5, ip
 80007e2:	d00c      	beq.n	80007fe <__aeabi_dmul+0x206>
 80007e4:	ea50 0641 	orrs.w	r6, r0, r1, lsl #1
 80007e8:	bf18      	it	ne
 80007ea:	ea52 0643 	orrsne.w	r6, r2, r3, lsl #1
 80007ee:	d1d1      	bne.n	8000794 <__aeabi_dmul+0x19c>
 80007f0:	ea81 0103 	eor.w	r1, r1, r3
 80007f4:	f001 4100 	and.w	r1, r1, #2147483648	; 0x80000000
 80007f8:	f04f 0000 	mov.w	r0, #0
 80007fc:	bd70      	pop	{r4, r5, r6, pc}
 80007fe:	ea50 0641 	orrs.w	r6, r0, r1, lsl #1
 8000802:	bf06      	itte	eq
 8000804:	4610      	moveq	r0, r2
 8000806:	4619      	moveq	r1, r3
 8000808:	ea52 0643 	orrsne.w	r6, r2, r3, lsl #1
 800080c:	d019      	beq.n	8000842 <__aeabi_dmul+0x24a>
 800080e:	ea94 0f0c 	teq	r4, ip
 8000812:	d102      	bne.n	800081a <__aeabi_dmul+0x222>
 8000814:	ea50 3601 	orrs.w	r6, r0, r1, lsl #12
 8000818:	d113      	bne.n	8000842 <__aeabi_dmul+0x24a>
 800081a:	ea95 0f0c 	teq	r5, ip
 800081e:	d105      	bne.n	800082c <__aeabi_dmul+0x234>
 8000820:	ea52 3603 	orrs.w	r6, r2, r3, lsl #12
 8000824:	bf1c      	itt	ne
 8000826:	4610      	movne	r0, r2
 8000828:	4619      	movne	r1, r3
 800082a:	d10a      	bne.n	8000842 <__aeabi_dmul+0x24a>
 800082c:	ea81 0103 	eor.w	r1, r1, r3
 8000830:	f001 4100 	and.w	r1, r1, #2147483648	; 0x80000000
 8000834:	f041 41fe 	orr.w	r1, r1, #2130706432	; 0x7f000000
 8000838:	f441 0170 	orr.w	r1, r1, #15728640	; 0xf00000
 800083c:	f04f 0000 	mov.w	r0, #0
 8000840:	bd70      	pop	{r4, r5, r6, pc}
 8000842:	f041 41fe 	orr.w	r1, r1, #2130706432	; 0x7f000000
 8000846:	f441 0178 	orr.w	r1, r1, #16252928	; 0xf80000
 800084a:	bd70      	pop	{r4, r5, r6, pc}

0800084c <__aeabi_ddiv>:
 800084c:	b570      	push	{r4, r5, r6, lr}
 800084e:	f04f 0cff 	mov.w	ip, #255	; 0xff
 8000852:	f44c 6ce0 	orr.w	ip, ip, #1792	; 0x700
 8000856:	ea1c 5411 	ands.w	r4, ip, r1, lsr #20
 800085a:	bf1d      	ittte	ne
 800085c:	ea1c 5513 	andsne.w	r5, ip, r3, lsr #20
 8000860:	ea94 0f0c 	teqne	r4, ip
 8000864:	ea95 0f0c 	teqne	r5, ip
 8000868:	f000 f8a7 	bleq	80009ba <__aeabi_ddiv+0x16e>
 800086c:	eba4 0405 	sub.w	r4, r4, r5
 8000870:	ea81 0e03 	eor.w	lr, r1, r3
 8000874:	ea52 3503 	orrs.w	r5, r2, r3, lsl #12
 8000878:	ea4f 3101 	mov.w	r1, r1, lsl #12
 800087c:	f000 8088 	beq.w	8000990 <__aeabi_ddiv+0x144>
 8000880:	ea4f 3303 	mov.w	r3, r3, lsl #12
 8000884:	f04f 5580 	mov.w	r5, #268435456	; 0x10000000
 8000888:	ea45 1313 	orr.w	r3, r5, r3, lsr #4
 800088c:	ea43 6312 	orr.w	r3, r3, r2, lsr #24
 8000890:	ea4f 2202 	mov.w	r2, r2, lsl #8
 8000894:	ea45 1511 	orr.w	r5, r5, r1, lsr #4
 8000898:	ea45 6510 	orr.w	r5, r5, r0, lsr #24
 800089c:	ea4f 2600 	mov.w	r6, r0, lsl #8
 80008a0:	f00e 4100 	and.w	r1, lr, #2147483648	; 0x80000000
 80008a4:	429d      	cmp	r5, r3
 80008a6:	bf08      	it	eq
 80008a8:	4296      	cmpeq	r6, r2
 80008aa:	f144 04fd 	adc.w	r4, r4, #253	; 0xfd
 80008ae:	f504 7440 	add.w	r4, r4, #768	; 0x300
 80008b2:	d202      	bcs.n	80008ba <__aeabi_ddiv+0x6e>
 80008b4:	085b      	lsrs	r3, r3, #1
 80008b6:	ea4f 0232 	mov.w	r2, r2, rrx
 80008ba:	1ab6      	subs	r6, r6, r2
 80008bc:	eb65 0503 	sbc.w	r5, r5, r3
 80008c0:	085b      	lsrs	r3, r3, #1
 80008c2:	ea4f 0232 	mov.w	r2, r2, rrx
 80008c6:	f44f 1080 	mov.w	r0, #1048576	; 0x100000
 80008ca:	f44f 2c00 	mov.w	ip, #524288	; 0x80000
 80008ce:	ebb6 0e02 	subs.w	lr, r6, r2
 80008d2:	eb75 0e03 	sbcs.w	lr, r5, r3
 80008d6:	bf22      	ittt	cs
 80008d8:	1ab6      	subcs	r6, r6, r2
 80008da:	4675      	movcs	r5, lr
 80008dc:	ea40 000c 	orrcs.w	r0, r0, ip
 80008e0:	085b      	lsrs	r3, r3, #1
 80008e2:	ea4f 0232 	mov.w	r2, r2, rrx
 80008e6:	ebb6 0e02 	subs.w	lr, r6, r2
 80008ea:	eb75 0e03 	sbcs.w	lr, r5, r3
 80008ee:	bf22      	ittt	cs
 80008f0:	1ab6      	subcs	r6, r6, r2
 80008f2:	4675      	movcs	r5, lr
 80008f4:	ea40 005c 	orrcs.w	r0, r0, ip, lsr #1
 80008f8:	085b      	lsrs	r3, r3, #1
 80008fa:	ea4f 0232 	mov.w	r2, r2, rrx
 80008fe:	ebb6 0e02 	subs.w	lr, r6, r2
 8000902:	eb75 0e03 	sbcs.w	lr, r5, r3
 8000906:	bf22      	ittt	cs
 8000908:	1ab6      	subcs	r6, r6, r2
 800090a:	4675      	movcs	r5, lr
 800090c:	ea40 009c 	orrcs.w	r0, r0, ip, lsr #2
 8000910:	085b      	lsrs	r3, r3, #1
 8000912:	ea4f 0232 	mov.w	r2, r2, rrx
 8000916:	ebb6 0e02 	subs.w	lr, r6, r2
 800091a:	eb75 0e03 	sbcs.w	lr, r5, r3
 800091e:	bf22      	ittt	cs
 8000920:	1ab6      	subcs	r6, r6, r2
 8000922:	4675      	movcs	r5, lr
 8000924:	ea40 00dc 	orrcs.w	r0, r0, ip, lsr #3
 8000928:	ea55 0e06 	orrs.w	lr, r5, r6
 800092c:	d018      	beq.n	8000960 <__aeabi_ddiv+0x114>
 800092e:	ea4f 1505 	mov.w	r5, r5, lsl #4
 8000932:	ea45 7516 	orr.w	r5, r5, r6, lsr #28
 8000936:	ea4f 1606 	mov.w	r6, r6, lsl #4
 800093a:	ea4f 03c3 	mov.w	r3, r3, lsl #3
 800093e:	ea43 7352 	orr.w	r3, r3, r2, lsr #29
 8000942:	ea4f 02c2 	mov.w	r2, r2, lsl #3
 8000946:	ea5f 1c1c 	movs.w	ip, ip, lsr #4
 800094a:	d1c0      	bne.n	80008ce <__aeabi_ddiv+0x82>
 800094c:	f411 1f80 	tst.w	r1, #1048576	; 0x100000
 8000950:	d10b      	bne.n	800096a <__aeabi_ddiv+0x11e>
 8000952:	ea41 0100 	orr.w	r1, r1, r0
 8000956:	f04f 0000 	mov.w	r0, #0
 800095a:	f04f 4c00 	mov.w	ip, #2147483648	; 0x80000000
 800095e:	e7b6      	b.n	80008ce <__aeabi_ddiv+0x82>
 8000960:	f411 1f80 	tst.w	r1, #1048576	; 0x100000
 8000964:	bf04      	itt	eq
 8000966:	4301      	orreq	r1, r0
 8000968:	2000      	moveq	r0, #0
 800096a:	f1b4 0cfd 	subs.w	ip, r4, #253	; 0xfd
 800096e:	bf88      	it	hi
 8000970:	f5bc 6fe0 	cmphi.w	ip, #1792	; 0x700
 8000974:	f63f aeaf 	bhi.w	80006d6 <__aeabi_dmul+0xde>
 8000978:	ebb5 0c03 	subs.w	ip, r5, r3
 800097c:	bf04      	itt	eq
 800097e:	ebb6 0c02 	subseq.w	ip, r6, r2
 8000982:	ea5f 0c50 	movseq.w	ip, r0, lsr #1
 8000986:	f150 0000 	adcs.w	r0, r0, #0
 800098a:	eb41 5104 	adc.w	r1, r1, r4, lsl #20
 800098e:	bd70      	pop	{r4, r5, r6, pc}
 8000990:	f00e 4e00 	and.w	lr, lr, #2147483648	; 0x80000000
 8000994:	ea4e 3111 	orr.w	r1, lr, r1, lsr #12
 8000998:	eb14 045c 	adds.w	r4, r4, ip, lsr #1
 800099c:	bfc2      	ittt	gt
 800099e:	ebd4 050c 	rsbsgt	r5, r4, ip
 80009a2:	ea41 5104 	orrgt.w	r1, r1, r4, lsl #20
 80009a6:	bd70      	popgt	{r4, r5, r6, pc}
 80009a8:	f441 1180 	orr.w	r1, r1, #1048576	; 0x100000
 80009ac:	f04f 0e00 	mov.w	lr, #0
 80009b0:	3c01      	subs	r4, #1
 80009b2:	e690      	b.n	80006d6 <__aeabi_dmul+0xde>
 80009b4:	ea45 0e06 	orr.w	lr, r5, r6
 80009b8:	e68d      	b.n	80006d6 <__aeabi_dmul+0xde>
 80009ba:	ea0c 5513 	and.w	r5, ip, r3, lsr #20
 80009be:	ea94 0f0c 	teq	r4, ip
 80009c2:	bf08      	it	eq
 80009c4:	ea95 0f0c 	teqeq	r5, ip
 80009c8:	f43f af3b 	beq.w	8000842 <__aeabi_dmul+0x24a>
 80009cc:	ea94 0f0c 	teq	r4, ip
 80009d0:	d10a      	bne.n	80009e8 <__aeabi_ddiv+0x19c>
 80009d2:	ea50 3401 	orrs.w	r4, r0, r1, lsl #12
 80009d6:	f47f af34 	bne.w	8000842 <__aeabi_dmul+0x24a>
 80009da:	ea95 0f0c 	teq	r5, ip
 80009de:	f47f af25 	bne.w	800082c <__aeabi_dmul+0x234>
 80009e2:	4610      	mov	r0, r2
 80009e4:	4619      	mov	r1, r3
 80009e6:	e72c      	b.n	8000842 <__aeabi_dmul+0x24a>
 80009e8:	ea95 0f0c 	teq	r5, ip
 80009ec:	d106      	bne.n	80009fc <__aeabi_ddiv+0x1b0>
 80009ee:	ea52 3503 	orrs.w	r5, r2, r3, lsl #12
 80009f2:	f43f aefd 	beq.w	80007f0 <__aeabi_dmul+0x1f8>
 80009f6:	4610      	mov	r0, r2
 80009f8:	4619      	mov	r1, r3
 80009fa:	e722      	b.n	8000842 <__aeabi_dmul+0x24a>
 80009fc:	ea50 0641 	orrs.w	r6, r0, r1, lsl #1
 8000a00:	bf18      	it	ne
 8000a02:	ea52 0643 	orrsne.w	r6, r2, r3, lsl #1
 8000a06:	f47f aec5 	bne.w	8000794 <__aeabi_dmul+0x19c>
 8000a0a:	ea50 0441 	orrs.w	r4, r0, r1, lsl #1
 8000a0e:	f47f af0d 	bne.w	800082c <__aeabi_dmul+0x234>
 8000a12:	ea52 0543 	orrs.w	r5, r2, r3, lsl #1
 8000a16:	f47f aeeb 	bne.w	80007f0 <__aeabi_dmul+0x1f8>
 8000a1a:	e712      	b.n	8000842 <__aeabi_dmul+0x24a>

08000a1c <__gedf2>:
 8000a1c:	f04f 3cff 	mov.w	ip, #4294967295
 8000a20:	e006      	b.n	8000a30 <__cmpdf2+0x4>
 8000a22:	bf00      	nop

08000a24 <__ledf2>:
 8000a24:	f04f 0c01 	mov.w	ip, #1
 8000a28:	e002      	b.n	8000a30 <__cmpdf2+0x4>
 8000a2a:	bf00      	nop

08000a2c <__cmpdf2>:
 8000a2c:	f04f 0c01 	mov.w	ip, #1
 8000a30:	f84d cd04 	str.w	ip, [sp, #-4]!
 8000a34:	ea4f 0c41 	mov.w	ip, r1, lsl #1
 8000a38:	ea7f 5c6c 	mvns.w	ip, ip, asr #21
 8000a3c:	ea4f 0c43 	mov.w	ip, r3, lsl #1
 8000a40:	bf18      	it	ne
 8000a42:	ea7f 5c6c 	mvnsne.w	ip, ip, asr #21
 8000a46:	d01b      	beq.n	8000a80 <__cmpdf2+0x54>
 8000a48:	b001      	add	sp, #4
 8000a4a:	ea50 0c41 	orrs.w	ip, r0, r1, lsl #1
 8000a4e:	bf0c      	ite	eq
 8000a50:	ea52 0c43 	orrseq.w	ip, r2, r3, lsl #1
 8000a54:	ea91 0f03 	teqne	r1, r3
 8000a58:	bf02      	ittt	eq
 8000a5a:	ea90 0f02 	teqeq	r0, r2
 8000a5e:	2000      	moveq	r0, #0
 8000a60:	4770      	bxeq	lr
 8000a62:	f110 0f00 	cmn.w	r0, #0
 8000a66:	ea91 0f03 	teq	r1, r3
 8000a6a:	bf58      	it	pl
 8000a6c:	4299      	cmppl	r1, r3
 8000a6e:	bf08      	it	eq
 8000a70:	4290      	cmpeq	r0, r2
 8000a72:	bf2c      	ite	cs
 8000a74:	17d8      	asrcs	r0, r3, #31
 8000a76:	ea6f 70e3 	mvncc.w	r0, r3, asr #31
 8000a7a:	f040 0001 	orr.w	r0, r0, #1
 8000a7e:	4770      	bx	lr
 8000a80:	ea4f 0c41 	mov.w	ip, r1, lsl #1
 8000a84:	ea7f 5c6c 	mvns.w	ip, ip, asr #21
 8000a88:	d102      	bne.n	8000a90 <__cmpdf2+0x64>
 8000a8a:	ea50 3c01 	orrs.w	ip, r0, r1, lsl #12
 8000a8e:	d107      	bne.n	8000aa0 <__cmpdf2+0x74>
 8000a90:	ea4f 0c43 	mov.w	ip, r3, lsl #1
 8000a94:	ea7f 5c6c 	mvns.w	ip, ip, asr #21
 8000a98:	d1d6      	bne.n	8000a48 <__cmpdf2+0x1c>
 8000a9a:	ea52 3c03 	orrs.w	ip, r2, r3, lsl #12
 8000a9e:	d0d3      	beq.n	8000a48 <__cmpdf2+0x1c>
 8000aa0:	f85d 0b04 	ldr.w	r0, [sp], #4
 8000aa4:	4770      	bx	lr
 8000aa6:	bf00      	nop

08000aa8 <__aeabi_cdrcmple>:
 8000aa8:	4684      	mov	ip, r0
 8000aaa:	4610      	mov	r0, r2
 8000aac:	4662      	mov	r2, ip
 8000aae:	468c      	mov	ip, r1
 8000ab0:	4619      	mov	r1, r3
 8000ab2:	4663      	mov	r3, ip
 8000ab4:	e000      	b.n	8000ab8 <__aeabi_cdcmpeq>
 8000ab6:	bf00      	nop

08000ab8 <__aeabi_cdcmpeq>:
 8000ab8:	b501      	push	{r0, lr}
 8000aba:	f7ff ffb7 	bl	8000a2c <__cmpdf2>
 8000abe:	2800      	cmp	r0, #0
 8000ac0:	bf48      	it	mi
 8000ac2:	f110 0f00 	cmnmi.w	r0, #0
 8000ac6:	bd01      	pop	{r0, pc}

08000ac8 <__aeabi_dcmpeq>:
 8000ac8:	f84d ed08 	str.w	lr, [sp, #-8]!
 8000acc:	f7ff fff4 	bl	8000ab8 <__aeabi_cdcmpeq>
 8000ad0:	bf0c      	ite	eq
 8000ad2:	2001      	moveq	r0, #1
 8000ad4:	2000      	movne	r0, #0
 8000ad6:	f85d fb08 	ldr.w	pc, [sp], #8
 8000ada:	bf00      	nop

08000adc <__aeabi_dcmplt>:
 8000adc:	f84d ed08 	str.w	lr, [sp, #-8]!
 8000ae0:	f7ff ffea 	bl	8000ab8 <__aeabi_cdcmpeq>
 8000ae4:	bf34      	ite	cc
 8000ae6:	2001      	movcc	r0, #1
 8000ae8:	2000      	movcs	r0, #0
 8000aea:	f85d fb08 	ldr.w	pc, [sp], #8
 8000aee:	bf00      	nop

08000af0 <__aeabi_dcmple>:
 8000af0:	f84d ed08 	str.w	lr, [sp, #-8]!
 8000af4:	f7ff ffe0 	bl	8000ab8 <__aeabi_cdcmpeq>
 8000af8:	bf94      	ite	ls
 8000afa:	2001      	movls	r0, #1
 8000afc:	2000      	movhi	r0, #0
 8000afe:	f85d fb08 	ldr.w	pc, [sp], #8
 8000b02:	bf00      	nop

08000b04 <__aeabi_dcmpge>:
 8000b04:	f84d ed08 	str.w	lr, [sp, #-8]!
 8000b08:	f7ff ffce 	bl	8000aa8 <__aeabi_cdrcmple>
 8000b0c:	bf94      	ite	ls
 8000b0e:	2001      	movls	r0, #1
 8000b10:	2000      	movhi	r0, #0
 8000b12:	f85d fb08 	ldr.w	pc, [sp], #8
 8000b16:	bf00      	nop

08000b18 <__aeabi_dcmpgt>:
 8000b18:	f84d ed08 	str.w	lr, [sp, #-8]!
 8000b1c:	f7ff ffc4 	bl	8000aa8 <__aeabi_cdrcmple>
 8000b20:	bf34      	ite	cc
 8000b22:	2001      	movcc	r0, #1
 8000b24:	2000      	movcs	r0, #0
 8000b26:	f85d fb08 	ldr.w	pc, [sp], #8
 8000b2a:	bf00      	nop

08000b2c <__aeabi_dcmpun>:
 8000b2c:	ea4f 0c41 	mov.w	ip, r1, lsl #1
 8000b30:	ea7f 5c6c 	mvns.w	ip, ip, asr #21
 8000b34:	d102      	bne.n	8000b3c <__aeabi_dcmpun+0x10>
 8000b36:	ea50 3c01 	orrs.w	ip, r0, r1, lsl #12
 8000b3a:	d10a      	bne.n	8000b52 <__aeabi_dcmpun+0x26>
 8000b3c:	ea4f 0c43 	mov.w	ip, r3, lsl #1
 8000b40:	ea7f 5c6c 	mvns.w	ip, ip, asr #21
 8000b44:	d102      	bne.n	8000b4c <__aeabi_dcmpun+0x20>
 8000b46:	ea52 3c03 	orrs.w	ip, r2, r3, lsl #12
 8000b4a:	d102      	bne.n	8000b52 <__aeabi_dcmpun+0x26>
 8000b4c:	f04f 0000 	mov.w	r0, #0
 8000b50:	4770      	bx	lr
 8000b52:	f04f 0001 	mov.w	r0, #1
 8000b56:	4770      	bx	lr

08000b58 <__aeabi_d2iz>:
 8000b58:	ea4f 0241 	mov.w	r2, r1, lsl #1
 8000b5c:	f512 1200 	adds.w	r2, r2, #2097152	; 0x200000
 8000b60:	d215      	bcs.n	8000b8e <__aeabi_d2iz+0x36>
 8000b62:	d511      	bpl.n	8000b88 <__aeabi_d2iz+0x30>
 8000b64:	f46f 7378 	mvn.w	r3, #992	; 0x3e0
 8000b68:	ebb3 5262 	subs.w	r2, r3, r2, asr #21
 8000b6c:	d912      	bls.n	8000b94 <__aeabi_d2iz+0x3c>
 8000b6e:	ea4f 23c1 	mov.w	r3, r1, lsl #11
 8000b72:	f043 4300 	orr.w	r3, r3, #2147483648	; 0x80000000
 8000b76:	ea43 5350 	orr.w	r3, r3, r0, lsr #21
 8000b7a:	f011 4f00 	tst.w	r1, #2147483648	; 0x80000000
 8000b7e:	fa23 f002 	lsr.w	r0, r3, r2
 8000b82:	bf18      	it	ne
 8000b84:	4240      	negne	r0, r0
 8000b86:	4770      	bx	lr
 8000b88:	f04f 0000 	mov.w	r0, #0
 8000b8c:	4770      	bx	lr
 8000b8e:	ea50 3001 	orrs.w	r0, r0, r1, lsl #12
 8000b92:	d105      	bne.n	8000ba0 <__aeabi_d2iz+0x48>
 8000b94:	f011 4000 	ands.w	r0, r1, #2147483648	; 0x80000000
 8000b98:	bf08      	it	eq
 8000b9a:	f06f 4000 	mvneq.w	r0, #2147483648	; 0x80000000
 8000b9e:	4770      	bx	lr
 8000ba0:	f04f 0000 	mov.w	r0, #0
 8000ba4:	4770      	bx	lr
 8000ba6:	bf00      	nop

08000ba8 <MX_ADC1_Init>:
 8000ba8:	b510      	push	{r4, lr}
 8000baa:	2400      	movs	r4, #0
 8000bac:	b08e      	sub	sp, #56	; 0x38
 8000bae:	2228      	movs	r2, #40	; 0x28
 8000bb0:	4621      	mov	r1, r4
 8000bb2:	a804      	add	r0, sp, #16
 8000bb4:	e9cd 4401 	strd	r4, r4, [sp, #4]
 8000bb8:	9403      	str	r4, [sp, #12]
 8000bba:	f003 ff7f 	bl	8004abc <memset>
 8000bbe:	4832      	ldr	r0, [pc, #200]	; (8000c88 <MX_ADC1_Init+0xe0>)
 8000bc0:	2301      	movs	r3, #1
 8000bc2:	f04f 42a0 	mov.w	r2, #1342177280	; 0x50000000
 8000bc6:	6103      	str	r3, [r0, #16]
 8000bc8:	61c3      	str	r3, [r0, #28]
 8000bca:	f44f 7380 	mov.w	r3, #256	; 0x100
 8000bce:	6002      	str	r2, [r0, #0]
 8000bd0:	8303      	strh	r3, [r0, #24]
 8000bd2:	2204      	movs	r2, #4
 8000bd4:	e9c0 4401 	strd	r4, r4, [r0, #4]
 8000bd8:	f880 4020 	strb.w	r4, [r0, #32]
 8000bdc:	60c4      	str	r4, [r0, #12]
 8000bde:	f880 4030 	strb.w	r4, [r0, #48]	; 0x30
 8000be2:	6142      	str	r2, [r0, #20]
 8000be4:	6344      	str	r4, [r0, #52]	; 0x34
 8000be6:	f001 f927 	bl	8001e38 <HAL_ADC_Init>
 8000bea:	2800      	cmp	r0, #0
 8000bec:	d135      	bne.n	8000c5a <MX_ADC1_Init+0xb2>
 8000bee:	2300      	movs	r3, #0
 8000bf0:	4825      	ldr	r0, [pc, #148]	; (8000c88 <MX_ADC1_Init+0xe0>)
 8000bf2:	9301      	str	r3, [sp, #4]
 8000bf4:	a901      	add	r1, sp, #4
 8000bf6:	f001 fd47 	bl	8002688 <HAL_ADCEx_MultiModeConfigChannel>
 8000bfa:	2800      	cmp	r0, #0
 8000bfc:	d13a      	bne.n	8000c74 <MX_ADC1_Init+0xcc>
 8000bfe:	ed9f 7b20 	vldr	d7, [pc, #128]	; 8000c80 <MX_ADC1_Init+0xd8>
 8000c02:	2201      	movs	r2, #1
 8000c04:	2003      	movs	r0, #3
 8000c06:	2106      	movs	r1, #6
 8000c08:	2300      	movs	r3, #0
 8000c0a:	e9cd 2204 	strd	r2, r2, [sp, #16]
 8000c0e:	900a      	str	r0, [sp, #40]	; 0x28
 8000c10:	f44f 7280 	mov.w	r2, #256	; 0x100
 8000c14:	9106      	str	r1, [sp, #24]
 8000c16:	481c      	ldr	r0, [pc, #112]	; (8000c88 <MX_ADC1_Init+0xe0>)
 8000c18:	9307      	str	r3, [sp, #28]
 8000c1a:	a904      	add	r1, sp, #16
 8000c1c:	ed8d 7b0c 	vstr	d7, [sp, #48]	; 0x30
 8000c20:	e9cd 3308 	strd	r3, r3, [sp, #32]
 8000c24:	f8ad 202c 	strh.w	r2, [sp, #44]	; 0x2c
 8000c28:	f88d 302e 	strb.w	r3, [sp, #46]	; 0x2e
 8000c2c:	f001 fade 	bl	80021ec <HAL_ADCEx_InjectedConfigChannel>
 8000c30:	b9e8      	cbnz	r0, 8000c6e <MX_ADC1_Init+0xc6>
 8000c32:	2202      	movs	r2, #2
 8000c34:	2302      	movs	r3, #2
 8000c36:	4814      	ldr	r0, [pc, #80]	; (8000c88 <MX_ADC1_Init+0xe0>)
 8000c38:	a904      	add	r1, sp, #16
 8000c3a:	e9cd 2304 	strd	r2, r3, [sp, #16]
 8000c3e:	f001 fad5 	bl	80021ec <HAL_ADCEx_InjectedConfigChannel>
 8000c42:	b988      	cbnz	r0, 8000c68 <MX_ADC1_Init+0xc0>
 8000c44:	2203      	movs	r2, #3
 8000c46:	2303      	movs	r3, #3
 8000c48:	480f      	ldr	r0, [pc, #60]	; (8000c88 <MX_ADC1_Init+0xe0>)
 8000c4a:	a904      	add	r1, sp, #16
 8000c4c:	e9cd 2304 	strd	r2, r3, [sp, #16]
 8000c50:	f001 facc 	bl	80021ec <HAL_ADCEx_InjectedConfigChannel>
 8000c54:	b920      	cbnz	r0, 8000c60 <MX_ADC1_Init+0xb8>
 8000c56:	b00e      	add	sp, #56	; 0x38
 8000c58:	bd10      	pop	{r4, pc}
 8000c5a:	f000 fc2f 	bl	80014bc <Error_Handler>
 8000c5e:	e7c6      	b.n	8000bee <MX_ADC1_Init+0x46>
 8000c60:	f000 fc2c 	bl	80014bc <Error_Handler>
 8000c64:	b00e      	add	sp, #56	; 0x38
 8000c66:	bd10      	pop	{r4, pc}
 8000c68:	f000 fc28 	bl	80014bc <Error_Handler>
 8000c6c:	e7ea      	b.n	8000c44 <MX_ADC1_Init+0x9c>
 8000c6e:	f000 fc25 	bl	80014bc <Error_Handler>
 8000c72:	e7de      	b.n	8000c32 <MX_ADC1_Init+0x8a>
 8000c74:	f000 fc22 	bl	80014bc <Error_Handler>
 8000c78:	e7c1      	b.n	8000bfe <MX_ADC1_Init+0x56>
 8000c7a:	bf00      	nop
 8000c7c:	f3af 8000 	nop.w
 8000c80:	00000001 	.word	0x00000001
 8000c84:	00000040 	.word	0x00000040
 8000c88:	200001fc 	.word	0x200001fc
 8000c8c:	00000000 	.word	0x00000000

08000c90 <MX_ADC3_Init>:
 8000c90:	b510      	push	{r4, lr}
 8000c92:	2400      	movs	r4, #0
 8000c94:	b08e      	sub	sp, #56	; 0x38
 8000c96:	2228      	movs	r2, #40	; 0x28
 8000c98:	4621      	mov	r1, r4
 8000c9a:	a804      	add	r0, sp, #16
 8000c9c:	e9cd 4401 	strd	r4, r4, [sp, #4]
 8000ca0:	9403      	str	r4, [sp, #12]
 8000ca2:	f003 ff0b 	bl	8004abc <memset>
 8000ca6:	4830      	ldr	r0, [pc, #192]	; (8000d68 <MX_ADC3_Init+0xd8>)
 8000ca8:	4a30      	ldr	r2, [pc, #192]	; (8000d6c <MX_ADC3_Init+0xdc>)
 8000caa:	6002      	str	r2, [r0, #0]
 8000cac:	2301      	movs	r3, #1
 8000cae:	6103      	str	r3, [r0, #16]
 8000cb0:	61c3      	str	r3, [r0, #28]
 8000cb2:	f44f 7380 	mov.w	r3, #256	; 0x100
 8000cb6:	2208      	movs	r2, #8
 8000cb8:	8303      	strh	r3, [r0, #24]
 8000cba:	e9c0 4401 	strd	r4, r4, [r0, #4]
 8000cbe:	f880 4020 	strb.w	r4, [r0, #32]
 8000cc2:	60c4      	str	r4, [r0, #12]
 8000cc4:	f880 4030 	strb.w	r4, [r0, #48]	; 0x30
 8000cc8:	6142      	str	r2, [r0, #20]
 8000cca:	6344      	str	r4, [r0, #52]	; 0x34
 8000ccc:	f001 f8b4 	bl	8001e38 <HAL_ADC_Init>
 8000cd0:	2800      	cmp	r0, #0
 8000cd2:	d135      	bne.n	8000d40 <MX_ADC3_Init+0xb0>
 8000cd4:	2300      	movs	r3, #0
 8000cd6:	4824      	ldr	r0, [pc, #144]	; (8000d68 <MX_ADC3_Init+0xd8>)
 8000cd8:	9301      	str	r3, [sp, #4]
 8000cda:	a901      	add	r1, sp, #4
 8000cdc:	f001 fcd4 	bl	8002688 <HAL_ADCEx_MultiModeConfigChannel>
 8000ce0:	2800      	cmp	r0, #0
 8000ce2:	d13a      	bne.n	8000d5a <MX_ADC3_Init+0xca>
 8000ce4:	ed9f 7b1e 	vldr	d7, [pc, #120]	; 8000d60 <MX_ADC3_Init+0xd0>
 8000ce8:	2201      	movs	r2, #1
 8000cea:	2003      	movs	r0, #3
 8000cec:	2106      	movs	r1, #6
 8000cee:	2300      	movs	r3, #0
 8000cf0:	e9cd 2204 	strd	r2, r2, [sp, #16]
 8000cf4:	900a      	str	r0, [sp, #40]	; 0x28
 8000cf6:	f44f 7280 	mov.w	r2, #256	; 0x100
 8000cfa:	9106      	str	r1, [sp, #24]
 8000cfc:	481a      	ldr	r0, [pc, #104]	; (8000d68 <MX_ADC3_Init+0xd8>)
 8000cfe:	9307      	str	r3, [sp, #28]
 8000d00:	a904      	add	r1, sp, #16
 8000d02:	ed8d 7b0c 	vstr	d7, [sp, #48]	; 0x30
 8000d06:	e9cd 3308 	strd	r3, r3, [sp, #32]
 8000d0a:	f8ad 202c 	strh.w	r2, [sp, #44]	; 0x2c
 8000d0e:	f88d 302e 	strb.w	r3, [sp, #46]	; 0x2e
 8000d12:	f001 fa6b 	bl	80021ec <HAL_ADCEx_InjectedConfigChannel>
 8000d16:	b9e8      	cbnz	r0, 8000d54 <MX_ADC3_Init+0xc4>
 8000d18:	2205      	movs	r2, #5
 8000d1a:	2302      	movs	r3, #2
 8000d1c:	4812      	ldr	r0, [pc, #72]	; (8000d68 <MX_ADC3_Init+0xd8>)
 8000d1e:	a904      	add	r1, sp, #16
 8000d20:	e9cd 2304 	strd	r2, r3, [sp, #16]
 8000d24:	f001 fa62 	bl	80021ec <HAL_ADCEx_InjectedConfigChannel>
 8000d28:	b988      	cbnz	r0, 8000d4e <MX_ADC3_Init+0xbe>
 8000d2a:	220c      	movs	r2, #12
 8000d2c:	2303      	movs	r3, #3
 8000d2e:	480e      	ldr	r0, [pc, #56]	; (8000d68 <MX_ADC3_Init+0xd8>)
 8000d30:	a904      	add	r1, sp, #16
 8000d32:	e9cd 2304 	strd	r2, r3, [sp, #16]
 8000d36:	f001 fa59 	bl	80021ec <HAL_ADCEx_InjectedConfigChannel>
 8000d3a:	b920      	cbnz	r0, 8000d46 <MX_ADC3_Init+0xb6>
 8000d3c:	b00e      	add	sp, #56	; 0x38
 8000d3e:	bd10      	pop	{r4, pc}
 8000d40:	f000 fbbc 	bl	80014bc <Error_Handler>
 8000d44:	e7c6      	b.n	8000cd4 <MX_ADC3_Init+0x44>
 8000d46:	f000 fbb9 	bl	80014bc <Error_Handler>
 8000d4a:	b00e      	add	sp, #56	; 0x38
 8000d4c:	bd10      	pop	{r4, pc}
 8000d4e:	f000 fbb5 	bl	80014bc <Error_Handler>
 8000d52:	e7ea      	b.n	8000d2a <MX_ADC3_Init+0x9a>
 8000d54:	f000 fbb2 	bl	80014bc <Error_Handler>
 8000d58:	e7de      	b.n	8000d18 <MX_ADC3_Init+0x88>
 8000d5a:	f000 fbaf 	bl	80014bc <Error_Handler>
 8000d5e:	e7c1      	b.n	8000ce4 <MX_ADC3_Init+0x54>
 8000d60:	00000001 	.word	0x00000001
 8000d64:	00000040 	.word	0x00000040
 8000d68:	2000024c 	.word	0x2000024c
 8000d6c:	50000400 	.word	0x50000400

08000d70 <MX_ADC4_Init>:
 8000d70:	b500      	push	{lr}
 8000d72:	b08b      	sub	sp, #44	; 0x2c
 8000d74:	2228      	movs	r2, #40	; 0x28
 8000d76:	2100      	movs	r1, #0
 8000d78:	4668      	mov	r0, sp
 8000d7a:	f003 fe9f 	bl	8004abc <memset>
 8000d7e:	4826      	ldr	r0, [pc, #152]	; (8000e18 <MX_ADC4_Init+0xa8>)
 8000d80:	4926      	ldr	r1, [pc, #152]	; (8000e1c <MX_ADC4_Init+0xac>)
 8000d82:	6001      	str	r1, [r0, #0]
 8000d84:	2201      	movs	r2, #1
 8000d86:	6102      	str	r2, [r0, #16]
 8000d88:	61c2      	str	r2, [r0, #28]
 8000d8a:	f44f 7280 	mov.w	r2, #256	; 0x100
 8000d8e:	2300      	movs	r3, #0
 8000d90:	2104      	movs	r1, #4
 8000d92:	8302      	strh	r2, [r0, #24]
 8000d94:	e9c0 3301 	strd	r3, r3, [r0, #4]
 8000d98:	f880 3020 	strb.w	r3, [r0, #32]
 8000d9c:	60c3      	str	r3, [r0, #12]
 8000d9e:	f880 3030 	strb.w	r3, [r0, #48]	; 0x30
 8000da2:	6141      	str	r1, [r0, #20]
 8000da4:	6343      	str	r3, [r0, #52]	; 0x34
 8000da6:	f001 f847 	bl	8001e38 <HAL_ADC_Init>
 8000daa:	bb30      	cbnz	r0, 8000dfa <MX_ADC4_Init+0x8a>
 8000dac:	2103      	movs	r1, #3
 8000dae:	2201      	movs	r2, #1
 8000db0:	ed9f 7b17 	vldr	d7, [pc, #92]	; 8000e10 <MX_ADC4_Init+0xa0>
 8000db4:	e9cd 1200 	strd	r1, r2, [sp]
 8000db8:	2102      	movs	r1, #2
 8000dba:	2206      	movs	r2, #6
 8000dbc:	2300      	movs	r3, #0
 8000dbe:	9106      	str	r1, [sp, #24]
 8000dc0:	9202      	str	r2, [sp, #8]
 8000dc2:	4815      	ldr	r0, [pc, #84]	; (8000e18 <MX_ADC4_Init+0xa8>)
 8000dc4:	9303      	str	r3, [sp, #12]
 8000dc6:	f44f 7280 	mov.w	r2, #256	; 0x100
 8000dca:	4669      	mov	r1, sp
 8000dcc:	ed8d 7b08 	vstr	d7, [sp, #32]
 8000dd0:	e9cd 3304 	strd	r3, r3, [sp, #16]
 8000dd4:	f8ad 201c 	strh.w	r2, [sp, #28]
 8000dd8:	f88d 301e 	strb.w	r3, [sp, #30]
 8000ddc:	f001 fa06 	bl	80021ec <HAL_ADCEx_InjectedConfigChannel>
 8000de0:	b998      	cbnz	r0, 8000e0a <MX_ADC4_Init+0x9a>
 8000de2:	2204      	movs	r2, #4
 8000de4:	2302      	movs	r3, #2
 8000de6:	480c      	ldr	r0, [pc, #48]	; (8000e18 <MX_ADC4_Init+0xa8>)
 8000de8:	4669      	mov	r1, sp
 8000dea:	e9cd 2300 	strd	r2, r3, [sp]
 8000dee:	f001 f9fd 	bl	80021ec <HAL_ADCEx_InjectedConfigChannel>
 8000df2:	b928      	cbnz	r0, 8000e00 <MX_ADC4_Init+0x90>
 8000df4:	b00b      	add	sp, #44	; 0x2c
 8000df6:	f85d fb04 	ldr.w	pc, [sp], #4
 8000dfa:	f000 fb5f 	bl	80014bc <Error_Handler>
 8000dfe:	e7d5      	b.n	8000dac <MX_ADC4_Init+0x3c>
 8000e00:	f000 fb5c 	bl	80014bc <Error_Handler>
 8000e04:	b00b      	add	sp, #44	; 0x2c
 8000e06:	f85d fb04 	ldr.w	pc, [sp], #4
 8000e0a:	f000 fb57 	bl	80014bc <Error_Handler>
 8000e0e:	e7e8      	b.n	8000de2 <MX_ADC4_Init+0x72>
 8000e10:	00000001 	.word	0x00000001
 8000e14:	00000040 	.word	0x00000040
 8000e18:	2000029c 	.word	0x2000029c
 8000e1c:	50000500 	.word	0x50000500

08000e20 <HAL_ADC_MspInit>:
 8000e20:	b570      	push	{r4, r5, r6, lr}
 8000e22:	6803      	ldr	r3, [r0, #0]
 8000e24:	b08c      	sub	sp, #48	; 0x30
 8000e26:	2400      	movs	r4, #0
 8000e28:	f1b3 4fa0 	cmp.w	r3, #1342177280	; 0x50000000
 8000e2c:	e9cd 4406 	strd	r4, r4, [sp, #24]
 8000e30:	e9cd 4408 	strd	r4, r4, [sp, #32]
 8000e34:	4605      	mov	r5, r0
 8000e36:	940a      	str	r4, [sp, #40]	; 0x28
 8000e38:	f000 8086 	beq.w	8000f48 <HAL_ADC_MspInit+0x128>
 8000e3c:	4a5f      	ldr	r2, [pc, #380]	; (8000fbc <HAL_ADC_MspInit+0x19c>)
 8000e3e:	4293      	cmp	r3, r2
 8000e40:	d004      	beq.n	8000e4c <HAL_ADC_MspInit+0x2c>
 8000e42:	4a5f      	ldr	r2, [pc, #380]	; (8000fc0 <HAL_ADC_MspInit+0x1a0>)
 8000e44:	4293      	cmp	r3, r2
 8000e46:	d036      	beq.n	8000eb6 <HAL_ADC_MspInit+0x96>
 8000e48:	b00c      	add	sp, #48	; 0x30
 8000e4a:	bd70      	pop	{r4, r5, r6, pc}
 8000e4c:	4a5d      	ldr	r2, [pc, #372]	; (8000fc4 <HAL_ADC_MspInit+0x1a4>)
 8000e4e:	6813      	ldr	r3, [r2, #0]
 8000e50:	3301      	adds	r3, #1
 8000e52:	2b01      	cmp	r3, #1
 8000e54:	6013      	str	r3, [r2, #0]
 8000e56:	d06c      	beq.n	8000f32 <HAL_ADC_MspInit+0x112>
 8000e58:	4b5b      	ldr	r3, [pc, #364]	; (8000fc8 <HAL_ADC_MspInit+0x1a8>)
 8000e5a:	485c      	ldr	r0, [pc, #368]	; (8000fcc <HAL_ADC_MspInit+0x1ac>)
 8000e5c:	695a      	ldr	r2, [r3, #20]
 8000e5e:	4c5c      	ldr	r4, [pc, #368]	; (8000fd0 <HAL_ADC_MspInit+0x1b0>)
 8000e60:	f442 2280 	orr.w	r2, r2, #262144	; 0x40000
 8000e64:	615a      	str	r2, [r3, #20]
 8000e66:	695b      	ldr	r3, [r3, #20]
 8000e68:	f403 2380 	and.w	r3, r3, #262144	; 0x40000
 8000e6c:	9303      	str	r3, [sp, #12]
 8000e6e:	f242 0203 	movw	r2, #8195	; 0x2003
 8000e72:	a906      	add	r1, sp, #24
 8000e74:	2303      	movs	r3, #3
 8000e76:	e9cd 2306 	strd	r2, r3, [sp, #24]
 8000e7a:	9b03      	ldr	r3, [sp, #12]
 8000e7c:	f001 fe1e 	bl	8002abc <HAL_GPIO_Init>
 8000e80:	4954      	ldr	r1, [pc, #336]	; (8000fd4 <HAL_ADC_MspInit+0x1b4>)
 8000e82:	2300      	movs	r3, #0
 8000e84:	e9c4 1300 	strd	r1, r3, [r4]
 8000e88:	2280      	movs	r2, #128	; 0x80
 8000e8a:	60a3      	str	r3, [r4, #8]
 8000e8c:	f44f 7380 	mov.w	r3, #256	; 0x100
 8000e90:	e9c4 2303 	strd	r2, r3, [r4, #12]
 8000e94:	f44f 5380 	mov.w	r3, #4096	; 0x1000
 8000e98:	f44f 6180 	mov.w	r1, #1024	; 0x400
 8000e9c:	2220      	movs	r2, #32
 8000e9e:	4620      	mov	r0, r4
 8000ea0:	61e3      	str	r3, [r4, #28]
 8000ea2:	e9c4 1205 	strd	r1, r2, [r4, #20]
 8000ea6:	f001 fd7b 	bl	80029a0 <HAL_DMA_Init>
 8000eaa:	2800      	cmp	r0, #0
 8000eac:	d13c      	bne.n	8000f28 <HAL_ADC_MspInit+0x108>
 8000eae:	63ac      	str	r4, [r5, #56]	; 0x38
 8000eb0:	6265      	str	r5, [r4, #36]	; 0x24
 8000eb2:	b00c      	add	sp, #48	; 0x30
 8000eb4:	bd70      	pop	{r4, r5, r6, pc}
 8000eb6:	4a43      	ldr	r2, [pc, #268]	; (8000fc4 <HAL_ADC_MspInit+0x1a4>)
 8000eb8:	6813      	ldr	r3, [r2, #0]
 8000eba:	3301      	adds	r3, #1
 8000ebc:	2b01      	cmp	r3, #1
 8000ebe:	6013      	str	r3, [r2, #0]
 8000ec0:	d109      	bne.n	8000ed6 <HAL_ADC_MspInit+0xb6>
 8000ec2:	4b41      	ldr	r3, [pc, #260]	; (8000fc8 <HAL_ADC_MspInit+0x1a8>)
 8000ec4:	695a      	ldr	r2, [r3, #20]
 8000ec6:	f042 5200 	orr.w	r2, r2, #536870912	; 0x20000000
 8000eca:	615a      	str	r2, [r3, #20]
 8000ecc:	695b      	ldr	r3, [r3, #20]
 8000ece:	f003 5300 	and.w	r3, r3, #536870912	; 0x20000000
 8000ed2:	9304      	str	r3, [sp, #16]
 8000ed4:	9b04      	ldr	r3, [sp, #16]
 8000ed6:	4b3c      	ldr	r3, [pc, #240]	; (8000fc8 <HAL_ADC_MspInit+0x1a8>)
 8000ed8:	483c      	ldr	r0, [pc, #240]	; (8000fcc <HAL_ADC_MspInit+0x1ac>)
 8000eda:	695a      	ldr	r2, [r3, #20]
 8000edc:	4c3e      	ldr	r4, [pc, #248]	; (8000fd8 <HAL_ADC_MspInit+0x1b8>)
 8000ede:	f442 2280 	orr.w	r2, r2, #262144	; 0x40000
 8000ee2:	615a      	str	r2, [r3, #20]
 8000ee4:	695b      	ldr	r3, [r3, #20]
 8000ee6:	f403 2380 	and.w	r3, r3, #262144	; 0x40000
 8000eea:	9305      	str	r3, [sp, #20]
 8000eec:	f44f 42a0 	mov.w	r2, #20480	; 0x5000
 8000ef0:	a906      	add	r1, sp, #24
 8000ef2:	2303      	movs	r3, #3
 8000ef4:	e9cd 2306 	strd	r2, r3, [sp, #24]
 8000ef8:	9b05      	ldr	r3, [sp, #20]
 8000efa:	f001 fddf 	bl	8002abc <HAL_GPIO_Init>
 8000efe:	4937      	ldr	r1, [pc, #220]	; (8000fdc <HAL_ADC_MspInit+0x1bc>)
 8000f00:	2300      	movs	r3, #0
 8000f02:	2280      	movs	r2, #128	; 0x80
 8000f04:	e9c4 1300 	strd	r1, r3, [r4]
 8000f08:	e9c4 3202 	strd	r3, r2, [r4, #8]
 8000f0c:	f44f 7180 	mov.w	r1, #256	; 0x100
 8000f10:	f44f 6280 	mov.w	r2, #1024	; 0x400
 8000f14:	e9c4 1204 	strd	r1, r2, [r4, #16]
 8000f18:	2220      	movs	r2, #32
 8000f1a:	e9c4 2306 	strd	r2, r3, [r4, #24]
 8000f1e:	4620      	mov	r0, r4
 8000f20:	f001 fd3e 	bl	80029a0 <HAL_DMA_Init>
 8000f24:	2800      	cmp	r0, #0
 8000f26:	d0c2      	beq.n	8000eae <HAL_ADC_MspInit+0x8e>
 8000f28:	f000 fac8 	bl	80014bc <Error_Handler>
 8000f2c:	63ac      	str	r4, [r5, #56]	; 0x38
 8000f2e:	6265      	str	r5, [r4, #36]	; 0x24
 8000f30:	e7bf      	b.n	8000eb2 <HAL_ADC_MspInit+0x92>
 8000f32:	4b25      	ldr	r3, [pc, #148]	; (8000fc8 <HAL_ADC_MspInit+0x1a8>)
 8000f34:	695a      	ldr	r2, [r3, #20]
 8000f36:	f042 5200 	orr.w	r2, r2, #536870912	; 0x20000000
 8000f3a:	615a      	str	r2, [r3, #20]
 8000f3c:	695b      	ldr	r3, [r3, #20]
 8000f3e:	f003 5300 	and.w	r3, r3, #536870912	; 0x20000000
 8000f42:	9302      	str	r3, [sp, #8]
 8000f44:	9b02      	ldr	r3, [sp, #8]
 8000f46:	e787      	b.n	8000e58 <HAL_ADC_MspInit+0x38>
 8000f48:	f103 4370 	add.w	r3, r3, #4026531840	; 0xf0000000
 8000f4c:	f503 3304 	add.w	r3, r3, #135168	; 0x21000
 8000f50:	f04f 4090 	mov.w	r0, #1207959552	; 0x48000000
 8000f54:	695a      	ldr	r2, [r3, #20]
 8000f56:	4e22      	ldr	r6, [pc, #136]	; (8000fe0 <HAL_ADC_MspInit+0x1c0>)
 8000f58:	f042 5280 	orr.w	r2, r2, #268435456	; 0x10000000
 8000f5c:	615a      	str	r2, [r3, #20]
 8000f5e:	695a      	ldr	r2, [r3, #20]
 8000f60:	f002 5280 	and.w	r2, r2, #268435456	; 0x10000000
 8000f64:	9200      	str	r2, [sp, #0]
 8000f66:	9a00      	ldr	r2, [sp, #0]
 8000f68:	695a      	ldr	r2, [r3, #20]
 8000f6a:	f442 3200 	orr.w	r2, r2, #131072	; 0x20000
 8000f6e:	615a      	str	r2, [r3, #20]
 8000f70:	695b      	ldr	r3, [r3, #20]
 8000f72:	f403 3300 	and.w	r3, r3, #131072	; 0x20000
 8000f76:	9301      	str	r3, [sp, #4]
 8000f78:	2207      	movs	r2, #7
 8000f7a:	2303      	movs	r3, #3
 8000f7c:	a906      	add	r1, sp, #24
 8000f7e:	e9cd 2306 	strd	r2, r3, [sp, #24]
 8000f82:	9b01      	ldr	r3, [sp, #4]
 8000f84:	f001 fd9a 	bl	8002abc <HAL_GPIO_Init>
 8000f88:	4a16      	ldr	r2, [pc, #88]	; (8000fe4 <HAL_ADC_MspInit+0x1c4>)
 8000f8a:	2380      	movs	r3, #128	; 0x80
 8000f8c:	e9c6 2400 	strd	r2, r4, [r6]
 8000f90:	e9c6 4302 	strd	r4, r3, [r6, #8]
 8000f94:	f44f 7280 	mov.w	r2, #256	; 0x100
 8000f98:	f44f 6380 	mov.w	r3, #1024	; 0x400
 8000f9c:	e9c6 2304 	strd	r2, r3, [r6, #16]
 8000fa0:	4630      	mov	r0, r6
 8000fa2:	2320      	movs	r3, #32
 8000fa4:	e9c6 3406 	strd	r3, r4, [r6, #24]
 8000fa8:	f001 fcfa 	bl	80029a0 <HAL_DMA_Init>
 8000fac:	b918      	cbnz	r0, 8000fb6 <HAL_ADC_MspInit+0x196>
 8000fae:	63ae      	str	r6, [r5, #56]	; 0x38
 8000fb0:	6275      	str	r5, [r6, #36]	; 0x24
 8000fb2:	b00c      	add	sp, #48	; 0x30
 8000fb4:	bd70      	pop	{r4, r5, r6, pc}
 8000fb6:	f000 fa81 	bl	80014bc <Error_Handler>
 8000fba:	e7f8      	b.n	8000fae <HAL_ADC_MspInit+0x18e>
 8000fbc:	50000400 	.word	0x50000400
 8000fc0:	50000500 	.word	0x50000500
 8000fc4:	200001f8 	.word	0x200001f8
 8000fc8:	40021000 	.word	0x40021000
 8000fcc:	48000400 	.word	0x48000400
 8000fd0:	20000330 	.word	0x20000330
 8000fd4:	40020458 	.word	0x40020458
 8000fd8:	20000374 	.word	0x20000374
 8000fdc:	4002041c 	.word	0x4002041c
 8000fe0:	200002ec 	.word	0x200002ec
 8000fe4:	40020008 	.word	0x40020008

08000fe8 <MX_CAN_Init>:
 8000fe8:	b510      	push	{r4, lr}
 8000fea:	480c      	ldr	r0, [pc, #48]	; (800101c <MX_CAN_Init+0x34>)
 8000fec:	4c0c      	ldr	r4, [pc, #48]	; (8001020 <MX_CAN_Init+0x38>)
 8000fee:	2300      	movs	r3, #0
 8000ff0:	2202      	movs	r2, #2
 8000ff2:	e9c0 4200 	strd	r4, r2, [r0]
 8000ff6:	f44f 2100 	mov.w	r1, #524288	; 0x80000
 8000ffa:	f44f 02e0 	mov.w	r2, #7340032	; 0x700000
 8000ffe:	6183      	str	r3, [r0, #24]
 8001000:	8383      	strh	r3, [r0, #28]
 8001002:	e9c0 3302 	strd	r3, r3, [r0, #8]
 8001006:	e9c0 1204 	strd	r1, r2, [r0, #16]
 800100a:	f001 fbd1 	bl	80027b0 <HAL_CAN_Init>
 800100e:	b900      	cbnz	r0, 8001012 <MX_CAN_Init+0x2a>
 8001010:	bd10      	pop	{r4, pc}
 8001012:	e8bd 4010 	ldmia.w	sp!, {r4, lr}
 8001016:	f000 ba51 	b.w	80014bc <Error_Handler>
 800101a:	bf00      	nop
 800101c:	200003b8 	.word	0x200003b8
 8001020:	40006400 	.word	0x40006400
 8001024:	00000000 	.word	0x00000000

08001028 <HAL_CAN_MspInit>:
 8001028:	b510      	push	{r4, lr}
 800102a:	4a1b      	ldr	r2, [pc, #108]	; (8001098 <HAL_CAN_MspInit+0x70>)
 800102c:	6801      	ldr	r1, [r0, #0]
 800102e:	b088      	sub	sp, #32
 8001030:	2300      	movs	r3, #0
 8001032:	4291      	cmp	r1, r2
 8001034:	e9cd 3302 	strd	r3, r3, [sp, #8]
 8001038:	e9cd 3304 	strd	r3, r3, [sp, #16]
 800103c:	9306      	str	r3, [sp, #24]
 800103e:	d001      	beq.n	8001044 <HAL_CAN_MspInit+0x1c>
 8001040:	b008      	add	sp, #32
 8001042:	bd10      	pop	{r4, pc}
 8001044:	f103 4380 	add.w	r3, r3, #1073741824	; 0x40000000
 8001048:	f503 3304 	add.w	r3, r3, #135168	; 0x21000
 800104c:	ed9f 7b10 	vldr	d7, [pc, #64]	; 8001090 <HAL_CAN_MspInit+0x68>
 8001050:	69da      	ldr	r2, [r3, #28]
 8001052:	f042 7200 	orr.w	r2, r2, #33554432	; 0x2000000
 8001056:	61da      	str	r2, [r3, #28]
 8001058:	69da      	ldr	r2, [r3, #28]
 800105a:	f002 7200 	and.w	r2, r2, #33554432	; 0x2000000
 800105e:	9200      	str	r2, [sp, #0]
 8001060:	9a00      	ldr	r2, [sp, #0]
 8001062:	695a      	ldr	r2, [r3, #20]
 8001064:	f442 3200 	orr.w	r2, r2, #131072	; 0x20000
 8001068:	615a      	str	r2, [r3, #20]
 800106a:	695b      	ldr	r3, [r3, #20]
 800106c:	f403 3300 	and.w	r3, r3, #131072	; 0x20000
 8001070:	9301      	str	r3, [sp, #4]
 8001072:	2203      	movs	r2, #3
 8001074:	2309      	movs	r3, #9
 8001076:	a902      	add	r1, sp, #8
 8001078:	f04f 4090 	mov.w	r0, #1207959552	; 0x48000000
 800107c:	ed8d 7b02 	vstr	d7, [sp, #8]
 8001080:	e9cd 2305 	strd	r2, r3, [sp, #20]
 8001084:	9c01      	ldr	r4, [sp, #4]
 8001086:	f001 fd19 	bl	8002abc <HAL_GPIO_Init>
 800108a:	b008      	add	sp, #32
 800108c:	bd10      	pop	{r4, pc}
 800108e:	bf00      	nop
 8001090:	00001800 	.word	0x00001800
 8001094:	00000002 	.word	0x00000002
 8001098:	40006400 	.word	0x40006400

0800109c <MX_DMA_Init>:
 800109c:	4b17      	ldr	r3, [pc, #92]	; (80010fc <MX_DMA_Init+0x60>)
 800109e:	b510      	push	{r4, lr}
 80010a0:	6958      	ldr	r0, [r3, #20]
 80010a2:	f040 0002 	orr.w	r0, r0, #2
 80010a6:	6158      	str	r0, [r3, #20]
 80010a8:	695c      	ldr	r4, [r3, #20]
 80010aa:	b082      	sub	sp, #8
 80010ac:	f004 0402 	and.w	r4, r4, #2
 80010b0:	9400      	str	r4, [sp, #0]
 80010b2:	9c00      	ldr	r4, [sp, #0]
 80010b4:	695c      	ldr	r4, [r3, #20]
 80010b6:	f044 0401 	orr.w	r4, r4, #1
 80010ba:	615c      	str	r4, [r3, #20]
 80010bc:	695b      	ldr	r3, [r3, #20]
 80010be:	2200      	movs	r2, #0
 80010c0:	f003 0301 	and.w	r3, r3, #1
 80010c4:	4611      	mov	r1, r2
 80010c6:	9301      	str	r3, [sp, #4]
 80010c8:	200b      	movs	r0, #11
 80010ca:	9b01      	ldr	r3, [sp, #4]
 80010cc:	f001 fc02 	bl	80028d4 <HAL_NVIC_SetPriority>
 80010d0:	200b      	movs	r0, #11
 80010d2:	f001 fc3d 	bl	8002950 <HAL_NVIC_EnableIRQ>
 80010d6:	2200      	movs	r2, #0
 80010d8:	4611      	mov	r1, r2
 80010da:	2039      	movs	r0, #57	; 0x39
 80010dc:	f001 fbfa 	bl	80028d4 <HAL_NVIC_SetPriority>
 80010e0:	2039      	movs	r0, #57	; 0x39
 80010e2:	f001 fc35 	bl	8002950 <HAL_NVIC_EnableIRQ>
 80010e6:	2200      	movs	r2, #0
 80010e8:	203c      	movs	r0, #60	; 0x3c
 80010ea:	4611      	mov	r1, r2
 80010ec:	f001 fbf2 	bl	80028d4 <HAL_NVIC_SetPriority>
 80010f0:	203c      	movs	r0, #60	; 0x3c
 80010f2:	b002      	add	sp, #8
 80010f4:	e8bd 4010 	ldmia.w	sp!, {r4, lr}
 80010f8:	f001 bc2a 	b.w	8002950 <HAL_NVIC_EnableIRQ>
 80010fc:	40021000 	.word	0x40021000

08001100 <MX_GPIO_Init>:
 8001100:	b5f0      	push	{r4, r5, r6, r7, lr}
 8001102:	2400      	movs	r4, #0
 8001104:	b08b      	sub	sp, #44	; 0x2c
 8001106:	e9cd 4404 	strd	r4, r4, [sp, #16]
 800110a:	e9cd 4406 	strd	r4, r4, [sp, #24]
 800110e:	4b35      	ldr	r3, [pc, #212]	; (80011e4 <MX_GPIO_Init+0xe4>)
 8001110:	9408      	str	r4, [sp, #32]
 8001112:	695a      	ldr	r2, [r3, #20]
 8001114:	4e34      	ldr	r6, [pc, #208]	; (80011e8 <MX_GPIO_Init+0xe8>)
 8001116:	4d35      	ldr	r5, [pc, #212]	; (80011ec <MX_GPIO_Init+0xec>)
 8001118:	f442 2200 	orr.w	r2, r2, #524288	; 0x80000
 800111c:	615a      	str	r2, [r3, #20]
 800111e:	695a      	ldr	r2, [r3, #20]
 8001120:	f402 2200 	and.w	r2, r2, #524288	; 0x80000
 8001124:	9200      	str	r2, [sp, #0]
 8001126:	9a00      	ldr	r2, [sp, #0]
 8001128:	695a      	ldr	r2, [r3, #20]
 800112a:	f442 0280 	orr.w	r2, r2, #4194304	; 0x400000
 800112e:	615a      	str	r2, [r3, #20]
 8001130:	695a      	ldr	r2, [r3, #20]
 8001132:	f402 0280 	and.w	r2, r2, #4194304	; 0x400000
 8001136:	9201      	str	r2, [sp, #4]
 8001138:	9a01      	ldr	r2, [sp, #4]
 800113a:	695a      	ldr	r2, [r3, #20]
 800113c:	f442 3200 	orr.w	r2, r2, #131072	; 0x20000
 8001140:	615a      	str	r2, [r3, #20]
 8001142:	695a      	ldr	r2, [r3, #20]
 8001144:	f402 3200 	and.w	r2, r2, #131072	; 0x20000
 8001148:	9202      	str	r2, [sp, #8]
 800114a:	9a02      	ldr	r2, [sp, #8]
 800114c:	695a      	ldr	r2, [r3, #20]
 800114e:	f442 2280 	orr.w	r2, r2, #262144	; 0x40000
 8001152:	615a      	str	r2, [r3, #20]
 8001154:	695b      	ldr	r3, [r3, #20]
 8001156:	f403 2380 	and.w	r3, r3, #262144	; 0x40000
 800115a:	9303      	str	r3, [sp, #12]
 800115c:	4630      	mov	r0, r6
 800115e:	4622      	mov	r2, r4
 8001160:	f44f 4160 	mov.w	r1, #57344	; 0xe000
 8001164:	9b03      	ldr	r3, [sp, #12]
 8001166:	f001 fd93 	bl	8002c90 <HAL_GPIO_WritePin>
 800116a:	4622      	mov	r2, r4
 800116c:	f248 0110 	movw	r1, #32784	; 0x8010
 8001170:	f04f 4090 	mov.w	r0, #1207959552	; 0x48000000
 8001174:	f001 fd8c 	bl	8002c90 <HAL_GPIO_WritePin>
 8001178:	4622      	mov	r2, r4
 800117a:	4628      	mov	r0, r5
 800117c:	2144      	movs	r1, #68	; 0x44
 800117e:	f001 fd87 	bl	8002c90 <HAL_GPIO_WritePin>
 8001182:	2700      	movs	r7, #0
 8001184:	4630      	mov	r0, r6
 8001186:	f44f 4260 	mov.w	r2, #57344	; 0xe000
 800118a:	2600      	movs	r6, #0
 800118c:	2301      	movs	r3, #1
 800118e:	a904      	add	r1, sp, #16
 8001190:	e9cd 2304 	strd	r2, r3, [sp, #16]
 8001194:	e9cd 6706 	strd	r6, r7, [sp, #24]
 8001198:	f001 fc90 	bl	8002abc <HAL_GPIO_Init>
 800119c:	a904      	add	r1, sp, #16
 800119e:	f248 0210 	movw	r2, #32784	; 0x8010
 80011a2:	2301      	movs	r3, #1
 80011a4:	f04f 4090 	mov.w	r0, #1207959552	; 0x48000000
 80011a8:	e9cd 6706 	strd	r6, r7, [sp, #24]
 80011ac:	e9cd 2304 	strd	r2, r3, [sp, #16]
 80011b0:	f001 fc84 	bl	8002abc <HAL_GPIO_Init>
 80011b4:	2244      	movs	r2, #68	; 0x44
 80011b6:	a904      	add	r1, sp, #16
 80011b8:	4628      	mov	r0, r5
 80011ba:	2301      	movs	r3, #1
 80011bc:	e9cd 6706 	strd	r6, r7, [sp, #24]
 80011c0:	e9cd 2304 	strd	r2, r3, [sp, #16]
 80011c4:	f44f 7640 	mov.w	r6, #768	; 0x300
 80011c8:	f001 fc78 	bl	8002abc <HAL_GPIO_Init>
 80011cc:	2700      	movs	r7, #0
 80011ce:	2301      	movs	r3, #1
 80011d0:	a904      	add	r1, sp, #16
 80011d2:	4628      	mov	r0, r5
 80011d4:	e9cd 6704 	strd	r6, r7, [sp, #16]
 80011d8:	9306      	str	r3, [sp, #24]
 80011da:	f001 fc6f 	bl	8002abc <HAL_GPIO_Init>
 80011de:	b00b      	add	sp, #44	; 0x2c
 80011e0:	bdf0      	pop	{r4, r5, r6, r7, pc}
 80011e2:	bf00      	nop
 80011e4:	40021000 	.word	0x40021000
 80011e8:	48000800 	.word	0x48000800
 80011ec:	48000400 	.word	0x48000400

080011f0 <__io_putchar>:
 80011f0:	b500      	push	{lr}
 80011f2:	2301      	movs	r3, #1
 80011f4:	b083      	sub	sp, #12
 80011f6:	4684      	mov	ip, r0
 80011f8:	461a      	mov	r2, r3
 80011fa:	f10d 0107 	add.w	r1, sp, #7
 80011fe:	4804      	ldr	r0, [pc, #16]	; (8001210 <__io_putchar+0x20>)
 8001200:	f88d c007 	strb.w	ip, [sp, #7]
 8001204:	f003 fb0a 	bl	800481c <HAL_UART_Transmit>
 8001208:	b003      	add	sp, #12
 800120a:	f85d fb04 	ldr.w	pc, [sp], #4
 800120e:	bf00      	nop
 8001210:	2000052c 	.word	0x2000052c

08001214 <SystemClock_Config>:
 8001214:	b510      	push	{r4, lr}
 8001216:	b0a0      	sub	sp, #128	; 0x80
 8001218:	2100      	movs	r1, #0
 800121a:	223c      	movs	r2, #60	; 0x3c
 800121c:	a811      	add	r0, sp, #68	; 0x44
 800121e:	e9cd 110b 	strd	r1, r1, [sp, #44]	; 0x2c
 8001222:	e9cd 1101 	strd	r1, r1, [sp, #4]
 8001226:	e9cd 1103 	strd	r1, r1, [sp, #12]
 800122a:	9108      	str	r1, [sp, #32]
 800122c:	9100      	str	r1, [sp, #0]
 800122e:	9109      	str	r1, [sp, #36]	; 0x24
 8001230:	f003 fc44 	bl	8004abc <memset>
 8001234:	2201      	movs	r2, #1
 8001236:	f44f 3380 	mov.w	r3, #65536	; 0x10000
 800123a:	e9cd 2306 	strd	r2, r3, [sp, #24]
 800123e:	2402      	movs	r4, #2
 8001240:	2101      	movs	r1, #1
 8001242:	f44f 3280 	mov.w	r2, #65536	; 0x10000
 8001246:	f44f 13e0 	mov.w	r3, #1835008	; 0x1c0000
 800124a:	a806      	add	r0, sp, #24
 800124c:	e9cd 420d 	strd	r4, r2, [sp, #52]	; 0x34
 8001250:	910a      	str	r1, [sp, #40]	; 0x28
 8001252:	930f      	str	r3, [sp, #60]	; 0x3c
 8001254:	f001 fd22 	bl	8002c9c <HAL_RCC_OscConfig>
 8001258:	b108      	cbz	r0, 800125e <SystemClock_Config+0x4a>
 800125a:	b672      	cpsid	i
 800125c:	e7fe      	b.n	800125c <SystemClock_Config+0x48>
 800125e:	220f      	movs	r2, #15
 8001260:	2302      	movs	r3, #2
 8001262:	e9cd 2300 	strd	r2, r3, [sp]
 8001266:	9004      	str	r0, [sp, #16]
 8001268:	f44f 6380 	mov.w	r3, #1024	; 0x400
 800126c:	2200      	movs	r2, #0
 800126e:	4621      	mov	r1, r4
 8001270:	4668      	mov	r0, sp
 8001272:	e9cd 2302 	strd	r2, r3, [sp, #8]
 8001276:	f001 fff9 	bl	800326c <HAL_RCC_ClockConfig>
 800127a:	4603      	mov	r3, r0
 800127c:	b108      	cbz	r0, 8001282 <SystemClock_Config+0x6e>
 800127e:	b672      	cpsid	i
 8001280:	e7fe      	b.n	8001280 <SystemClock_Config+0x6c>
 8001282:	f240 1481 	movw	r4, #385	; 0x181
 8001286:	f44f 7180 	mov.w	r1, #256	; 0x100
 800128a:	f44f 5200 	mov.w	r2, #8192	; 0x2000
 800128e:	a811      	add	r0, sp, #68	; 0x44
 8001290:	e9cd 121a 	strd	r1, r2, [sp, #104]	; 0x68
 8001294:	9411      	str	r4, [sp, #68]	; 0x44
 8001296:	9313      	str	r3, [sp, #76]	; 0x4c
 8001298:	f002 f942 	bl	8003520 <HAL_RCCEx_PeriphCLKConfig>
 800129c:	b108      	cbz	r0, 80012a2 <SystemClock_Config+0x8e>
 800129e:	b672      	cpsid	i
 80012a0:	e7fe      	b.n	80012a0 <SystemClock_Config+0x8c>
 80012a2:	b020      	add	sp, #128	; 0x80
 80012a4:	bd10      	pop	{r4, pc}
 80012a6:	bf00      	nop

080012a8 <main>:
 80012a8:	b5f0      	push	{r4, r5, r6, r7, lr}
 80012aa:	4e75      	ldr	r6, [pc, #468]	; (8001480 <main+0x1d8>)
 80012ac:	4f75      	ldr	r7, [pc, #468]	; (8001484 <main+0x1dc>)
 80012ae:	b091      	sub	sp, #68	; 0x44
 80012b0:	f000 fd16 	bl	8001ce0 <HAL_Init>
 80012b4:	f7ff ffae 	bl	8001214 <SystemClock_Config>
 80012b8:	f7ff ff22 	bl	8001100 <MX_GPIO_Init>
 80012bc:	f7ff feee 	bl	800109c <MX_DMA_Init>
 80012c0:	f7ff fc72 	bl	8000ba8 <MX_ADC1_Init>
 80012c4:	f7ff fce4 	bl	8000c90 <MX_ADC3_Init>
 80012c8:	f7ff fd52 	bl	8000d70 <MX_ADC4_Init>
 80012cc:	f7ff fe8c 	bl	8000fe8 <MX_CAN_Init>
 80012d0:	f000 f8f6 	bl	80014c0 <MX_SPI1_Init>
 80012d4:	f000 f9fc 	bl	80016d0 <MX_TIM2_Init>
 80012d8:	f000 fc06 	bl	8001ae8 <MX_TIM3_Init>
 80012dc:	f000 fc58 	bl	8001b90 <MX_USART1_UART_Init>
 80012e0:	f000 faa6 	bl	8001830 <MX_TIM4_Init>
 80012e4:	4630      	mov	r0, r6
 80012e6:	f002 fdcd 	bl	8003e84 <HAL_TIM_PWM_Init>
 80012ea:	6833      	ldr	r3, [r6, #0]
 80012ec:	2500      	movs	r5, #0
 80012ee:	f44f 64fa 	mov.w	r4, #2000	; 0x7d0
 80012f2:	635d      	str	r5, [r3, #52]	; 0x34
 80012f4:	4629      	mov	r1, r5
 80012f6:	639d      	str	r5, [r3, #56]	; 0x38
 80012f8:	4630      	mov	r0, r6
 80012fa:	62dc      	str	r4, [r3, #44]	; 0x2c
 80012fc:	62dc      	str	r4, [r3, #44]	; 0x2c
 80012fe:	60f4      	str	r4, [r6, #12]
 8001300:	f002 fe48 	bl	8003f94 <HAL_TIM_PWM_Start>
 8001304:	2104      	movs	r1, #4
 8001306:	4630      	mov	r0, r6
 8001308:	f002 fe44 	bl	8003f94 <HAL_TIM_PWM_Start>
 800130c:	4638      	mov	r0, r7
 800130e:	f002 fdb9 	bl	8003e84 <HAL_TIM_PWM_Init>
 8001312:	f44f 767a 	mov.w	r6, #1000	; 0x3e8
 8001316:	683b      	ldr	r3, [r7, #0]
 8001318:	60fe      	str	r6, [r7, #12]
 800131a:	4638      	mov	r0, r7
 800131c:	4f5a      	ldr	r7, [pc, #360]	; (8001488 <main+0x1e0>)
 800131e:	641d      	str	r5, [r3, #64]	; 0x40
 8001320:	210c      	movs	r1, #12
 8001322:	62de      	str	r6, [r3, #44]	; 0x2c
 8001324:	f002 fe36 	bl	8003f94 <HAL_TIM_PWM_Start>
 8001328:	4638      	mov	r0, r7
 800132a:	f002 fdab 	bl	8003e84 <HAL_TIM_PWM_Init>
 800132e:	683b      	ldr	r3, [r7, #0]
 8001330:	60fc      	str	r4, [r7, #12]
 8001332:	639e      	str	r6, [r3, #56]	; 0x38
 8001334:	2104      	movs	r1, #4
 8001336:	62dc      	str	r4, [r3, #44]	; 0x2c
 8001338:	4638      	mov	r0, r7
 800133a:	f002 fe2b 	bl	8003f94 <HAL_TIM_PWM_Start>
 800133e:	2064      	movs	r0, #100	; 0x64
 8001340:	f000 fcf2 	bl	8001d28 <HAL_Delay>
 8001344:	4b51      	ldr	r3, [pc, #324]	; (800148c <main+0x1e4>)
 8001346:	4f52      	ldr	r7, [pc, #328]	; (8001490 <main+0x1e8>)
 8001348:	681b      	ldr	r3, [r3, #0]
 800134a:	4c52      	ldr	r4, [pc, #328]	; (8001494 <main+0x1ec>)
 800134c:	6898      	ldr	r0, [r3, #8]
 800134e:	4629      	mov	r1, r5
 8001350:	f004 f83e 	bl	80053d0 <setbuf>
 8001354:	4850      	ldr	r0, [pc, #320]	; (8001498 <main+0x1f0>)
 8001356:	f003 fb1f 	bl	8004998 <HAL_UART_Init>
 800135a:	cf0f      	ldmia	r7!, {r0, r1, r2, r3}
 800135c:	f10d 0c28 	add.w	ip, sp, #40	; 0x28
 8001360:	e8ac 000f 	stmia.w	ip!, {r0, r1, r2, r3}
 8001364:	e897 0003 	ldmia.w	r7, {r0, r1}
 8001368:	2364      	movs	r3, #100	; 0x64
 800136a:	e88c 0003 	stmia.w	ip, {r0, r1}
 800136e:	2218      	movs	r2, #24
 8001370:	a90a      	add	r1, sp, #40	; 0x28
 8001372:	4849      	ldr	r0, [pc, #292]	; (8001498 <main+0x1f0>)
 8001374:	f003 fa52 	bl	800481c <HAL_UART_Transmit>
 8001378:	4b48      	ldr	r3, [pc, #288]	; (800149c <main+0x1f4>)
 800137a:	4849      	ldr	r0, [pc, #292]	; (80014a0 <main+0x1f8>)
 800137c:	210a      	movs	r1, #10
 800137e:	2200      	movs	r2, #0
 8001380:	f004 f80e 	bl	80053a0 <iprintf>
 8001384:	4847      	ldr	r0, [pc, #284]	; (80014a4 <main+0x1fc>)
 8001386:	f000 fe99 	bl	80020bc <HAL_ADC_Start>
 800138a:	4847      	ldr	r0, [pc, #284]	; (80014a8 <main+0x200>)
 800138c:	f000 fe96 	bl	80020bc <HAL_ADC_Start>
 8001390:	4846      	ldr	r0, [pc, #280]	; (80014ac <main+0x204>)
 8001392:	f000 fe93 	bl	80020bc <HAL_ADC_Start>
 8001396:	4846      	ldr	r0, [pc, #280]	; (80014b0 <main+0x208>)
 8001398:	2104      	movs	r1, #4
 800139a:	2201      	movs	r2, #1
 800139c:	f001 fc78 	bl	8002c90 <HAL_GPIO_WritePin>
 80013a0:	462a      	mov	r2, r5
 80013a2:	2110      	movs	r1, #16
 80013a4:	f04f 4090 	mov.w	r0, #1207959552	; 0x48000000
 80013a8:	f001 fc72 	bl	8002c90 <HAL_GPIO_WritePin>
 80013ac:	2301      	movs	r3, #1
 80013ae:	aa06      	add	r2, sp, #24
 80013b0:	a902      	add	r1, sp, #8
 80013b2:	9600      	str	r6, [sp, #0]
 80013b4:	4620      	mov	r0, r4
 80013b6:	e9cd 5502 	strd	r5, r5, [sp, #8]
 80013ba:	e9cd 5506 	strd	r5, r5, [sp, #24]
 80013be:	e9cd 5504 	strd	r5, r5, [sp, #16]
 80013c2:	e9cd 5508 	strd	r5, r5, [sp, #32]
 80013c6:	f002 fb55 	bl	8003a74 <HAL_SPI_TransmitReceive>
 80013ca:	2201      	movs	r2, #1
 80013cc:	f44f 4100 	mov.w	r1, #32768	; 0x8000
 80013d0:	f04f 4090 	mov.w	r0, #1207959552	; 0x48000000
 80013d4:	f001 fc5c 	bl	8002c90 <HAL_GPIO_WritePin>
 80013d8:	2001      	movs	r0, #1
 80013da:	f000 fca5 	bl	8001d28 <HAL_Delay>
 80013de:	2140      	movs	r1, #64	; 0x40
 80013e0:	2201      	movs	r2, #1
 80013e2:	4833      	ldr	r0, [pc, #204]	; (80014b0 <main+0x208>)
 80013e4:	f001 fc54 	bl	8002c90 <HAL_GPIO_WritePin>
 80013e8:	2001      	movs	r0, #1
 80013ea:	f000 fc9d 	bl	8001d28 <HAL_Delay>
 80013ee:	462a      	mov	r2, r5
 80013f0:	2140      	movs	r1, #64	; 0x40
 80013f2:	482f      	ldr	r0, [pc, #188]	; (80014b0 <main+0x208>)
 80013f4:	f001 fc4c 	bl	8002c90 <HAL_GPIO_WritePin>
 80013f8:	2001      	movs	r0, #1
 80013fa:	f000 fc95 	bl	8001d28 <HAL_Delay>
 80013fe:	462a      	mov	r2, r5
 8001400:	f44f 4100 	mov.w	r1, #32768	; 0x8000
 8001404:	f04f 4090 	mov.w	r0, #1207959552	; 0x48000000
 8001408:	f001 fc42 	bl	8002c90 <HAL_GPIO_WritePin>
 800140c:	2302      	movs	r3, #2
 800140e:	aa06      	add	r2, sp, #24
 8001410:	a902      	add	r1, sp, #8
 8001412:	9600      	str	r6, [sp, #0]
 8001414:	4620      	mov	r0, r4
 8001416:	f002 fb2d 	bl	8003a74 <HAL_SPI_TransmitReceive>
 800141a:	2201      	movs	r2, #1
 800141c:	f44f 4100 	mov.w	r1, #32768	; 0x8000
 8001420:	f04f 4090 	mov.w	r0, #1207959552	; 0x48000000
 8001424:	f001 fc34 	bl	8002c90 <HAL_GPIO_WritePin>
 8001428:	f89d 1019 	ldrb.w	r1, [sp, #25]
 800142c:	4821      	ldr	r0, [pc, #132]	; (80014b4 <main+0x20c>)
 800142e:	f003 ffb7 	bl	80053a0 <iprintf>
 8001432:	2350      	movs	r3, #80	; 0x50
 8001434:	f88d 3008 	strb.w	r3, [sp, #8]
 8001438:	2200      	movs	r2, #0
 800143a:	f44f 4100 	mov.w	r1, #32768	; 0x8000
 800143e:	f04f 4090 	mov.w	r0, #1207959552	; 0x48000000
 8001442:	f001 fc25 	bl	8002c90 <HAL_GPIO_WritePin>
 8001446:	f44f 707a 	mov.w	r0, #1000	; 0x3e8
 800144a:	2304      	movs	r3, #4
 800144c:	aa06      	add	r2, sp, #24
 800144e:	a902      	add	r1, sp, #8
 8001450:	9000      	str	r0, [sp, #0]
 8001452:	4620      	mov	r0, r4
 8001454:	f002 fb0e 	bl	8003a74 <HAL_SPI_TransmitReceive>
 8001458:	2201      	movs	r2, #1
 800145a:	f44f 4100 	mov.w	r1, #32768	; 0x8000
 800145e:	f04f 4090 	mov.w	r0, #1207959552	; 0x48000000
 8001462:	f001 fc15 	bl	8002c90 <HAL_GPIO_WritePin>
 8001466:	f89d 301b 	ldrb.w	r3, [sp, #27]
 800146a:	f99d 201a 	ldrsb.w	r2, [sp, #26]
 800146e:	f99d 1019 	ldrsb.w	r1, [sp, #25]
 8001472:	4811      	ldr	r0, [pc, #68]	; (80014b8 <main+0x210>)
 8001474:	f003 ff94 	bl	80053a0 <iprintf>
 8001478:	2064      	movs	r0, #100	; 0x64
 800147a:	f000 fc55 	bl	8001d28 <HAL_Delay>
 800147e:	e7db      	b.n	8001438 <main+0x190>
 8001480:	20000494 	.word	0x20000494
 8001484:	20000448 	.word	0x20000448
 8001488:	200004e0 	.word	0x200004e0
 800148c:	2000000c 	.word	0x2000000c
 8001490:	08007714 	.word	0x08007714
 8001494:	200003e0 	.word	0x200003e0
 8001498:	2000052c 	.word	0x2000052c
 800149c:	3ff00000 	.word	0x3ff00000
 80014a0:	080076e0 	.word	0x080076e0
 80014a4:	200001fc 	.word	0x200001fc
 80014a8:	2000024c 	.word	0x2000024c
 80014ac:	2000029c 	.word	0x2000029c
 80014b0:	48000400 	.word	0x48000400
 80014b4:	080076f4 	.word	0x080076f4
 80014b8:	08007700 	.word	0x08007700

080014bc <Error_Handler>:
 80014bc:	b672      	cpsid	i
 80014be:	e7fe      	b.n	80014be <Error_Handler+0x2>

080014c0 <MX_SPI1_Init>:
 80014c0:	b510      	push	{r4, lr}
 80014c2:	4811      	ldr	r0, [pc, #68]	; (8001508 <MX_SPI1_Init+0x48>)
 80014c4:	4c11      	ldr	r4, [pc, #68]	; (800150c <MX_SPI1_Init+0x4c>)
 80014c6:	f44f 7282 	mov.w	r2, #260	; 0x104
 80014ca:	e9c0 4200 	strd	r4, r2, [r0]
 80014ce:	2202      	movs	r2, #2
 80014d0:	2300      	movs	r3, #0
 80014d2:	f44f 61e0 	mov.w	r1, #1792	; 0x700
 80014d6:	2401      	movs	r4, #1
 80014d8:	6102      	str	r2, [r0, #16]
 80014da:	f44f 7200 	mov.w	r2, #512	; 0x200
 80014de:	e9c0 3102 	strd	r3, r1, [r0, #8]
 80014e2:	e9c0 4205 	strd	r4, r2, [r0, #20]
 80014e6:	2128      	movs	r1, #40	; 0x28
 80014e8:	2207      	movs	r2, #7
 80014ea:	e9c0 1307 	strd	r1, r3, [r0, #28]
 80014ee:	e9c0 3309 	strd	r3, r3, [r0, #36]	; 0x24
 80014f2:	e9c0 230b 	strd	r2, r3, [r0, #44]	; 0x2c
 80014f6:	6343      	str	r3, [r0, #52]	; 0x34
 80014f8:	f002 fa3e 	bl	8003978 <HAL_SPI_Init>
 80014fc:	b900      	cbnz	r0, 8001500 <MX_SPI1_Init+0x40>
 80014fe:	bd10      	pop	{r4, pc}
 8001500:	e8bd 4010 	ldmia.w	sp!, {r4, lr}
 8001504:	f7ff bfda 	b.w	80014bc <Error_Handler>
 8001508:	200003e0 	.word	0x200003e0
 800150c:	40013000 	.word	0x40013000

08001510 <HAL_SPI_MspInit>:
 8001510:	b510      	push	{r4, lr}
 8001512:	4a1b      	ldr	r2, [pc, #108]	; (8001580 <HAL_SPI_MspInit+0x70>)
 8001514:	6801      	ldr	r1, [r0, #0]
 8001516:	b088      	sub	sp, #32
 8001518:	2300      	movs	r3, #0
 800151a:	4291      	cmp	r1, r2
 800151c:	e9cd 3302 	strd	r3, r3, [sp, #8]
 8001520:	e9cd 3304 	strd	r3, r3, [sp, #16]
 8001524:	9306      	str	r3, [sp, #24]
 8001526:	d001      	beq.n	800152c <HAL_SPI_MspInit+0x1c>
 8001528:	b008      	add	sp, #32
 800152a:	bd10      	pop	{r4, pc}
 800152c:	f103 4380 	add.w	r3, r3, #1073741824	; 0x40000000
 8001530:	f503 3304 	add.w	r3, r3, #135168	; 0x21000
 8001534:	ed9f 7b10 	vldr	d7, [pc, #64]	; 8001578 <HAL_SPI_MspInit+0x68>
 8001538:	699a      	ldr	r2, [r3, #24]
 800153a:	4812      	ldr	r0, [pc, #72]	; (8001584 <HAL_SPI_MspInit+0x74>)
 800153c:	f442 5280 	orr.w	r2, r2, #4096	; 0x1000
 8001540:	619a      	str	r2, [r3, #24]
 8001542:	699a      	ldr	r2, [r3, #24]
 8001544:	f402 5280 	and.w	r2, r2, #4096	; 0x1000
 8001548:	9200      	str	r2, [sp, #0]
 800154a:	9a00      	ldr	r2, [sp, #0]
 800154c:	695a      	ldr	r2, [r3, #20]
 800154e:	f442 2280 	orr.w	r2, r2, #262144	; 0x40000
 8001552:	615a      	str	r2, [r3, #20]
 8001554:	695b      	ldr	r3, [r3, #20]
 8001556:	f403 2380 	and.w	r3, r3, #262144	; 0x40000
 800155a:	9301      	str	r3, [sp, #4]
 800155c:	2203      	movs	r2, #3
 800155e:	2305      	movs	r3, #5
 8001560:	a902      	add	r1, sp, #8
 8001562:	ed8d 7b02 	vstr	d7, [sp, #8]
 8001566:	e9cd 2305 	strd	r2, r3, [sp, #20]
 800156a:	9c01      	ldr	r4, [sp, #4]
 800156c:	f001 faa6 	bl	8002abc <HAL_GPIO_Init>
 8001570:	b008      	add	sp, #32
 8001572:	bd10      	pop	{r4, pc}
 8001574:	f3af 8000 	nop.w
 8001578:	00000038 	.word	0x00000038
 800157c:	00000002 	.word	0x00000002
 8001580:	40013000 	.word	0x40013000
 8001584:	48000400 	.word	0x48000400

08001588 <HAL_MspInit>:
 8001588:	4b0a      	ldr	r3, [pc, #40]	; (80015b4 <HAL_MspInit+0x2c>)
 800158a:	699a      	ldr	r2, [r3, #24]
 800158c:	f042 0201 	orr.w	r2, r2, #1
 8001590:	619a      	str	r2, [r3, #24]
 8001592:	699a      	ldr	r2, [r3, #24]
 8001594:	b082      	sub	sp, #8
 8001596:	f002 0201 	and.w	r2, r2, #1
 800159a:	9200      	str	r2, [sp, #0]
 800159c:	9a00      	ldr	r2, [sp, #0]
 800159e:	69da      	ldr	r2, [r3, #28]
 80015a0:	f042 5280 	orr.w	r2, r2, #268435456	; 0x10000000
 80015a4:	61da      	str	r2, [r3, #28]
 80015a6:	69db      	ldr	r3, [r3, #28]
 80015a8:	f003 5380 	and.w	r3, r3, #268435456	; 0x10000000
 80015ac:	9301      	str	r3, [sp, #4]
 80015ae:	9b01      	ldr	r3, [sp, #4]
 80015b0:	b002      	add	sp, #8
 80015b2:	4770      	bx	lr
 80015b4:	40021000 	.word	0x40021000

080015b8 <NMI_Handler>:
 80015b8:	e7fe      	b.n	80015b8 <NMI_Handler>
 80015ba:	bf00      	nop

080015bc <HardFault_Handler>:
 80015bc:	e7fe      	b.n	80015bc <HardFault_Handler>
 80015be:	bf00      	nop

080015c0 <MemManage_Handler>:
 80015c0:	e7fe      	b.n	80015c0 <MemManage_Handler>
 80015c2:	bf00      	nop

080015c4 <BusFault_Handler>:
 80015c4:	e7fe      	b.n	80015c4 <BusFault_Handler>
 80015c6:	bf00      	nop

080015c8 <UsageFault_Handler>:
 80015c8:	e7fe      	b.n	80015c8 <UsageFault_Handler>
 80015ca:	bf00      	nop

080015cc <SVC_Handler>:
 80015cc:	4770      	bx	lr
 80015ce:	bf00      	nop

080015d0 <DebugMon_Handler>:
 80015d0:	4770      	bx	lr
 80015d2:	bf00      	nop

080015d4 <PendSV_Handler>:
 80015d4:	4770      	bx	lr
 80015d6:	bf00      	nop

080015d8 <SysTick_Handler>:
 80015d8:	f000 bb94 	b.w	8001d04 <HAL_IncTick>

080015dc <DMA1_Channel1_IRQHandler>:
 80015dc:	4801      	ldr	r0, [pc, #4]	; (80015e4 <DMA1_Channel1_IRQHandler+0x8>)
 80015de:	f001 ba23 	b.w	8002a28 <HAL_DMA_IRQHandler>
 80015e2:	bf00      	nop
 80015e4:	200002ec 	.word	0x200002ec

080015e8 <DMA2_Channel2_IRQHandler>:
 80015e8:	4801      	ldr	r0, [pc, #4]	; (80015f0 <DMA2_Channel2_IRQHandler+0x8>)
 80015ea:	f001 ba1d 	b.w	8002a28 <HAL_DMA_IRQHandler>
 80015ee:	bf00      	nop
 80015f0:	20000374 	.word	0x20000374

080015f4 <DMA2_Channel5_IRQHandler>:
 80015f4:	4801      	ldr	r0, [pc, #4]	; (80015fc <DMA2_Channel5_IRQHandler+0x8>)
 80015f6:	f001 ba17 	b.w	8002a28 <HAL_DMA_IRQHandler>
 80015fa:	bf00      	nop
 80015fc:	20000330 	.word	0x20000330

08001600 <_getpid>:
 8001600:	2001      	movs	r0, #1
 8001602:	4770      	bx	lr

08001604 <_kill>:
 8001604:	b508      	push	{r3, lr}
 8001606:	f003 fa2f 	bl	8004a68 <__errno>
 800160a:	2316      	movs	r3, #22
 800160c:	6003      	str	r3, [r0, #0]
 800160e:	f04f 30ff 	mov.w	r0, #4294967295
 8001612:	bd08      	pop	{r3, pc}

08001614 <_exit>:
 8001614:	b508      	push	{r3, lr}
 8001616:	f003 fa27 	bl	8004a68 <__errno>
 800161a:	2316      	movs	r3, #22
 800161c:	6003      	str	r3, [r0, #0]
 800161e:	e7fe      	b.n	800161e <_exit+0xa>

08001620 <_read>:
 8001620:	b570      	push	{r4, r5, r6, lr}
 8001622:	1e16      	subs	r6, r2, #0
 8001624:	dd07      	ble.n	8001636 <_read+0x16>
 8001626:	460c      	mov	r4, r1
 8001628:	198d      	adds	r5, r1, r6
 800162a:	f3af 8000 	nop.w
 800162e:	f804 0b01 	strb.w	r0, [r4], #1
 8001632:	42a5      	cmp	r5, r4
 8001634:	d1f9      	bne.n	800162a <_read+0xa>
 8001636:	4630      	mov	r0, r6
 8001638:	bd70      	pop	{r4, r5, r6, pc}
 800163a:	bf00      	nop

0800163c <_write>:
 800163c:	b570      	push	{r4, r5, r6, lr}
 800163e:	1e16      	subs	r6, r2, #0
 8001640:	dd07      	ble.n	8001652 <_write+0x16>
 8001642:	460c      	mov	r4, r1
 8001644:	198d      	adds	r5, r1, r6
 8001646:	f814 0b01 	ldrb.w	r0, [r4], #1
 800164a:	f7ff fdd1 	bl	80011f0 <__io_putchar>
 800164e:	42ac      	cmp	r4, r5
 8001650:	d1f9      	bne.n	8001646 <_write+0xa>
 8001652:	4630      	mov	r0, r6
 8001654:	bd70      	pop	{r4, r5, r6, pc}
 8001656:	bf00      	nop

08001658 <_close>:
 8001658:	f04f 30ff 	mov.w	r0, #4294967295
 800165c:	4770      	bx	lr
 800165e:	bf00      	nop

08001660 <_fstat>:
 8001660:	f44f 5300 	mov.w	r3, #8192	; 0x2000
 8001664:	604b      	str	r3, [r1, #4]
 8001666:	2000      	movs	r0, #0
 8001668:	4770      	bx	lr
 800166a:	bf00      	nop

0800166c <_isatty>:
 800166c:	2001      	movs	r0, #1
 800166e:	4770      	bx	lr

08001670 <_lseek>:
 8001670:	2000      	movs	r0, #0
 8001672:	4770      	bx	lr

08001674 <_sbrk>:
 8001674:	b510      	push	{r4, lr}
 8001676:	4c0c      	ldr	r4, [pc, #48]	; (80016a8 <_sbrk+0x34>)
 8001678:	4b0c      	ldr	r3, [pc, #48]	; (80016ac <_sbrk+0x38>)
 800167a:	490d      	ldr	r1, [pc, #52]	; (80016b0 <_sbrk+0x3c>)
 800167c:	6822      	ldr	r2, [r4, #0]
 800167e:	1a59      	subs	r1, r3, r1
 8001680:	b12a      	cbz	r2, 800168e <_sbrk+0x1a>
 8001682:	4410      	add	r0, r2
 8001684:	4288      	cmp	r0, r1
 8001686:	d807      	bhi.n	8001698 <_sbrk+0x24>
 8001688:	6020      	str	r0, [r4, #0]
 800168a:	4610      	mov	r0, r2
 800168c:	bd10      	pop	{r4, pc}
 800168e:	4a09      	ldr	r2, [pc, #36]	; (80016b4 <_sbrk+0x40>)
 8001690:	6022      	str	r2, [r4, #0]
 8001692:	4410      	add	r0, r2
 8001694:	4288      	cmp	r0, r1
 8001696:	d9f7      	bls.n	8001688 <_sbrk+0x14>
 8001698:	f003 f9e6 	bl	8004a68 <__errno>
 800169c:	230c      	movs	r3, #12
 800169e:	f04f 32ff 	mov.w	r2, #4294967295
 80016a2:	6003      	str	r3, [r0, #0]
 80016a4:	4610      	mov	r0, r2
 80016a6:	bd10      	pop	{r4, pc}
 80016a8:	20000444 	.word	0x20000444
 80016ac:	20008000 	.word	0x20008000
 80016b0:	00000400 	.word	0x00000400
 80016b4:	200005c8 	.word	0x200005c8

080016b8 <SystemInit>:
 80016b8:	4a03      	ldr	r2, [pc, #12]	; (80016c8 <SystemInit+0x10>)
 80016ba:	f8d2 3088 	ldr.w	r3, [r2, #136]	; 0x88
 80016be:	f443 0370 	orr.w	r3, r3, #15728640	; 0xf00000
 80016c2:	f8c2 3088 	str.w	r3, [r2, #136]	; 0x88
 80016c6:	4770      	bx	lr
 80016c8:	e000ed00 	.word	0xe000ed00
 80016cc:	00000000 	.word	0x00000000

080016d0 <MX_TIM2_Init>:
 80016d0:	b510      	push	{r4, lr}
 80016d2:	4c53      	ldr	r4, [pc, #332]	; (8001820 <MX_TIM2_Init+0x150>)
 80016d4:	b094      	sub	sp, #80	; 0x50
 80016d6:	f04f 4280 	mov.w	r2, #1073741824	; 0x40000000
 80016da:	2300      	movs	r3, #0
 80016dc:	6022      	str	r2, [r4, #0]
 80016de:	4620      	mov	r0, r4
 80016e0:	f44f 62fa 	mov.w	r2, #2000	; 0x7d0
 80016e4:	e9cd 3303 	strd	r3, r3, [sp, #12]
 80016e8:	e9cd 330c 	strd	r3, r3, [sp, #48]	; 0x30
 80016ec:	e9cd 330e 	strd	r3, r3, [sp, #56]	; 0x38
 80016f0:	e9cd 3310 	strd	r3, r3, [sp, #64]	; 0x40
 80016f4:	e9c4 3301 	strd	r3, r3, [r4, #4]
 80016f8:	9305      	str	r3, [sp, #20]
 80016fa:	9312      	str	r3, [sp, #72]	; 0x48
 80016fc:	60e2      	str	r2, [r4, #12]
 80016fe:	6123      	str	r3, [r4, #16]
 8001700:	61a3      	str	r3, [r4, #24]
 8001702:	f002 fbbf 	bl	8003e84 <HAL_TIM_PWM_Init>
 8001706:	bb30      	cbnz	r0, 8001756 <MX_TIM2_Init+0x86>
 8001708:	2300      	movs	r3, #0
 800170a:	4845      	ldr	r0, [pc, #276]	; (8001820 <MX_TIM2_Init+0x150>)
 800170c:	9303      	str	r3, [sp, #12]
 800170e:	a903      	add	r1, sp, #12
 8001710:	9305      	str	r3, [sp, #20]
 8001712:	f002 fe45 	bl	80043a0 <HAL_TIMEx_MasterConfigSynchronization>
 8001716:	bb20      	cbnz	r0, 8001762 <MX_TIM2_Init+0x92>
 8001718:	ed9f 7b39 	vldr	d7, [pc, #228]	; 8001800 <MX_TIM2_Init+0x130>
 800171c:	2300      	movs	r3, #0
 800171e:	4840      	ldr	r0, [pc, #256]	; (8001820 <MX_TIM2_Init+0x150>)
 8001720:	930e      	str	r3, [sp, #56]	; 0x38
 8001722:	220c      	movs	r2, #12
 8001724:	a90c      	add	r1, sp, #48	; 0x30
 8001726:	ed8d 7b0c 	vstr	d7, [sp, #48]	; 0x30
 800172a:	9310      	str	r3, [sp, #64]	; 0x40
 800172c:	f002 fd04 	bl	8004138 <HAL_TIM_PWM_ConfigChannel>
 8001730:	b9a0      	cbnz	r0, 800175c <MX_TIM2_Init+0x8c>
 8001732:	6822      	ldr	r2, [r4, #0]
 8001734:	2300      	movs	r3, #0
 8001736:	f1b2 4f80 	cmp.w	r2, #1073741824	; 0x40000000
 800173a:	e9cd 3306 	strd	r3, r3, [sp, #24]
 800173e:	e9cd 3308 	strd	r3, r3, [sp, #32]
 8001742:	930a      	str	r3, [sp, #40]	; 0x28
 8001744:	d010      	beq.n	8001768 <MX_TIM2_Init+0x98>
 8001746:	4b37      	ldr	r3, [pc, #220]	; (8001824 <MX_TIM2_Init+0x154>)
 8001748:	429a      	cmp	r2, r3
 800174a:	d027      	beq.n	800179c <MX_TIM2_Init+0xcc>
 800174c:	4b36      	ldr	r3, [pc, #216]	; (8001828 <MX_TIM2_Init+0x158>)
 800174e:	429a      	cmp	r2, r3
 8001750:	d03c      	beq.n	80017cc <MX_TIM2_Init+0xfc>
 8001752:	b014      	add	sp, #80	; 0x50
 8001754:	bd10      	pop	{r4, pc}
 8001756:	f7ff feb1 	bl	80014bc <Error_Handler>
 800175a:	e7d5      	b.n	8001708 <MX_TIM2_Init+0x38>
 800175c:	f7ff feae 	bl	80014bc <Error_Handler>
 8001760:	e7e7      	b.n	8001732 <MX_TIM2_Init+0x62>
 8001762:	f7ff feab 	bl	80014bc <Error_Handler>
 8001766:	e7d7      	b.n	8001718 <MX_TIM2_Init+0x48>
 8001768:	f103 4380 	add.w	r3, r3, #1073741824	; 0x40000000
 800176c:	f503 3304 	add.w	r3, r3, #135168	; 0x21000
 8001770:	ed9f 7b25 	vldr	d7, [pc, #148]	; 8001808 <MX_TIM2_Init+0x138>
 8001774:	695a      	ldr	r2, [r3, #20]
 8001776:	f442 3200 	orr.w	r2, r2, #131072	; 0x20000
 800177a:	615a      	str	r2, [r3, #20]
 800177c:	695b      	ldr	r3, [r3, #20]
 800177e:	f403 3300 	and.w	r3, r3, #131072	; 0x20000
 8001782:	9300      	str	r3, [sp, #0]
 8001784:	a906      	add	r1, sp, #24
 8001786:	2301      	movs	r3, #1
 8001788:	f04f 4090 	mov.w	r0, #1207959552	; 0x48000000
 800178c:	ed8d 7b06 	vstr	d7, [sp, #24]
 8001790:	9a00      	ldr	r2, [sp, #0]
 8001792:	930a      	str	r3, [sp, #40]	; 0x28
 8001794:	f001 f992 	bl	8002abc <HAL_GPIO_Init>
 8001798:	b014      	add	sp, #80	; 0x50
 800179a:	bd10      	pop	{r4, pc}
 800179c:	f503 3303 	add.w	r3, r3, #134144	; 0x20c00
 80017a0:	ed9f 7b1b 	vldr	d7, [pc, #108]	; 8001810 <MX_TIM2_Init+0x140>
 80017a4:	695a      	ldr	r2, [r3, #20]
 80017a6:	f442 3200 	orr.w	r2, r2, #131072	; 0x20000
 80017aa:	615a      	str	r2, [r3, #20]
 80017ac:	695b      	ldr	r3, [r3, #20]
 80017ae:	f403 3300 	and.w	r3, r3, #131072	; 0x20000
 80017b2:	9301      	str	r3, [sp, #4]
 80017b4:	a906      	add	r1, sp, #24
 80017b6:	2302      	movs	r3, #2
 80017b8:	f04f 4090 	mov.w	r0, #1207959552	; 0x48000000
 80017bc:	ed8d 7b06 	vstr	d7, [sp, #24]
 80017c0:	9a01      	ldr	r2, [sp, #4]
 80017c2:	930a      	str	r3, [sp, #40]	; 0x28
 80017c4:	f001 f97a 	bl	8002abc <HAL_GPIO_Init>
 80017c8:	b014      	add	sp, #80	; 0x50
 80017ca:	bd10      	pop	{r4, pc}
 80017cc:	f503 3302 	add.w	r3, r3, #133120	; 0x20800
 80017d0:	ed9f 7b11 	vldr	d7, [pc, #68]	; 8001818 <MX_TIM2_Init+0x148>
 80017d4:	695a      	ldr	r2, [r3, #20]
 80017d6:	4815      	ldr	r0, [pc, #84]	; (800182c <MX_TIM2_Init+0x15c>)
 80017d8:	f442 2280 	orr.w	r2, r2, #262144	; 0x40000
 80017dc:	615a      	str	r2, [r3, #20]
 80017de:	695b      	ldr	r3, [r3, #20]
 80017e0:	f403 2380 	and.w	r3, r3, #262144	; 0x40000
 80017e4:	9302      	str	r3, [sp, #8]
 80017e6:	a906      	add	r1, sp, #24
 80017e8:	2302      	movs	r3, #2
 80017ea:	ed8d 7b06 	vstr	d7, [sp, #24]
 80017ee:	9a02      	ldr	r2, [sp, #8]
 80017f0:	930a      	str	r3, [sp, #40]	; 0x28
 80017f2:	f001 f963 	bl	8002abc <HAL_GPIO_Init>
 80017f6:	b014      	add	sp, #80	; 0x50
 80017f8:	bd10      	pop	{r4, pc}
 80017fa:	bf00      	nop
 80017fc:	f3af 8000 	nop.w
 8001800:	00000060 	.word	0x00000060
 8001804:	00000000 	.word	0x00000000
 8001808:	00000008 	.word	0x00000008
 800180c:	00000002 	.word	0x00000002
 8001810:	000000c0 	.word	0x000000c0
 8001814:	00000002 	.word	0x00000002
 8001818:	00000080 	.word	0x00000080
 800181c:	00000002 	.word	0x00000002
 8001820:	20000448 	.word	0x20000448
 8001824:	40000400 	.word	0x40000400
 8001828:	40000800 	.word	0x40000800
 800182c:	48000400 	.word	0x48000400

08001830 <MX_TIM4_Init>:
 8001830:	b510      	push	{r4, lr}
 8001832:	4c51      	ldr	r4, [pc, #324]	; (8001978 <MX_TIM4_Init+0x148>)
 8001834:	4a51      	ldr	r2, [pc, #324]	; (800197c <MX_TIM4_Init+0x14c>)
 8001836:	6022      	str	r2, [r4, #0]
 8001838:	b094      	sub	sp, #80	; 0x50
 800183a:	2300      	movs	r3, #0
 800183c:	f44f 6261 	mov.w	r2, #3600	; 0xe10
 8001840:	4620      	mov	r0, r4
 8001842:	e9cd 3303 	strd	r3, r3, [sp, #12]
 8001846:	e9cd 330c 	strd	r3, r3, [sp, #48]	; 0x30
 800184a:	e9cd 330e 	strd	r3, r3, [sp, #56]	; 0x38
 800184e:	e9cd 3310 	strd	r3, r3, [sp, #64]	; 0x40
 8001852:	e9c4 3301 	strd	r3, r3, [r4, #4]
 8001856:	9305      	str	r3, [sp, #20]
 8001858:	9312      	str	r3, [sp, #72]	; 0x48
 800185a:	60e2      	str	r2, [r4, #12]
 800185c:	6123      	str	r3, [r4, #16]
 800185e:	61a3      	str	r3, [r4, #24]
 8001860:	f002 fb10 	bl	8003e84 <HAL_TIM_PWM_Init>
 8001864:	bb30      	cbnz	r0, 80018b4 <MX_TIM4_Init+0x84>
 8001866:	2300      	movs	r3, #0
 8001868:	4843      	ldr	r0, [pc, #268]	; (8001978 <MX_TIM4_Init+0x148>)
 800186a:	9303      	str	r3, [sp, #12]
 800186c:	a903      	add	r1, sp, #12
 800186e:	9305      	str	r3, [sp, #20]
 8001870:	f002 fd96 	bl	80043a0 <HAL_TIMEx_MasterConfigSynchronization>
 8001874:	bb20      	cbnz	r0, 80018c0 <MX_TIM4_Init+0x90>
 8001876:	ed9f 7b38 	vldr	d7, [pc, #224]	; 8001958 <MX_TIM4_Init+0x128>
 800187a:	2300      	movs	r3, #0
 800187c:	483e      	ldr	r0, [pc, #248]	; (8001978 <MX_TIM4_Init+0x148>)
 800187e:	930e      	str	r3, [sp, #56]	; 0x38
 8001880:	2204      	movs	r2, #4
 8001882:	a90c      	add	r1, sp, #48	; 0x30
 8001884:	ed8d 7b0c 	vstr	d7, [sp, #48]	; 0x30
 8001888:	9310      	str	r3, [sp, #64]	; 0x40
 800188a:	f002 fc55 	bl	8004138 <HAL_TIM_PWM_ConfigChannel>
 800188e:	b9a0      	cbnz	r0, 80018ba <MX_TIM4_Init+0x8a>
 8001890:	6822      	ldr	r2, [r4, #0]
 8001892:	2300      	movs	r3, #0
 8001894:	f1b2 4f80 	cmp.w	r2, #1073741824	; 0x40000000
 8001898:	e9cd 3306 	strd	r3, r3, [sp, #24]
 800189c:	e9cd 3308 	strd	r3, r3, [sp, #32]
 80018a0:	930a      	str	r3, [sp, #40]	; 0x28
 80018a2:	d010      	beq.n	80018c6 <MX_TIM4_Init+0x96>
 80018a4:	4b36      	ldr	r3, [pc, #216]	; (8001980 <MX_TIM4_Init+0x150>)
 80018a6:	429a      	cmp	r2, r3
 80018a8:	d027      	beq.n	80018fa <MX_TIM4_Init+0xca>
 80018aa:	4b34      	ldr	r3, [pc, #208]	; (800197c <MX_TIM4_Init+0x14c>)
 80018ac:	429a      	cmp	r2, r3
 80018ae:	d03c      	beq.n	800192a <MX_TIM4_Init+0xfa>
 80018b0:	b014      	add	sp, #80	; 0x50
 80018b2:	bd10      	pop	{r4, pc}
 80018b4:	f7ff fe02 	bl	80014bc <Error_Handler>
 80018b8:	e7d5      	b.n	8001866 <MX_TIM4_Init+0x36>
 80018ba:	f7ff fdff 	bl	80014bc <Error_Handler>
 80018be:	e7e7      	b.n	8001890 <MX_TIM4_Init+0x60>
 80018c0:	f7ff fdfc 	bl	80014bc <Error_Handler>
 80018c4:	e7d7      	b.n	8001876 <MX_TIM4_Init+0x46>
 80018c6:	f103 4380 	add.w	r3, r3, #1073741824	; 0x40000000
 80018ca:	f503 3304 	add.w	r3, r3, #135168	; 0x21000
 80018ce:	ed9f 7b24 	vldr	d7, [pc, #144]	; 8001960 <MX_TIM4_Init+0x130>
 80018d2:	695a      	ldr	r2, [r3, #20]
 80018d4:	f442 3200 	orr.w	r2, r2, #131072	; 0x20000
 80018d8:	615a      	str	r2, [r3, #20]
 80018da:	695b      	ldr	r3, [r3, #20]
 80018dc:	f403 3300 	and.w	r3, r3, #131072	; 0x20000
 80018e0:	9300      	str	r3, [sp, #0]
 80018e2:	a906      	add	r1, sp, #24
 80018e4:	2301      	movs	r3, #1
 80018e6:	f04f 4090 	mov.w	r0, #1207959552	; 0x48000000
 80018ea:	ed8d 7b06 	vstr	d7, [sp, #24]
 80018ee:	9a00      	ldr	r2, [sp, #0]
 80018f0:	930a      	str	r3, [sp, #40]	; 0x28
 80018f2:	f001 f8e3 	bl	8002abc <HAL_GPIO_Init>
 80018f6:	b014      	add	sp, #80	; 0x50
 80018f8:	bd10      	pop	{r4, pc}
 80018fa:	f503 3303 	add.w	r3, r3, #134144	; 0x20c00
 80018fe:	ed9f 7b1a 	vldr	d7, [pc, #104]	; 8001968 <MX_TIM4_Init+0x138>
 8001902:	695a      	ldr	r2, [r3, #20]
 8001904:	f442 3200 	orr.w	r2, r2, #131072	; 0x20000
 8001908:	615a      	str	r2, [r3, #20]
 800190a:	695b      	ldr	r3, [r3, #20]
 800190c:	f403 3300 	and.w	r3, r3, #131072	; 0x20000
 8001910:	9301      	str	r3, [sp, #4]
 8001912:	a906      	add	r1, sp, #24
 8001914:	2302      	movs	r3, #2
 8001916:	f04f 4090 	mov.w	r0, #1207959552	; 0x48000000
 800191a:	ed8d 7b06 	vstr	d7, [sp, #24]
 800191e:	9a01      	ldr	r2, [sp, #4]
 8001920:	930a      	str	r3, [sp, #40]	; 0x28
 8001922:	f001 f8cb 	bl	8002abc <HAL_GPIO_Init>
 8001926:	b014      	add	sp, #80	; 0x50
 8001928:	bd10      	pop	{r4, pc}
 800192a:	f503 3302 	add.w	r3, r3, #133120	; 0x20800
 800192e:	ed9f 7b10 	vldr	d7, [pc, #64]	; 8001970 <MX_TIM4_Init+0x140>
 8001932:	695a      	ldr	r2, [r3, #20]
 8001934:	4813      	ldr	r0, [pc, #76]	; (8001984 <MX_TIM4_Init+0x154>)
 8001936:	f442 2280 	orr.w	r2, r2, #262144	; 0x40000
 800193a:	615a      	str	r2, [r3, #20]
 800193c:	695b      	ldr	r3, [r3, #20]
 800193e:	f403 2380 	and.w	r3, r3, #262144	; 0x40000
 8001942:	9302      	str	r3, [sp, #8]
 8001944:	a906      	add	r1, sp, #24
 8001946:	2302      	movs	r3, #2
 8001948:	ed8d 7b06 	vstr	d7, [sp, #24]
 800194c:	9a02      	ldr	r2, [sp, #8]
 800194e:	930a      	str	r3, [sp, #40]	; 0x28
 8001950:	f001 f8b4 	bl	8002abc <HAL_GPIO_Init>
 8001954:	b014      	add	sp, #80	; 0x50
 8001956:	bd10      	pop	{r4, pc}
 8001958:	00000060 	.word	0x00000060
 800195c:	00000000 	.word	0x00000000
 8001960:	00000008 	.word	0x00000008
 8001964:	00000002 	.word	0x00000002
 8001968:	000000c0 	.word	0x000000c0
 800196c:	00000002 	.word	0x00000002
 8001970:	00000080 	.word	0x00000080
 8001974:	00000002 	.word	0x00000002
 8001978:	200004e0 	.word	0x200004e0
 800197c:	40000800 	.word	0x40000800
 8001980:	40000400 	.word	0x40000400
 8001984:	48000400 	.word	0x48000400

08001988 <HAL_TIM_PWM_MspInit>:
 8001988:	6803      	ldr	r3, [r0, #0]
 800198a:	f1b3 4f80 	cmp.w	r3, #1073741824	; 0x40000000
 800198e:	b084      	sub	sp, #16
 8001990:	d013      	beq.n	80019ba <HAL_TIM_PWM_MspInit+0x32>
 8001992:	4a16      	ldr	r2, [pc, #88]	; (80019ec <HAL_TIM_PWM_MspInit+0x64>)
 8001994:	4293      	cmp	r3, r2
 8001996:	d004      	beq.n	80019a2 <HAL_TIM_PWM_MspInit+0x1a>
 8001998:	4a15      	ldr	r2, [pc, #84]	; (80019f0 <HAL_TIM_PWM_MspInit+0x68>)
 800199a:	4293      	cmp	r3, r2
 800199c:	d01a      	beq.n	80019d4 <HAL_TIM_PWM_MspInit+0x4c>
 800199e:	b004      	add	sp, #16
 80019a0:	4770      	bx	lr
 80019a2:	4b14      	ldr	r3, [pc, #80]	; (80019f4 <HAL_TIM_PWM_MspInit+0x6c>)
 80019a4:	69da      	ldr	r2, [r3, #28]
 80019a6:	f042 0202 	orr.w	r2, r2, #2
 80019aa:	61da      	str	r2, [r3, #28]
 80019ac:	69db      	ldr	r3, [r3, #28]
 80019ae:	f003 0302 	and.w	r3, r3, #2
 80019b2:	9302      	str	r3, [sp, #8]
 80019b4:	9b02      	ldr	r3, [sp, #8]
 80019b6:	b004      	add	sp, #16
 80019b8:	4770      	bx	lr
 80019ba:	f503 3304 	add.w	r3, r3, #135168	; 0x21000
 80019be:	69da      	ldr	r2, [r3, #28]
 80019c0:	f042 0201 	orr.w	r2, r2, #1
 80019c4:	61da      	str	r2, [r3, #28]
 80019c6:	69db      	ldr	r3, [r3, #28]
 80019c8:	f003 0301 	and.w	r3, r3, #1
 80019cc:	9301      	str	r3, [sp, #4]
 80019ce:	9b01      	ldr	r3, [sp, #4]
 80019d0:	b004      	add	sp, #16
 80019d2:	4770      	bx	lr
 80019d4:	4b07      	ldr	r3, [pc, #28]	; (80019f4 <HAL_TIM_PWM_MspInit+0x6c>)
 80019d6:	69da      	ldr	r2, [r3, #28]
 80019d8:	f042 0204 	orr.w	r2, r2, #4
 80019dc:	61da      	str	r2, [r3, #28]
 80019de:	69db      	ldr	r3, [r3, #28]
 80019e0:	f003 0304 	and.w	r3, r3, #4
 80019e4:	9303      	str	r3, [sp, #12]
 80019e6:	9b03      	ldr	r3, [sp, #12]
 80019e8:	b004      	add	sp, #16
 80019ea:	4770      	bx	lr
 80019ec:	40000400 	.word	0x40000400
 80019f0:	40000800 	.word	0x40000800
 80019f4:	40021000 	.word	0x40021000

080019f8 <HAL_TIM_MspPostInit>:
 80019f8:	b500      	push	{lr}
 80019fa:	6802      	ldr	r2, [r0, #0]
 80019fc:	b08b      	sub	sp, #44	; 0x2c
 80019fe:	2300      	movs	r3, #0
 8001a00:	f1b2 4f80 	cmp.w	r2, #1073741824	; 0x40000000
 8001a04:	e9cd 3304 	strd	r3, r3, [sp, #16]
 8001a08:	e9cd 3306 	strd	r3, r3, [sp, #24]
 8001a0c:	9308      	str	r3, [sp, #32]
 8001a0e:	d008      	beq.n	8001a22 <HAL_TIM_MspPostInit+0x2a>
 8001a10:	4b31      	ldr	r3, [pc, #196]	; (8001ad8 <HAL_TIM_MspPostInit+0xe0>)
 8001a12:	429a      	cmp	r2, r3
 8001a14:	d020      	beq.n	8001a58 <HAL_TIM_MspPostInit+0x60>
 8001a16:	4b31      	ldr	r3, [pc, #196]	; (8001adc <HAL_TIM_MspPostInit+0xe4>)
 8001a18:	429a      	cmp	r2, r3
 8001a1a:	d036      	beq.n	8001a8a <HAL_TIM_MspPostInit+0x92>
 8001a1c:	b00b      	add	sp, #44	; 0x2c
 8001a1e:	f85d fb04 	ldr.w	pc, [sp], #4
 8001a22:	f103 4380 	add.w	r3, r3, #1073741824	; 0x40000000
 8001a26:	f503 3304 	add.w	r3, r3, #135168	; 0x21000
 8001a2a:	ed9f 7b25 	vldr	d7, [pc, #148]	; 8001ac0 <HAL_TIM_MspPostInit+0xc8>
 8001a2e:	695a      	ldr	r2, [r3, #20]
 8001a30:	f442 3200 	orr.w	r2, r2, #131072	; 0x20000
 8001a34:	615a      	str	r2, [r3, #20]
 8001a36:	695b      	ldr	r3, [r3, #20]
 8001a38:	f403 3300 	and.w	r3, r3, #131072	; 0x20000
 8001a3c:	9301      	str	r3, [sp, #4]
 8001a3e:	a904      	add	r1, sp, #16
 8001a40:	2301      	movs	r3, #1
 8001a42:	f04f 4090 	mov.w	r0, #1207959552	; 0x48000000
 8001a46:	ed8d 7b04 	vstr	d7, [sp, #16]
 8001a4a:	9a01      	ldr	r2, [sp, #4]
 8001a4c:	9308      	str	r3, [sp, #32]
 8001a4e:	f001 f835 	bl	8002abc <HAL_GPIO_Init>
 8001a52:	b00b      	add	sp, #44	; 0x2c
 8001a54:	f85d fb04 	ldr.w	pc, [sp], #4
 8001a58:	f503 3303 	add.w	r3, r3, #134144	; 0x20c00
 8001a5c:	ed9f 7b1a 	vldr	d7, [pc, #104]	; 8001ac8 <HAL_TIM_MspPostInit+0xd0>
 8001a60:	695a      	ldr	r2, [r3, #20]
 8001a62:	f442 3200 	orr.w	r2, r2, #131072	; 0x20000
 8001a66:	615a      	str	r2, [r3, #20]
 8001a68:	695b      	ldr	r3, [r3, #20]
 8001a6a:	f403 3300 	and.w	r3, r3, #131072	; 0x20000
 8001a6e:	9302      	str	r3, [sp, #8]
 8001a70:	a904      	add	r1, sp, #16
 8001a72:	2302      	movs	r3, #2
 8001a74:	f04f 4090 	mov.w	r0, #1207959552	; 0x48000000
 8001a78:	ed8d 7b04 	vstr	d7, [sp, #16]
 8001a7c:	9a02      	ldr	r2, [sp, #8]
 8001a7e:	9308      	str	r3, [sp, #32]
 8001a80:	f001 f81c 	bl	8002abc <HAL_GPIO_Init>
 8001a84:	b00b      	add	sp, #44	; 0x2c
 8001a86:	f85d fb04 	ldr.w	pc, [sp], #4
 8001a8a:	f503 3302 	add.w	r3, r3, #133120	; 0x20800
 8001a8e:	ed9f 7b10 	vldr	d7, [pc, #64]	; 8001ad0 <HAL_TIM_MspPostInit+0xd8>
 8001a92:	695a      	ldr	r2, [r3, #20]
 8001a94:	4812      	ldr	r0, [pc, #72]	; (8001ae0 <HAL_TIM_MspPostInit+0xe8>)
 8001a96:	f442 2280 	orr.w	r2, r2, #262144	; 0x40000
 8001a9a:	615a      	str	r2, [r3, #20]
 8001a9c:	695b      	ldr	r3, [r3, #20]
 8001a9e:	f403 2380 	and.w	r3, r3, #262144	; 0x40000
 8001aa2:	9303      	str	r3, [sp, #12]
 8001aa4:	a904      	add	r1, sp, #16
 8001aa6:	2302      	movs	r3, #2
 8001aa8:	ed8d 7b04 	vstr	d7, [sp, #16]
 8001aac:	9a03      	ldr	r2, [sp, #12]
 8001aae:	9308      	str	r3, [sp, #32]
 8001ab0:	f001 f804 	bl	8002abc <HAL_GPIO_Init>
 8001ab4:	b00b      	add	sp, #44	; 0x2c
 8001ab6:	f85d fb04 	ldr.w	pc, [sp], #4
 8001aba:	bf00      	nop
 8001abc:	f3af 8000 	nop.w
 8001ac0:	00000008 	.word	0x00000008
 8001ac4:	00000002 	.word	0x00000002
 8001ac8:	000000c0 	.word	0x000000c0
 8001acc:	00000002 	.word	0x00000002
 8001ad0:	00000080 	.word	0x00000080
 8001ad4:	00000002 	.word	0x00000002
 8001ad8:	40000400 	.word	0x40000400
 8001adc:	40000800 	.word	0x40000800
 8001ae0:	48000400 	.word	0x48000400
 8001ae4:	00000000 	.word	0x00000000

08001ae8 <MX_TIM3_Init>:
 8001ae8:	b500      	push	{lr}
 8001aea:	4827      	ldr	r0, [pc, #156]	; (8001b88 <MX_TIM3_Init+0xa0>)
 8001aec:	4a27      	ldr	r2, [pc, #156]	; (8001b8c <MX_TIM3_Init+0xa4>)
 8001aee:	6002      	str	r2, [r0, #0]
 8001af0:	2300      	movs	r3, #0
 8001af2:	b08d      	sub	sp, #52	; 0x34
 8001af4:	f44f 6261 	mov.w	r2, #3600	; 0xe10
 8001af8:	e9cd 3301 	strd	r3, r3, [sp, #4]
 8001afc:	e9cd 3303 	strd	r3, r3, [sp, #12]
 8001b00:	e9cd 3305 	strd	r3, r3, [sp, #20]
 8001b04:	e9cd 3307 	strd	r3, r3, [sp, #28]
 8001b08:	e9cd 3309 	strd	r3, r3, [sp, #36]	; 0x24
 8001b0c:	e9c0 3301 	strd	r3, r3, [r0, #4]
 8001b10:	e9c0 2303 	strd	r2, r3, [r0, #12]
 8001b14:	6183      	str	r3, [r0, #24]
 8001b16:	f002 f9b5 	bl	8003e84 <HAL_TIM_PWM_Init>
 8001b1a:	b9f8      	cbnz	r0, 8001b5c <MX_TIM3_Init+0x74>
 8001b1c:	2300      	movs	r3, #0
 8001b1e:	481a      	ldr	r0, [pc, #104]	; (8001b88 <MX_TIM3_Init+0xa0>)
 8001b20:	9301      	str	r3, [sp, #4]
 8001b22:	a901      	add	r1, sp, #4
 8001b24:	9303      	str	r3, [sp, #12]
 8001b26:	f002 fc3b 	bl	80043a0 <HAL_TIMEx_MasterConfigSynchronization>
 8001b2a:	bb28      	cbnz	r0, 8001b78 <MX_TIM3_Init+0x90>
 8001b2c:	ed9f 7b14 	vldr	d7, [pc, #80]	; 8001b80 <MX_TIM3_Init+0x98>
 8001b30:	2200      	movs	r2, #0
 8001b32:	4815      	ldr	r0, [pc, #84]	; (8001b88 <MX_TIM3_Init+0xa0>)
 8001b34:	9206      	str	r2, [sp, #24]
 8001b36:	a904      	add	r1, sp, #16
 8001b38:	ed8d 7b04 	vstr	d7, [sp, #16]
 8001b3c:	9208      	str	r2, [sp, #32]
 8001b3e:	f002 fafb 	bl	8004138 <HAL_TIM_PWM_ConfigChannel>
 8001b42:	b9b0      	cbnz	r0, 8001b72 <MX_TIM3_Init+0x8a>
 8001b44:	4810      	ldr	r0, [pc, #64]	; (8001b88 <MX_TIM3_Init+0xa0>)
 8001b46:	2204      	movs	r2, #4
 8001b48:	a904      	add	r1, sp, #16
 8001b4a:	f002 faf5 	bl	8004138 <HAL_TIM_PWM_ConfigChannel>
 8001b4e:	b940      	cbnz	r0, 8001b62 <MX_TIM3_Init+0x7a>
 8001b50:	480d      	ldr	r0, [pc, #52]	; (8001b88 <MX_TIM3_Init+0xa0>)
 8001b52:	f7ff ff51 	bl	80019f8 <HAL_TIM_MspPostInit>
 8001b56:	b00d      	add	sp, #52	; 0x34
 8001b58:	f85d fb04 	ldr.w	pc, [sp], #4
 8001b5c:	f7ff fcae 	bl	80014bc <Error_Handler>
 8001b60:	e7dc      	b.n	8001b1c <MX_TIM3_Init+0x34>
 8001b62:	f7ff fcab 	bl	80014bc <Error_Handler>
 8001b66:	4808      	ldr	r0, [pc, #32]	; (8001b88 <MX_TIM3_Init+0xa0>)
 8001b68:	f7ff ff46 	bl	80019f8 <HAL_TIM_MspPostInit>
 8001b6c:	b00d      	add	sp, #52	; 0x34
 8001b6e:	f85d fb04 	ldr.w	pc, [sp], #4
 8001b72:	f7ff fca3 	bl	80014bc <Error_Handler>
 8001b76:	e7e5      	b.n	8001b44 <MX_TIM3_Init+0x5c>
 8001b78:	f7ff fca0 	bl	80014bc <Error_Handler>
 8001b7c:	e7d6      	b.n	8001b2c <MX_TIM3_Init+0x44>
 8001b7e:	bf00      	nop
 8001b80:	00000060 	.word	0x00000060
 8001b84:	00000000 	.word	0x00000000
 8001b88:	20000494 	.word	0x20000494
 8001b8c:	40000400 	.word	0x40000400

08001b90 <MX_USART1_UART_Init>:
 8001b90:	b510      	push	{r4, lr}
 8001b92:	480b      	ldr	r0, [pc, #44]	; (8001bc0 <MX_USART1_UART_Init+0x30>)
 8001b94:	4c0b      	ldr	r4, [pc, #44]	; (8001bc4 <MX_USART1_UART_Init+0x34>)
 8001b96:	490c      	ldr	r1, [pc, #48]	; (8001bc8 <MX_USART1_UART_Init+0x38>)
 8001b98:	2300      	movs	r3, #0
 8001b9a:	220c      	movs	r2, #12
 8001b9c:	e9c0 4100 	strd	r4, r1, [r0]
 8001ba0:	e9c0 3302 	strd	r3, r3, [r0, #8]
 8001ba4:	e9c0 3204 	strd	r3, r2, [r0, #16]
 8001ba8:	e9c0 3306 	strd	r3, r3, [r0, #24]
 8001bac:	e9c0 3308 	strd	r3, r3, [r0, #32]
 8001bb0:	f002 fef2 	bl	8004998 <HAL_UART_Init>
 8001bb4:	b900      	cbnz	r0, 8001bb8 <MX_USART1_UART_Init+0x28>
 8001bb6:	bd10      	pop	{r4, pc}
 8001bb8:	e8bd 4010 	ldmia.w	sp!, {r4, lr}
 8001bbc:	f7ff bc7e 	b.w	80014bc <Error_Handler>
 8001bc0:	2000052c 	.word	0x2000052c
 8001bc4:	40013800 	.word	0x40013800
 8001bc8:	001e8480 	.word	0x001e8480
 8001bcc:	00000000 	.word	0x00000000

08001bd0 <HAL_UART_MspInit>:
 8001bd0:	b510      	push	{r4, lr}
 8001bd2:	4a1b      	ldr	r2, [pc, #108]	; (8001c40 <HAL_UART_MspInit+0x70>)
 8001bd4:	6801      	ldr	r1, [r0, #0]
 8001bd6:	b088      	sub	sp, #32
 8001bd8:	2300      	movs	r3, #0
 8001bda:	4291      	cmp	r1, r2
 8001bdc:	e9cd 3302 	strd	r3, r3, [sp, #8]
 8001be0:	e9cd 3304 	strd	r3, r3, [sp, #16]
 8001be4:	9306      	str	r3, [sp, #24]
 8001be6:	d001      	beq.n	8001bec <HAL_UART_MspInit+0x1c>
 8001be8:	b008      	add	sp, #32
 8001bea:	bd10      	pop	{r4, pc}
 8001bec:	f103 4380 	add.w	r3, r3, #1073741824	; 0x40000000
 8001bf0:	f503 3304 	add.w	r3, r3, #135168	; 0x21000
 8001bf4:	ed9f 7b10 	vldr	d7, [pc, #64]	; 8001c38 <HAL_UART_MspInit+0x68>
 8001bf8:	699a      	ldr	r2, [r3, #24]
 8001bfa:	f442 4280 	orr.w	r2, r2, #16384	; 0x4000
 8001bfe:	619a      	str	r2, [r3, #24]
 8001c00:	699a      	ldr	r2, [r3, #24]
 8001c02:	f402 4280 	and.w	r2, r2, #16384	; 0x4000
 8001c06:	9200      	str	r2, [sp, #0]
 8001c08:	9a00      	ldr	r2, [sp, #0]
 8001c0a:	695a      	ldr	r2, [r3, #20]
 8001c0c:	f442 3200 	orr.w	r2, r2, #131072	; 0x20000
 8001c10:	615a      	str	r2, [r3, #20]
 8001c12:	695b      	ldr	r3, [r3, #20]
 8001c14:	f403 3300 	and.w	r3, r3, #131072	; 0x20000
 8001c18:	9301      	str	r3, [sp, #4]
 8001c1a:	2203      	movs	r2, #3
 8001c1c:	2307      	movs	r3, #7
 8001c1e:	a902      	add	r1, sp, #8
 8001c20:	f04f 4090 	mov.w	r0, #1207959552	; 0x48000000
 8001c24:	ed8d 7b02 	vstr	d7, [sp, #8]
 8001c28:	e9cd 2305 	strd	r2, r3, [sp, #20]
 8001c2c:	9c01      	ldr	r4, [sp, #4]
 8001c2e:	f000 ff45 	bl	8002abc <HAL_GPIO_Init>
 8001c32:	b008      	add	sp, #32
 8001c34:	bd10      	pop	{r4, pc}
 8001c36:	bf00      	nop
 8001c38:	00000600 	.word	0x00000600
 8001c3c:	00000002 	.word	0x00000002
 8001c40:	40013800 	.word	0x40013800

08001c44 <Reset_Handler>:
 8001c44:	f8df d034 	ldr.w	sp, [pc, #52]	; 8001c7c <LoopForever+0x2>
 8001c48:	480d      	ldr	r0, [pc, #52]	; (8001c80 <LoopForever+0x6>)
 8001c4a:	490e      	ldr	r1, [pc, #56]	; (8001c84 <LoopForever+0xa>)
 8001c4c:	4a0e      	ldr	r2, [pc, #56]	; (8001c88 <LoopForever+0xe>)
 8001c4e:	2300      	movs	r3, #0
 8001c50:	e002      	b.n	8001c58 <LoopCopyDataInit>

08001c52 <CopyDataInit>:
 8001c52:	58d4      	ldr	r4, [r2, r3]
 8001c54:	50c4      	str	r4, [r0, r3]
 8001c56:	3304      	adds	r3, #4

08001c58 <LoopCopyDataInit>:
 8001c58:	18c4      	adds	r4, r0, r3
 8001c5a:	428c      	cmp	r4, r1
 8001c5c:	d3f9      	bcc.n	8001c52 <CopyDataInit>
 8001c5e:	4a0b      	ldr	r2, [pc, #44]	; (8001c8c <LoopForever+0x12>)
 8001c60:	4c0b      	ldr	r4, [pc, #44]	; (8001c90 <LoopForever+0x16>)
 8001c62:	2300      	movs	r3, #0
 8001c64:	e001      	b.n	8001c6a <LoopFillZerobss>

08001c66 <FillZerobss>:
 8001c66:	6013      	str	r3, [r2, #0]
 8001c68:	3204      	adds	r2, #4

08001c6a <LoopFillZerobss>:
 8001c6a:	42a2      	cmp	r2, r4
 8001c6c:	d3fb      	bcc.n	8001c66 <FillZerobss>
 8001c6e:	f7ff fd23 	bl	80016b8 <SystemInit>
 8001c72:	f002 feff 	bl	8004a74 <__libc_init_array>
 8001c76:	f7ff fb17 	bl	80012a8 <main>

08001c7a <LoopForever>:
 8001c7a:	e7fe      	b.n	8001c7a <LoopForever>
 8001c7c:	20008000 	.word	0x20008000
 8001c80:	20000000 	.word	0x20000000
 8001c84:	200001dc 	.word	0x200001dc
 8001c88:	08007b4c 	.word	0x08007b4c
 8001c8c:	200001dc 	.word	0x200001dc
 8001c90:	200005c4 	.word	0x200005c4

08001c94 <ADC1_2_IRQHandler>:
 8001c94:	e7fe      	b.n	8001c94 <ADC1_2_IRQHandler>
	...

08001c98 <HAL_InitTick>:
 8001c98:	b538      	push	{r3, r4, r5, lr}
 8001c9a:	4a0e      	ldr	r2, [pc, #56]	; (8001cd4 <HAL_InitTick+0x3c>)
 8001c9c:	4b0e      	ldr	r3, [pc, #56]	; (8001cd8 <HAL_InitTick+0x40>)
 8001c9e:	7812      	ldrb	r2, [r2, #0]
 8001ca0:	681b      	ldr	r3, [r3, #0]
 8001ca2:	4605      	mov	r5, r0
 8001ca4:	f44f 707a 	mov.w	r0, #1000	; 0x3e8
 8001ca8:	fbb0 f0f2 	udiv	r0, r0, r2
 8001cac:	fbb3 f0f0 	udiv	r0, r3, r0
 8001cb0:	f000 fe5c 	bl	800296c <HAL_SYSTICK_Config>
 8001cb4:	b908      	cbnz	r0, 8001cba <HAL_InitTick+0x22>
 8001cb6:	2d0f      	cmp	r5, #15
 8001cb8:	d901      	bls.n	8001cbe <HAL_InitTick+0x26>
 8001cba:	2001      	movs	r0, #1
 8001cbc:	bd38      	pop	{r3, r4, r5, pc}
 8001cbe:	4604      	mov	r4, r0
 8001cc0:	4602      	mov	r2, r0
 8001cc2:	4629      	mov	r1, r5
 8001cc4:	f04f 30ff 	mov.w	r0, #4294967295
 8001cc8:	f000 fe04 	bl	80028d4 <HAL_NVIC_SetPriority>
 8001ccc:	4b03      	ldr	r3, [pc, #12]	; (8001cdc <HAL_InitTick+0x44>)
 8001cce:	4620      	mov	r0, r4
 8001cd0:	601d      	str	r5, [r3, #0]
 8001cd2:	bd38      	pop	{r3, r4, r5, pc}
 8001cd4:	20000004 	.word	0x20000004
 8001cd8:	20000000 	.word	0x20000000
 8001cdc:	20000008 	.word	0x20000008

08001ce0 <HAL_Init>:
 8001ce0:	4a07      	ldr	r2, [pc, #28]	; (8001d00 <HAL_Init+0x20>)
 8001ce2:	b508      	push	{r3, lr}
 8001ce4:	6813      	ldr	r3, [r2, #0]
 8001ce6:	f043 0310 	orr.w	r3, r3, #16
 8001cea:	6013      	str	r3, [r2, #0]
 8001cec:	2003      	movs	r0, #3
 8001cee:	f000 fddf 	bl	80028b0 <HAL_NVIC_SetPriorityGrouping>
 8001cf2:	200f      	movs	r0, #15
 8001cf4:	f7ff ffd0 	bl	8001c98 <HAL_InitTick>
 8001cf8:	f7ff fc46 	bl	8001588 <HAL_MspInit>
 8001cfc:	2000      	movs	r0, #0
 8001cfe:	bd08      	pop	{r3, pc}
 8001d00:	40022000 	.word	0x40022000

08001d04 <HAL_IncTick>:
 8001d04:	4a03      	ldr	r2, [pc, #12]	; (8001d14 <HAL_IncTick+0x10>)
 8001d06:	4b04      	ldr	r3, [pc, #16]	; (8001d18 <HAL_IncTick+0x14>)
 8001d08:	6811      	ldr	r1, [r2, #0]
 8001d0a:	781b      	ldrb	r3, [r3, #0]
 8001d0c:	440b      	add	r3, r1
 8001d0e:	6013      	str	r3, [r2, #0]
 8001d10:	4770      	bx	lr
 8001d12:	bf00      	nop
 8001d14:	200005b0 	.word	0x200005b0
 8001d18:	20000004 	.word	0x20000004

08001d1c <HAL_GetTick>:
 8001d1c:	4b01      	ldr	r3, [pc, #4]	; (8001d24 <HAL_GetTick+0x8>)
 8001d1e:	6818      	ldr	r0, [r3, #0]
 8001d20:	4770      	bx	lr
 8001d22:	bf00      	nop
 8001d24:	200005b0 	.word	0x200005b0

08001d28 <HAL_Delay>:
 8001d28:	b538      	push	{r3, r4, r5, lr}
 8001d2a:	4604      	mov	r4, r0
 8001d2c:	f7ff fff6 	bl	8001d1c <HAL_GetTick>
 8001d30:	1c63      	adds	r3, r4, #1
 8001d32:	4605      	mov	r5, r0
 8001d34:	d002      	beq.n	8001d3c <HAL_Delay+0x14>
 8001d36:	4b04      	ldr	r3, [pc, #16]	; (8001d48 <HAL_Delay+0x20>)
 8001d38:	781b      	ldrb	r3, [r3, #0]
 8001d3a:	441c      	add	r4, r3
 8001d3c:	f7ff ffee 	bl	8001d1c <HAL_GetTick>
 8001d40:	1b43      	subs	r3, r0, r5
 8001d42:	42a3      	cmp	r3, r4
 8001d44:	d3fa      	bcc.n	8001d3c <HAL_Delay+0x14>
 8001d46:	bd38      	pop	{r3, r4, r5, pc}
 8001d48:	20000004 	.word	0x20000004

08001d4c <ADC_Disable>:
 8001d4c:	6802      	ldr	r2, [r0, #0]
 8001d4e:	b538      	push	{r3, r4, r5, lr}
 8001d50:	6893      	ldr	r3, [r2, #8]
 8001d52:	f003 0303 	and.w	r3, r3, #3
 8001d56:	2b01      	cmp	r3, #1
 8001d58:	d001      	beq.n	8001d5e <ADC_Disable+0x12>
 8001d5a:	2000      	movs	r0, #0
 8001d5c:	bd38      	pop	{r3, r4, r5, pc}
 8001d5e:	6811      	ldr	r1, [r2, #0]
 8001d60:	07cc      	lsls	r4, r1, #31
 8001d62:	d5fa      	bpl.n	8001d5a <ADC_Disable+0xe>
 8001d64:	6891      	ldr	r1, [r2, #8]
 8001d66:	f001 010d 	and.w	r1, r1, #13
 8001d6a:	2901      	cmp	r1, #1
 8001d6c:	4604      	mov	r4, r0
 8001d6e:	d009      	beq.n	8001d84 <ADC_Disable+0x38>
 8001d70:	6c02      	ldr	r2, [r0, #64]	; 0x40
 8001d72:	f042 0210 	orr.w	r2, r2, #16
 8001d76:	6422      	str	r2, [r4, #64]	; 0x40
 8001d78:	4618      	mov	r0, r3
 8001d7a:	6c63      	ldr	r3, [r4, #68]	; 0x44
 8001d7c:	f043 0301 	orr.w	r3, r3, #1
 8001d80:	6463      	str	r3, [r4, #68]	; 0x44
 8001d82:	bd38      	pop	{r3, r4, r5, pc}
 8001d84:	6893      	ldr	r3, [r2, #8]
 8001d86:	2103      	movs	r1, #3
 8001d88:	f043 0302 	orr.w	r3, r3, #2
 8001d8c:	6093      	str	r3, [r2, #8]
 8001d8e:	6011      	str	r1, [r2, #0]
 8001d90:	f7ff ffc4 	bl	8001d1c <HAL_GetTick>
 8001d94:	6823      	ldr	r3, [r4, #0]
 8001d96:	689b      	ldr	r3, [r3, #8]
 8001d98:	07d9      	lsls	r1, r3, #31
 8001d9a:	4605      	mov	r5, r0
 8001d9c:	d403      	bmi.n	8001da6 <ADC_Disable+0x5a>
 8001d9e:	e7dc      	b.n	8001d5a <ADC_Disable+0xe>
 8001da0:	689b      	ldr	r3, [r3, #8]
 8001da2:	07db      	lsls	r3, r3, #31
 8001da4:	d5d9      	bpl.n	8001d5a <ADC_Disable+0xe>
 8001da6:	f7ff ffb9 	bl	8001d1c <HAL_GetTick>
 8001daa:	1b40      	subs	r0, r0, r5
 8001dac:	2802      	cmp	r0, #2
 8001dae:	6823      	ldr	r3, [r4, #0]
 8001db0:	d9f6      	bls.n	8001da0 <ADC_Disable+0x54>
 8001db2:	689a      	ldr	r2, [r3, #8]
 8001db4:	07d2      	lsls	r2, r2, #31
 8001db6:	d5f3      	bpl.n	8001da0 <ADC_Disable+0x54>
 8001db8:	6c23      	ldr	r3, [r4, #64]	; 0x40
 8001dba:	f043 0310 	orr.w	r3, r3, #16
 8001dbe:	6423      	str	r3, [r4, #64]	; 0x40
 8001dc0:	6c63      	ldr	r3, [r4, #68]	; 0x44
 8001dc2:	2001      	movs	r0, #1
 8001dc4:	4303      	orrs	r3, r0
 8001dc6:	6463      	str	r3, [r4, #68]	; 0x44
 8001dc8:	bd38      	pop	{r3, r4, r5, pc}
 8001dca:	bf00      	nop

08001dcc <ADC_Enable>:
 8001dcc:	6802      	ldr	r2, [r0, #0]
 8001dce:	b538      	push	{r3, r4, r5, lr}
 8001dd0:	6893      	ldr	r3, [r2, #8]
 8001dd2:	f003 0303 	and.w	r3, r3, #3
 8001dd6:	2b01      	cmp	r3, #1
 8001dd8:	4604      	mov	r4, r0
 8001dda:	d025      	beq.n	8001e28 <ADC_Enable+0x5c>
 8001ddc:	6891      	ldr	r1, [r2, #8]
 8001dde:	4b15      	ldr	r3, [pc, #84]	; (8001e34 <ADC_Enable+0x68>)
 8001de0:	4219      	tst	r1, r3
 8001de2:	d008      	beq.n	8001df6 <ADC_Enable+0x2a>
 8001de4:	6c23      	ldr	r3, [r4, #64]	; 0x40
 8001de6:	f043 0310 	orr.w	r3, r3, #16
 8001dea:	6423      	str	r3, [r4, #64]	; 0x40
 8001dec:	6c63      	ldr	r3, [r4, #68]	; 0x44
 8001dee:	2001      	movs	r0, #1
 8001df0:	4303      	orrs	r3, r0
 8001df2:	6463      	str	r3, [r4, #68]	; 0x44
 8001df4:	bd38      	pop	{r3, r4, r5, pc}
 8001df6:	6893      	ldr	r3, [r2, #8]
 8001df8:	f043 0301 	orr.w	r3, r3, #1
 8001dfc:	6093      	str	r3, [r2, #8]
 8001dfe:	f7ff ff8d 	bl	8001d1c <HAL_GetTick>
 8001e02:	6823      	ldr	r3, [r4, #0]
 8001e04:	4605      	mov	r5, r0
 8001e06:	681b      	ldr	r3, [r3, #0]
 8001e08:	07d9      	lsls	r1, r3, #31
 8001e0a:	d40b      	bmi.n	8001e24 <ADC_Enable+0x58>
 8001e0c:	f7ff ff86 	bl	8001d1c <HAL_GetTick>
 8001e10:	1b43      	subs	r3, r0, r5
 8001e12:	2b02      	cmp	r3, #2
 8001e14:	6823      	ldr	r3, [r4, #0]
 8001e16:	d9f6      	bls.n	8001e06 <ADC_Enable+0x3a>
 8001e18:	681a      	ldr	r2, [r3, #0]
 8001e1a:	07d2      	lsls	r2, r2, #31
 8001e1c:	d5e2      	bpl.n	8001de4 <ADC_Enable+0x18>
 8001e1e:	681b      	ldr	r3, [r3, #0]
 8001e20:	07d9      	lsls	r1, r3, #31
 8001e22:	d5f3      	bpl.n	8001e0c <ADC_Enable+0x40>
 8001e24:	2000      	movs	r0, #0
 8001e26:	bd38      	pop	{r3, r4, r5, pc}
 8001e28:	6813      	ldr	r3, [r2, #0]
 8001e2a:	07d8      	lsls	r0, r3, #31
 8001e2c:	d5d6      	bpl.n	8001ddc <ADC_Enable+0x10>
 8001e2e:	2000      	movs	r0, #0
 8001e30:	e7f9      	b.n	8001e26 <ADC_Enable+0x5a>
 8001e32:	bf00      	nop
 8001e34:	8000003f 	.word	0x8000003f

08001e38 <HAL_ADC_Init>:
 8001e38:	b530      	push	{r4, r5, lr}
 8001e3a:	b083      	sub	sp, #12
 8001e3c:	2300      	movs	r3, #0
 8001e3e:	9301      	str	r3, [sp, #4]
 8001e40:	2800      	cmp	r0, #0
 8001e42:	f000 809c 	beq.w	8001f7e <HAL_ADC_Init+0x146>
 8001e46:	6c03      	ldr	r3, [r0, #64]	; 0x40
 8001e48:	f013 0310 	ands.w	r3, r3, #16
 8001e4c:	4604      	mov	r4, r0
 8001e4e:	d118      	bne.n	8001e82 <HAL_ADC_Init+0x4a>
 8001e50:	6c05      	ldr	r5, [r0, #64]	; 0x40
 8001e52:	2d00      	cmp	r5, #0
 8001e54:	f000 8096 	beq.w	8001f84 <HAL_ADC_Init+0x14c>
 8001e58:	6822      	ldr	r2, [r4, #0]
 8001e5a:	6891      	ldr	r1, [r2, #8]
 8001e5c:	00c9      	lsls	r1, r1, #3
 8001e5e:	f140 8082 	bpl.w	8001f66 <HAL_ADC_Init+0x12e>
 8001e62:	6891      	ldr	r1, [r2, #8]
 8001e64:	008d      	lsls	r5, r1, #2
 8001e66:	d47e      	bmi.n	8001f66 <HAL_ADC_Init+0x12e>
 8001e68:	6c21      	ldr	r1, [r4, #64]	; 0x40
 8001e6a:	06c8      	lsls	r0, r1, #27
 8001e6c:	d400      	bmi.n	8001e70 <HAL_ADC_Init+0x38>
 8001e6e:	b163      	cbz	r3, 8001e8a <HAL_ADC_Init+0x52>
 8001e70:	6c23      	ldr	r3, [r4, #64]	; 0x40
 8001e72:	f023 0312 	bic.w	r3, r3, #18
 8001e76:	2001      	movs	r0, #1
 8001e78:	f043 0310 	orr.w	r3, r3, #16
 8001e7c:	6423      	str	r3, [r4, #64]	; 0x40
 8001e7e:	b003      	add	sp, #12
 8001e80:	bd30      	pop	{r4, r5, pc}
 8001e82:	6c03      	ldr	r3, [r0, #64]	; 0x40
 8001e84:	06da      	lsls	r2, r3, #27
 8001e86:	d4f3      	bmi.n	8001e70 <HAL_ADC_Init+0x38>
 8001e88:	6802      	ldr	r2, [r0, #0]
 8001e8a:	6890      	ldr	r0, [r2, #8]
 8001e8c:	f010 0004 	ands.w	r0, r0, #4
 8001e90:	d1ee      	bne.n	8001e70 <HAL_ADC_Init+0x38>
 8001e92:	6c21      	ldr	r1, [r4, #64]	; 0x40
 8001e94:	f421 7181 	bic.w	r1, r1, #258	; 0x102
 8001e98:	f041 0102 	orr.w	r1, r1, #2
 8001e9c:	f1b2 4fa0 	cmp.w	r2, #1342177280	; 0x50000000
 8001ea0:	6421      	str	r1, [r4, #64]	; 0x40
 8001ea2:	f000 80d9 	beq.w	8002058 <HAL_ADC_Init+0x220>
 8001ea6:	4b7d      	ldr	r3, [pc, #500]	; (800209c <HAL_ADC_Init+0x264>)
 8001ea8:	429a      	cmp	r2, r3
 8001eaa:	f000 80dd 	beq.w	8002068 <HAL_ADC_Init+0x230>
 8001eae:	497c      	ldr	r1, [pc, #496]	; (80020a0 <HAL_ADC_Init+0x268>)
 8001eb0:	428a      	cmp	r2, r1
 8001eb2:	d074      	beq.n	8001f9e <HAL_ADC_Init+0x166>
 8001eb4:	4b7b      	ldr	r3, [pc, #492]	; (80020a4 <HAL_ADC_Init+0x26c>)
 8001eb6:	429a      	cmp	r2, r3
 8001eb8:	d072      	beq.n	8001fa0 <HAL_ADC_Init+0x168>
 8001eba:	6893      	ldr	r3, [r2, #8]
 8001ebc:	f003 0303 	and.w	r3, r3, #3
 8001ec0:	2b01      	cmp	r3, #1
 8001ec2:	f000 80e3 	beq.w	800208c <HAL_ADC_Init+0x254>
 8001ec6:	4d78      	ldr	r5, [pc, #480]	; (80020a8 <HAL_ADC_Init+0x270>)
 8001ec8:	68ab      	ldr	r3, [r5, #8]
 8001eca:	6861      	ldr	r1, [r4, #4]
 8001ecc:	f423 3340 	bic.w	r3, r3, #196608	; 0x30000
 8001ed0:	430b      	orrs	r3, r1
 8001ed2:	60ab      	str	r3, [r5, #8]
 8001ed4:	6b63      	ldr	r3, [r4, #52]	; 0x34
 8001ed6:	68e1      	ldr	r1, [r4, #12]
 8001ed8:	7e65      	ldrb	r5, [r4, #25]
 8001eda:	2b01      	cmp	r3, #1
 8001edc:	68a3      	ldr	r3, [r4, #8]
 8001ede:	ea43 0301 	orr.w	r3, r3, r1
 8001ee2:	f894 1020 	ldrb.w	r1, [r4, #32]
 8001ee6:	bf18      	it	ne
 8001ee8:	f44f 5080 	movne.w	r0, #4096	; 0x1000
 8001eec:	ea43 3345 	orr.w	r3, r3, r5, lsl #13
 8001ef0:	2901      	cmp	r1, #1
 8001ef2:	ea43 0300 	orr.w	r3, r3, r0
 8001ef6:	f000 8093 	beq.w	8002020 <HAL_ADC_Init+0x1e8>
 8001efa:	6aa1      	ldr	r1, [r4, #40]	; 0x28
 8001efc:	2901      	cmp	r1, #1
 8001efe:	d00b      	beq.n	8001f18 <HAL_ADC_Init+0xe0>
 8001f00:	4867      	ldr	r0, [pc, #412]	; (80020a0 <HAL_ADC_Init+0x268>)
 8001f02:	4282      	cmp	r2, r0
 8001f04:	f000 809c 	beq.w	8002040 <HAL_ADC_Init+0x208>
 8001f08:	f500 7080 	add.w	r0, r0, #256	; 0x100
 8001f0c:	4282      	cmp	r2, r0
 8001f0e:	f000 8097 	beq.w	8002040 <HAL_ADC_Init+0x208>
 8001f12:	6ae0      	ldr	r0, [r4, #44]	; 0x2c
 8001f14:	4303      	orrs	r3, r0
 8001f16:	430b      	orrs	r3, r1
 8001f18:	6891      	ldr	r1, [r2, #8]
 8001f1a:	f011 0f0c 	tst.w	r1, #12
 8001f1e:	d10c      	bne.n	8001f3a <HAL_ADC_Init+0x102>
 8001f20:	68d1      	ldr	r1, [r2, #12]
 8001f22:	f421 4180 	bic.w	r1, r1, #16384	; 0x4000
 8001f26:	f021 0102 	bic.w	r1, r1, #2
 8001f2a:	60d1      	str	r1, [r2, #12]
 8001f2c:	f894 1030 	ldrb.w	r1, [r4, #48]	; 0x30
 8001f30:	7e20      	ldrb	r0, [r4, #24]
 8001f32:	0049      	lsls	r1, r1, #1
 8001f34:	ea41 3180 	orr.w	r1, r1, r0, lsl #14
 8001f38:	430b      	orrs	r3, r1
 8001f3a:	68d0      	ldr	r0, [r2, #12]
 8001f3c:	495b      	ldr	r1, [pc, #364]	; (80020ac <HAL_ADC_Init+0x274>)
 8001f3e:	4001      	ands	r1, r0
 8001f40:	6920      	ldr	r0, [r4, #16]
 8001f42:	430b      	orrs	r3, r1
 8001f44:	2801      	cmp	r0, #1
 8001f46:	60d3      	str	r3, [r2, #12]
 8001f48:	d072      	beq.n	8002030 <HAL_ADC_Init+0x1f8>
 8001f4a:	6b13      	ldr	r3, [r2, #48]	; 0x30
 8001f4c:	f023 030f 	bic.w	r3, r3, #15
 8001f50:	6313      	str	r3, [r2, #48]	; 0x30
 8001f52:	2000      	movs	r0, #0
 8001f54:	6460      	str	r0, [r4, #68]	; 0x44
 8001f56:	6c23      	ldr	r3, [r4, #64]	; 0x40
 8001f58:	f023 0303 	bic.w	r3, r3, #3
 8001f5c:	f043 0301 	orr.w	r3, r3, #1
 8001f60:	6423      	str	r3, [r4, #64]	; 0x40
 8001f62:	b003      	add	sp, #12
 8001f64:	bd30      	pop	{r4, r5, pc}
 8001f66:	6c23      	ldr	r3, [r4, #64]	; 0x40
 8001f68:	f023 0312 	bic.w	r3, r3, #18
 8001f6c:	f043 0310 	orr.w	r3, r3, #16
 8001f70:	6423      	str	r3, [r4, #64]	; 0x40
 8001f72:	6c63      	ldr	r3, [r4, #68]	; 0x44
 8001f74:	f043 0301 	orr.w	r3, r3, #1
 8001f78:	6463      	str	r3, [r4, #68]	; 0x44
 8001f7a:	6c23      	ldr	r3, [r4, #64]	; 0x40
 8001f7c:	e778      	b.n	8001e70 <HAL_ADC_Init+0x38>
 8001f7e:	2001      	movs	r0, #1
 8001f80:	b003      	add	sp, #12
 8001f82:	bd30      	pop	{r4, r5, pc}
 8001f84:	e9c0 5512 	strd	r5, r5, [r0, #72]	; 0x48
 8001f88:	6445      	str	r5, [r0, #68]	; 0x44
 8001f8a:	f880 503c 	strb.w	r5, [r0, #60]	; 0x3c
 8001f8e:	f7fe ff47 	bl	8000e20 <HAL_ADC_MspInit>
 8001f92:	6822      	ldr	r2, [r4, #0]
 8001f94:	6893      	ldr	r3, [r2, #8]
 8001f96:	00db      	lsls	r3, r3, #3
 8001f98:	d511      	bpl.n	8001fbe <HAL_ADC_Init+0x186>
 8001f9a:	462b      	mov	r3, r5
 8001f9c:	e75d      	b.n	8001e5a <HAL_ADC_Init+0x22>
 8001f9e:	4941      	ldr	r1, [pc, #260]	; (80020a4 <HAL_ADC_Init+0x26c>)
 8001fa0:	4d41      	ldr	r5, [pc, #260]	; (80020a8 <HAL_ADC_Init+0x270>)
 8001fa2:	6893      	ldr	r3, [r2, #8]
 8001fa4:	f003 0303 	and.w	r3, r3, #3
 8001fa8:	2b01      	cmp	r3, #1
 8001faa:	d058      	beq.n	800205e <HAL_ADC_Init+0x226>
 8001fac:	688b      	ldr	r3, [r1, #8]
 8001fae:	f003 0303 	and.w	r3, r3, #3
 8001fb2:	2b01      	cmp	r3, #1
 8001fb4:	d188      	bne.n	8001ec8 <HAL_ADC_Init+0x90>
 8001fb6:	680b      	ldr	r3, [r1, #0]
 8001fb8:	07db      	lsls	r3, r3, #31
 8001fba:	d48b      	bmi.n	8001ed4 <HAL_ADC_Init+0x9c>
 8001fbc:	e784      	b.n	8001ec8 <HAL_ADC_Init+0x90>
 8001fbe:	4620      	mov	r0, r4
 8001fc0:	f7ff fec4 	bl	8001d4c <ADC_Disable>
 8001fc4:	6c22      	ldr	r2, [r4, #64]	; 0x40
 8001fc6:	4603      	mov	r3, r0
 8001fc8:	06d0      	lsls	r0, r2, #27
 8001fca:	f53f af45 	bmi.w	8001e58 <HAL_ADC_Init+0x20>
 8001fce:	2b00      	cmp	r3, #0
 8001fd0:	f47f af42 	bne.w	8001e58 <HAL_ADC_Init+0x20>
 8001fd4:	6c21      	ldr	r1, [r4, #64]	; 0x40
 8001fd6:	6822      	ldr	r2, [r4, #0]
 8001fd8:	f421 5188 	bic.w	r1, r1, #4352	; 0x1100
 8001fdc:	f021 0102 	bic.w	r1, r1, #2
 8001fe0:	f041 0102 	orr.w	r1, r1, #2
 8001fe4:	6421      	str	r1, [r4, #64]	; 0x40
 8001fe6:	6890      	ldr	r0, [r2, #8]
 8001fe8:	4931      	ldr	r1, [pc, #196]	; (80020b0 <HAL_ADC_Init+0x278>)
 8001fea:	f020 5040 	bic.w	r0, r0, #805306368	; 0x30000000
 8001fee:	6090      	str	r0, [r2, #8]
 8001ff0:	6890      	ldr	r0, [r2, #8]
 8001ff2:	6809      	ldr	r1, [r1, #0]
 8001ff4:	f040 5080 	orr.w	r0, r0, #268435456	; 0x10000000
 8001ff8:	6090      	str	r0, [r2, #8]
 8001ffa:	482e      	ldr	r0, [pc, #184]	; (80020b4 <HAL_ADC_Init+0x27c>)
 8001ffc:	fba0 0101 	umull	r0, r1, r0, r1
 8002000:	0c89      	lsrs	r1, r1, #18
 8002002:	eb01 0181 	add.w	r1, r1, r1, lsl #2
 8002006:	0049      	lsls	r1, r1, #1
 8002008:	9101      	str	r1, [sp, #4]
 800200a:	9901      	ldr	r1, [sp, #4]
 800200c:	2900      	cmp	r1, #0
 800200e:	f43f af24 	beq.w	8001e5a <HAL_ADC_Init+0x22>
 8002012:	9901      	ldr	r1, [sp, #4]
 8002014:	3901      	subs	r1, #1
 8002016:	9101      	str	r1, [sp, #4]
 8002018:	9901      	ldr	r1, [sp, #4]
 800201a:	2900      	cmp	r1, #0
 800201c:	d1f9      	bne.n	8002012 <HAL_ADC_Init+0x1da>
 800201e:	e71c      	b.n	8001e5a <HAL_ADC_Init+0x22>
 8002020:	bb35      	cbnz	r5, 8002070 <HAL_ADC_Init+0x238>
 8002022:	6a61      	ldr	r1, [r4, #36]	; 0x24
 8002024:	3901      	subs	r1, #1
 8002026:	ea43 4341 	orr.w	r3, r3, r1, lsl #17
 800202a:	f443 3380 	orr.w	r3, r3, #65536	; 0x10000
 800202e:	e764      	b.n	8001efa <HAL_ADC_Init+0xc2>
 8002030:	6b11      	ldr	r1, [r2, #48]	; 0x30
 8002032:	69e3      	ldr	r3, [r4, #28]
 8002034:	f021 010f 	bic.w	r1, r1, #15
 8002038:	3b01      	subs	r3, #1
 800203a:	430b      	orrs	r3, r1
 800203c:	6313      	str	r3, [r2, #48]	; 0x30
 800203e:	e788      	b.n	8001f52 <HAL_ADC_Init+0x11a>
 8002040:	f5b1 7f30 	cmp.w	r1, #704	; 0x2c0
 8002044:	d01f      	beq.n	8002086 <HAL_ADC_Init+0x24e>
 8002046:	f5b1 7f80 	cmp.w	r1, #256	; 0x100
 800204a:	d024      	beq.n	8002096 <HAL_ADC_Init+0x25e>
 800204c:	f5b1 7fe0 	cmp.w	r1, #448	; 0x1c0
 8002050:	bf08      	it	eq
 8002052:	f44f 7180 	moveq.w	r1, #256	; 0x100
 8002056:	e75c      	b.n	8001f12 <HAL_ADC_Init+0xda>
 8002058:	4910      	ldr	r1, [pc, #64]	; (800209c <HAL_ADC_Init+0x264>)
 800205a:	4d17      	ldr	r5, [pc, #92]	; (80020b8 <HAL_ADC_Init+0x280>)
 800205c:	e7a1      	b.n	8001fa2 <HAL_ADC_Init+0x16a>
 800205e:	6813      	ldr	r3, [r2, #0]
 8002060:	07db      	lsls	r3, r3, #31
 8002062:	f53f af37 	bmi.w	8001ed4 <HAL_ADC_Init+0x9c>
 8002066:	e7a1      	b.n	8001fac <HAL_ADC_Init+0x174>
 8002068:	4d13      	ldr	r5, [pc, #76]	; (80020b8 <HAL_ADC_Init+0x280>)
 800206a:	f04f 41a0 	mov.w	r1, #1342177280	; 0x50000000
 800206e:	e798      	b.n	8001fa2 <HAL_ADC_Init+0x16a>
 8002070:	6c21      	ldr	r1, [r4, #64]	; 0x40
 8002072:	f021 0122 	bic.w	r1, r1, #34	; 0x22
 8002076:	f041 0120 	orr.w	r1, r1, #32
 800207a:	6421      	str	r1, [r4, #64]	; 0x40
 800207c:	6c61      	ldr	r1, [r4, #68]	; 0x44
 800207e:	f041 0101 	orr.w	r1, r1, #1
 8002082:	6461      	str	r1, [r4, #68]	; 0x44
 8002084:	e739      	b.n	8001efa <HAL_ADC_Init+0xc2>
 8002086:	f44f 71e0 	mov.w	r1, #448	; 0x1c0
 800208a:	e742      	b.n	8001f12 <HAL_ADC_Init+0xda>
 800208c:	6813      	ldr	r3, [r2, #0]
 800208e:	07d9      	lsls	r1, r3, #31
 8002090:	f53f af20 	bmi.w	8001ed4 <HAL_ADC_Init+0x9c>
 8002094:	e717      	b.n	8001ec6 <HAL_ADC_Init+0x8e>
 8002096:	f44f 7130 	mov.w	r1, #704	; 0x2c0
 800209a:	e73a      	b.n	8001f12 <HAL_ADC_Init+0xda>
 800209c:	50000100 	.word	0x50000100
 80020a0:	50000400 	.word	0x50000400
 80020a4:	50000500 	.word	0x50000500
 80020a8:	50000700 	.word	0x50000700
 80020ac:	fff0c007 	.word	0xfff0c007
 80020b0:	20000000 	.word	0x20000000
 80020b4:	431bde83 	.word	0x431bde83
 80020b8:	50000300 	.word	0x50000300

080020bc <HAL_ADC_Start>:
 80020bc:	b538      	push	{r3, r4, r5, lr}
 80020be:	6803      	ldr	r3, [r0, #0]
 80020c0:	689d      	ldr	r5, [r3, #8]
 80020c2:	f015 0504 	ands.w	r5, r5, #4
 80020c6:	d12c      	bne.n	8002122 <HAL_ADC_Start+0x66>
 80020c8:	f890 303c 	ldrb.w	r3, [r0, #60]	; 0x3c
 80020cc:	2b01      	cmp	r3, #1
 80020ce:	4604      	mov	r4, r0
 80020d0:	d027      	beq.n	8002122 <HAL_ADC_Start+0x66>
 80020d2:	2301      	movs	r3, #1
 80020d4:	f880 303c 	strb.w	r3, [r0, #60]	; 0x3c
 80020d8:	f7ff fe78 	bl	8001dcc <ADC_Enable>
 80020dc:	b9f0      	cbnz	r0, 800211c <HAL_ADC_Start+0x60>
 80020de:	6c22      	ldr	r2, [r4, #64]	; 0x40
 80020e0:	6823      	ldr	r3, [r4, #0]
 80020e2:	f422 6270 	bic.w	r2, r2, #3840	; 0xf00
 80020e6:	f022 0201 	bic.w	r2, r2, #1
 80020ea:	f442 7280 	orr.w	r2, r2, #256	; 0x100
 80020ee:	f1b3 4fa0 	cmp.w	r3, #1342177280	; 0x50000000
 80020f2:	6422      	str	r2, [r4, #64]	; 0x40
 80020f4:	d017      	beq.n	8002126 <HAL_ADC_Start+0x6a>
 80020f6:	4a3a      	ldr	r2, [pc, #232]	; (80021e0 <HAL_ADC_Start+0x124>)
 80020f8:	4293      	cmp	r3, r2
 80020fa:	d068      	beq.n	80021ce <HAL_ADC_Start+0x112>
 80020fc:	f502 62c0 	add.w	r2, r2, #1536	; 0x600
 8002100:	6892      	ldr	r2, [r2, #8]
 8002102:	06d5      	lsls	r5, r2, #27
 8002104:	d011      	beq.n	800212a <HAL_ADC_Start+0x6e>
 8002106:	4937      	ldr	r1, [pc, #220]	; (80021e4 <HAL_ADC_Start+0x128>)
 8002108:	428b      	cmp	r3, r1
 800210a:	d00e      	beq.n	800212a <HAL_ADC_Start+0x6e>
 800210c:	6c22      	ldr	r2, [r4, #64]	; 0x40
 800210e:	f442 1280 	orr.w	r2, r2, #1048576	; 0x100000
 8002112:	6422      	str	r2, [r4, #64]	; 0x40
 8002114:	68ca      	ldr	r2, [r1, #12]
 8002116:	0192      	lsls	r2, r2, #6
 8002118:	d514      	bpl.n	8002144 <HAL_ADC_Start+0x88>
 800211a:	e00d      	b.n	8002138 <HAL_ADC_Start+0x7c>
 800211c:	f884 503c 	strb.w	r5, [r4, #60]	; 0x3c
 8002120:	bd38      	pop	{r3, r4, r5, pc}
 8002122:	2002      	movs	r0, #2
 8002124:	bd38      	pop	{r3, r4, r5, pc}
 8002126:	4a30      	ldr	r2, [pc, #192]	; (80021e8 <HAL_ADC_Start+0x12c>)
 8002128:	6892      	ldr	r2, [r2, #8]
 800212a:	6c22      	ldr	r2, [r4, #64]	; 0x40
 800212c:	f422 1280 	bic.w	r2, r2, #1048576	; 0x100000
 8002130:	6422      	str	r2, [r4, #64]	; 0x40
 8002132:	68da      	ldr	r2, [r3, #12]
 8002134:	0191      	lsls	r1, r2, #6
 8002136:	d505      	bpl.n	8002144 <HAL_ADC_Start+0x88>
 8002138:	6c22      	ldr	r2, [r4, #64]	; 0x40
 800213a:	f422 5240 	bic.w	r2, r2, #12288	; 0x3000
 800213e:	f442 5280 	orr.w	r2, r2, #4096	; 0x1000
 8002142:	6422      	str	r2, [r4, #64]	; 0x40
 8002144:	6c22      	ldr	r2, [r4, #64]	; 0x40
 8002146:	f412 5280 	ands.w	r2, r2, #4096	; 0x1000
 800214a:	bf1c      	itt	ne
 800214c:	6c62      	ldrne	r2, [r4, #68]	; 0x44
 800214e:	f022 0206 	bicne.w	r2, r2, #6
 8002152:	6462      	str	r2, [r4, #68]	; 0x44
 8002154:	2100      	movs	r1, #0
 8002156:	221c      	movs	r2, #28
 8002158:	f1b3 4fa0 	cmp.w	r3, #1342177280	; 0x50000000
 800215c:	f884 103c 	strb.w	r1, [r4, #60]	; 0x3c
 8002160:	601a      	str	r2, [r3, #0]
 8002162:	d01a      	beq.n	800219a <HAL_ADC_Start+0xde>
 8002164:	4a1e      	ldr	r2, [pc, #120]	; (80021e0 <HAL_ADC_Start+0x124>)
 8002166:	4293      	cmp	r3, r2
 8002168:	d022      	beq.n	80021b0 <HAL_ADC_Start+0xf4>
 800216a:	f8d2 1608 	ldr.w	r1, [r2, #1544]	; 0x608
 800216e:	06cd      	lsls	r5, r1, #27
 8002170:	f502 62c0 	add.w	r2, r2, #1536	; 0x600
 8002174:	d00c      	beq.n	8002190 <HAL_ADC_Start+0xd4>
 8002176:	6891      	ldr	r1, [r2, #8]
 8002178:	f001 011f 	and.w	r1, r1, #31
 800217c:	2905      	cmp	r1, #5
 800217e:	d007      	beq.n	8002190 <HAL_ADC_Start+0xd4>
 8002180:	6892      	ldr	r2, [r2, #8]
 8002182:	f002 021f 	and.w	r2, r2, #31
 8002186:	2a09      	cmp	r2, #9
 8002188:	d002      	beq.n	8002190 <HAL_ADC_Start+0xd4>
 800218a:	4a16      	ldr	r2, [pc, #88]	; (80021e4 <HAL_ADC_Start+0x128>)
 800218c:	4293      	cmp	r3, r2
 800218e:	d1c7      	bne.n	8002120 <HAL_ADC_Start+0x64>
 8002190:	689a      	ldr	r2, [r3, #8]
 8002192:	f042 0204 	orr.w	r2, r2, #4
 8002196:	609a      	str	r2, [r3, #8]
 8002198:	bd38      	pop	{r3, r4, r5, pc}
 800219a:	4a13      	ldr	r2, [pc, #76]	; (80021e8 <HAL_ADC_Start+0x12c>)
 800219c:	6891      	ldr	r1, [r2, #8]
 800219e:	06cc      	lsls	r4, r1, #27
 80021a0:	d0f6      	beq.n	8002190 <HAL_ADC_Start+0xd4>
 80021a2:	6891      	ldr	r1, [r2, #8]
 80021a4:	f001 011f 	and.w	r1, r1, #31
 80021a8:	2905      	cmp	r1, #5
 80021aa:	d0f1      	beq.n	8002190 <HAL_ADC_Start+0xd4>
 80021ac:	6892      	ldr	r2, [r2, #8]
 80021ae:	e7ef      	b.n	8002190 <HAL_ADC_Start+0xd4>
 80021b0:	4a0d      	ldr	r2, [pc, #52]	; (80021e8 <HAL_ADC_Start+0x12c>)
 80021b2:	6891      	ldr	r1, [r2, #8]
 80021b4:	06c9      	lsls	r1, r1, #27
 80021b6:	d0eb      	beq.n	8002190 <HAL_ADC_Start+0xd4>
 80021b8:	6891      	ldr	r1, [r2, #8]
 80021ba:	f001 011f 	and.w	r1, r1, #31
 80021be:	2905      	cmp	r1, #5
 80021c0:	d0e6      	beq.n	8002190 <HAL_ADC_Start+0xd4>
 80021c2:	6892      	ldr	r2, [r2, #8]
 80021c4:	f002 021f 	and.w	r2, r2, #31
 80021c8:	2a09      	cmp	r2, #9
 80021ca:	d0e1      	beq.n	8002190 <HAL_ADC_Start+0xd4>
 80021cc:	bd38      	pop	{r3, r4, r5, pc}
 80021ce:	4a06      	ldr	r2, [pc, #24]	; (80021e8 <HAL_ADC_Start+0x12c>)
 80021d0:	6892      	ldr	r2, [r2, #8]
 80021d2:	06d2      	lsls	r2, r2, #27
 80021d4:	d0a9      	beq.n	800212a <HAL_ADC_Start+0x6e>
 80021d6:	6c22      	ldr	r2, [r4, #64]	; 0x40
 80021d8:	f04f 41a0 	mov.w	r1, #1342177280	; 0x50000000
 80021dc:	e797      	b.n	800210e <HAL_ADC_Start+0x52>
 80021de:	bf00      	nop
 80021e0:	50000100 	.word	0x50000100
 80021e4:	50000400 	.word	0x50000400
 80021e8:	50000300 	.word	0x50000300

080021ec <HAL_ADCEx_InjectedConfigChannel>:
 80021ec:	b5f0      	push	{r4, r5, r6, r7, lr}
 80021ee:	f890 303c 	ldrb.w	r3, [r0, #60]	; 0x3c
 80021f2:	6905      	ldr	r5, [r0, #16]
 80021f4:	68cc      	ldr	r4, [r1, #12]
 80021f6:	b083      	sub	sp, #12
 80021f8:	2200      	movs	r2, #0
 80021fa:	2b01      	cmp	r3, #1
 80021fc:	9201      	str	r2, [sp, #4]
 80021fe:	f000 81ac 	beq.w	800255a <HAL_ADCEx_InjectedConfigChannel+0x36e>
 8002202:	2301      	movs	r3, #1
 8002204:	f880 303c 	strb.w	r3, [r0, #60]	; 0x3c
 8002208:	b365      	cbz	r5, 8002264 <HAL_ADCEx_InjectedConfigChannel+0x78>
 800220a:	698f      	ldr	r7, [r1, #24]
 800220c:	429f      	cmp	r7, r3
 800220e:	d029      	beq.n	8002264 <HAL_ADCEx_InjectedConfigChannel+0x78>
 8002210:	6cc5      	ldr	r5, [r0, #76]	; 0x4c
 8002212:	2d00      	cmp	r5, #0
 8002214:	f040 812b 	bne.w	800246e <HAL_ADCEx_InjectedConfigChannel+0x282>
 8002218:	6a0d      	ldr	r5, [r1, #32]
 800221a:	64c7      	str	r7, [r0, #76]	; 0x4c
 800221c:	2d01      	cmp	r5, #1
 800221e:	f000 81f1 	beq.w	8002604 <HAL_ADCEx_InjectedConfigChannel+0x418>
 8002222:	6803      	ldr	r3, [r0, #0]
 8002224:	4aab      	ldr	r2, [pc, #684]	; (80024d4 <HAL_ADCEx_InjectedConfigChannel+0x2e8>)
 8002226:	4293      	cmp	r3, r2
 8002228:	f107 37ff 	add.w	r7, r7, #4294967295
 800222c:	f000 81e2 	beq.w	80025f4 <HAL_ADCEx_InjectedConfigChannel+0x408>
 8002230:	f502 7280 	add.w	r2, r2, #256	; 0x100
 8002234:	4293      	cmp	r3, r2
 8002236:	f000 81dd 	beq.w	80025f4 <HAL_ADCEx_InjectedConfigChannel+0x408>
 800223a:	6a4a      	ldr	r2, [r1, #36]	; 0x24
 800223c:	433a      	orrs	r2, r7
 800223e:	432a      	orrs	r2, r5
 8002240:	684d      	ldr	r5, [r1, #4]
 8002242:	680e      	ldr	r6, [r1, #0]
 8002244:	64c7      	str	r7, [r0, #76]	; 0x4c
 8002246:	eb05 0545 	add.w	r5, r5, r5, lsl #1
 800224a:	006d      	lsls	r5, r5, #1
 800224c:	3502      	adds	r5, #2
 800224e:	271f      	movs	r7, #31
 8002250:	40ae      	lsls	r6, r5
 8002252:	fa07 f505 	lsl.w	r5, r7, r5
 8002256:	ea22 0205 	bic.w	r2, r2, r5
 800225a:	4332      	orrs	r2, r6
 800225c:	6482      	str	r2, [r0, #72]	; 0x48
 800225e:	f04f 0c00 	mov.w	ip, #0
 8002262:	e00a      	b.n	800227a <HAL_ADCEx_InjectedConfigChannel+0x8e>
 8002264:	684b      	ldr	r3, [r1, #4]
 8002266:	2b01      	cmp	r3, #1
 8002268:	f000 80e5 	beq.w	8002436 <HAL_ADCEx_InjectedConfigChannel+0x24a>
 800226c:	6c02      	ldr	r2, [r0, #64]	; 0x40
 800226e:	6803      	ldr	r3, [r0, #0]
 8002270:	f042 0220 	orr.w	r2, r2, #32
 8002274:	6402      	str	r2, [r0, #64]	; 0x40
 8002276:	f04f 0c01 	mov.w	ip, #1
 800227a:	689a      	ldr	r2, [r3, #8]
 800227c:	0712      	lsls	r2, r2, #28
 800227e:	d40d      	bmi.n	800229c <HAL_ADCEx_InjectedConfigChannel+0xb0>
 8002280:	7f4a      	ldrb	r2, [r1, #29]
 8002282:	2a00      	cmp	r2, #0
 8002284:	f040 80c0 	bne.w	8002408 <HAL_ADCEx_InjectedConfigChannel+0x21c>
 8002288:	7f0a      	ldrb	r2, [r1, #28]
 800228a:	68dd      	ldr	r5, [r3, #12]
 800228c:	7f8e      	ldrb	r6, [r1, #30]
 800228e:	0512      	lsls	r2, r2, #20
 8002290:	f425 1540 	bic.w	r5, r5, #3145728	; 0x300000
 8002294:	ea42 5246 	orr.w	r2, r2, r6, lsl #21
 8002298:	432a      	orrs	r2, r5
 800229a:	60da      	str	r2, [r3, #12]
 800229c:	689a      	ldr	r2, [r3, #8]
 800229e:	f012 0f0c 	tst.w	r2, #12
 80022a2:	d13a      	bne.n	800231a <HAL_ADCEx_InjectedConfigChannel+0x12e>
 80022a4:	6a0a      	ldr	r2, [r1, #32]
 80022a6:	2a01      	cmp	r2, #1
 80022a8:	68da      	ldr	r2, [r3, #12]
 80022aa:	f022 7200 	bic.w	r2, r2, #33554432	; 0x2000000
 80022ae:	f000 814f 	beq.w	8002550 <HAL_ADCEx_InjectedConfigChannel+0x364>
 80022b2:	60da      	str	r2, [r3, #12]
 80022b4:	7f4a      	ldrb	r2, [r1, #29]
 80022b6:	2a01      	cmp	r2, #1
 80022b8:	f000 812c 	beq.w	8002514 <HAL_ADCEx_InjectedConfigChannel+0x328>
 80022bc:	680e      	ldr	r6, [r1, #0]
 80022be:	2e09      	cmp	r6, #9
 80022c0:	f240 8094 	bls.w	80023ec <HAL_ADCEx_InjectedConfigChannel+0x200>
 80022c4:	688d      	ldr	r5, [r1, #8]
 80022c6:	699a      	ldr	r2, [r3, #24]
 80022c8:	eb06 0e46 	add.w	lr, r6, r6, lsl #1
 80022cc:	f1ae 0e1e 	sub.w	lr, lr, #30
 80022d0:	2707      	movs	r7, #7
 80022d2:	fa05 f50e 	lsl.w	r5, r5, lr
 80022d6:	fa07 fe0e 	lsl.w	lr, r7, lr
 80022da:	ea22 020e 	bic.w	r2, r2, lr
 80022de:	432a      	orrs	r2, r5
 80022e0:	619a      	str	r2, [r3, #24]
 80022e2:	68da      	ldr	r2, [r3, #12]
 80022e4:	690d      	ldr	r5, [r1, #16]
 80022e6:	f3c2 0ec1 	ubfx	lr, r2, #3, #2
 80022ea:	694a      	ldr	r2, [r1, #20]
 80022ec:	ea4f 0e4e 	mov.w	lr, lr, lsl #1
 80022f0:	3d01      	subs	r5, #1
 80022f2:	fa02 f20e 	lsl.w	r2, r2, lr
 80022f6:	2d03      	cmp	r5, #3
 80022f8:	f200 8190 	bhi.w	800261c <HAL_ADCEx_InjectedConfigChannel+0x430>
 80022fc:	e8df f015 	tbh	[pc, r5, lsl #1]
 8002300:	01000004 	.word	0x01000004
 8002304:	00e000f6 	.word	0x00e000f6
 8002308:	ea42 6286 	orr.w	r2, r2, r6, lsl #26
 800230c:	4d72      	ldr	r5, [pc, #456]	; (80024d8 <HAL_ADCEx_InjectedConfigChannel+0x2ec>)
 800230e:	6e1e      	ldr	r6, [r3, #96]	; 0x60
 8002310:	4035      	ands	r5, r6
 8002312:	432a      	orrs	r2, r5
 8002314:	f042 4200 	orr.w	r2, r2, #2147483648	; 0x80000000
 8002318:	661a      	str	r2, [r3, #96]	; 0x60
 800231a:	689a      	ldr	r2, [r3, #8]
 800231c:	f002 0203 	and.w	r2, r2, #3
 8002320:	2a01      	cmp	r2, #1
 8002322:	d041      	beq.n	80023a8 <HAL_ADCEx_InjectedConfigChannel+0x1bc>
 8002324:	2c01      	cmp	r4, #1
 8002326:	680a      	ldr	r2, [r1, #0]
 8002328:	d044      	beq.n	80023b4 <HAL_ADCEx_InjectedConfigChannel+0x1c8>
 800232a:	f8d3 10b0 	ldr.w	r1, [r3, #176]	; 0xb0
 800232e:	2401      	movs	r4, #1
 8002330:	4094      	lsls	r4, r2
 8002332:	ea21 0104 	bic.w	r1, r1, r4
 8002336:	f8c3 10b0 	str.w	r1, [r3, #176]	; 0xb0
 800233a:	f1b3 4fa0 	cmp.w	r3, #1342177280	; 0x50000000
 800233e:	d02c      	beq.n	800239a <HAL_ADCEx_InjectedConfigChannel+0x1ae>
 8002340:	4966      	ldr	r1, [pc, #408]	; (80024dc <HAL_ADCEx_InjectedConfigChannel+0x2f0>)
 8002342:	428b      	cmp	r3, r1
 8002344:	d029      	beq.n	800239a <HAL_ADCEx_InjectedConfigChannel+0x1ae>
 8002346:	2a10      	cmp	r2, #16
 8002348:	4965      	ldr	r1, [pc, #404]	; (80024e0 <HAL_ADCEx_InjectedConfigChannel+0x2f4>)
 800234a:	d029      	beq.n	80023a0 <HAL_ADCEx_InjectedConfigChannel+0x1b4>
 800234c:	2a11      	cmp	r2, #17
 800234e:	d16c      	bne.n	800242a <HAL_ADCEx_InjectedConfigChannel+0x23e>
 8002350:	688c      	ldr	r4, [r1, #8]
 8002352:	01e5      	lsls	r5, r4, #7
 8002354:	d41b      	bmi.n	800238e <HAL_ADCEx_InjectedConfigChannel+0x1a2>
 8002356:	f1b3 4fa0 	cmp.w	r3, #1342177280	; 0x50000000
 800235a:	f000 8103 	beq.w	8002564 <HAL_ADCEx_InjectedConfigChannel+0x378>
 800235e:	4c5f      	ldr	r4, [pc, #380]	; (80024dc <HAL_ADCEx_InjectedConfigChannel+0x2f0>)
 8002360:	42a3      	cmp	r3, r4
 8002362:	f000 80dd 	beq.w	8002520 <HAL_ADCEx_InjectedConfigChannel+0x334>
 8002366:	4d5b      	ldr	r5, [pc, #364]	; (80024d4 <HAL_ADCEx_InjectedConfigChannel+0x2e8>)
 8002368:	42ab      	cmp	r3, r5
 800236a:	f000 814f 	beq.w	800260c <HAL_ADCEx_InjectedConfigChannel+0x420>
 800236e:	f504 6480 	add.w	r4, r4, #1024	; 0x400
 8002372:	42a3      	cmp	r3, r4
 8002374:	f000 80d6 	beq.w	8002524 <HAL_ADCEx_InjectedConfigChannel+0x338>
 8002378:	689c      	ldr	r4, [r3, #8]
 800237a:	f004 0403 	and.w	r4, r4, #3
 800237e:	2c01      	cmp	r4, #1
 8002380:	f000 8132 	beq.w	80025e8 <HAL_ADCEx_InjectedConfigChannel+0x3fc>
 8002384:	2a10      	cmp	r2, #16
 8002386:	d002      	beq.n	800238e <HAL_ADCEx_InjectedConfigChannel+0x1a2>
 8002388:	2a11      	cmp	r2, #17
 800238a:	f040 80d9 	bne.w	8002540 <HAL_ADCEx_InjectedConfigChannel+0x354>
 800238e:	2300      	movs	r3, #0
 8002390:	f880 303c 	strb.w	r3, [r0, #60]	; 0x3c
 8002394:	4660      	mov	r0, ip
 8002396:	b003      	add	sp, #12
 8002398:	bdf0      	pop	{r4, r5, r6, r7, pc}
 800239a:	2a10      	cmp	r2, #16
 800239c:	4951      	ldr	r1, [pc, #324]	; (80024e4 <HAL_ADCEx_InjectedConfigChannel+0x2f8>)
 800239e:	d1d5      	bne.n	800234c <HAL_ADCEx_InjectedConfigChannel+0x160>
 80023a0:	688c      	ldr	r4, [r1, #8]
 80023a2:	0226      	lsls	r6, r4, #8
 80023a4:	d5d7      	bpl.n	8002356 <HAL_ADCEx_InjectedConfigChannel+0x16a>
 80023a6:	e7f2      	b.n	800238e <HAL_ADCEx_InjectedConfigChannel+0x1a2>
 80023a8:	681a      	ldr	r2, [r3, #0]
 80023aa:	07d7      	lsls	r7, r2, #31
 80023ac:	d4ef      	bmi.n	800238e <HAL_ADCEx_InjectedConfigChannel+0x1a2>
 80023ae:	2c01      	cmp	r4, #1
 80023b0:	680a      	ldr	r2, [r1, #0]
 80023b2:	d1ba      	bne.n	800232a <HAL_ADCEx_InjectedConfigChannel+0x13e>
 80023b4:	f8d3 50b0 	ldr.w	r5, [r3, #176]	; 0xb0
 80023b8:	4094      	lsls	r4, r2
 80023ba:	432c      	orrs	r4, r5
 80023bc:	2a09      	cmp	r2, #9
 80023be:	688d      	ldr	r5, [r1, #8]
 80023c0:	f8c3 40b0 	str.w	r4, [r3, #176]	; 0xb0
 80023c4:	d86f      	bhi.n	80024a6 <HAL_ADCEx_InjectedConfigChannel+0x2ba>
 80023c6:	1c54      	adds	r4, r2, #1
 80023c8:	6959      	ldr	r1, [r3, #20]
 80023ca:	eb04 0444 	add.w	r4, r4, r4, lsl #1
 80023ce:	2607      	movs	r6, #7
 80023d0:	40a5      	lsls	r5, r4
 80023d2:	fa06 f404 	lsl.w	r4, r6, r4
 80023d6:	ea21 0104 	bic.w	r1, r1, r4
 80023da:	4329      	orrs	r1, r5
 80023dc:	f1b3 4fa0 	cmp.w	r3, #1342177280	; 0x50000000
 80023e0:	6159      	str	r1, [r3, #20]
 80023e2:	d0d4      	beq.n	800238e <HAL_ADCEx_InjectedConfigChannel+0x1a2>
 80023e4:	493d      	ldr	r1, [pc, #244]	; (80024dc <HAL_ADCEx_InjectedConfigChannel+0x2f0>)
 80023e6:	428b      	cmp	r3, r1
 80023e8:	d1ad      	bne.n	8002346 <HAL_ADCEx_InjectedConfigChannel+0x15a>
 80023ea:	e7d0      	b.n	800238e <HAL_ADCEx_InjectedConfigChannel+0x1a2>
 80023ec:	695a      	ldr	r2, [r3, #20]
 80023ee:	688d      	ldr	r5, [r1, #8]
 80023f0:	eb06 0746 	add.w	r7, r6, r6, lsl #1
 80023f4:	f04f 0e07 	mov.w	lr, #7
 80023f8:	fa0e fe07 	lsl.w	lr, lr, r7
 80023fc:	40bd      	lsls	r5, r7
 80023fe:	ea22 020e 	bic.w	r2, r2, lr
 8002402:	432a      	orrs	r2, r5
 8002404:	615a      	str	r2, [r3, #20]
 8002406:	e76c      	b.n	80022e2 <HAL_ADCEx_InjectedConfigChannel+0xf6>
 8002408:	68da      	ldr	r2, [r3, #12]
 800240a:	7f8d      	ldrb	r5, [r1, #30]
 800240c:	f422 1240 	bic.w	r2, r2, #3145728	; 0x300000
 8002410:	ea42 5245 	orr.w	r2, r2, r5, lsl #21
 8002414:	60da      	str	r2, [r3, #12]
 8002416:	7f0a      	ldrb	r2, [r1, #28]
 8002418:	2a01      	cmp	r2, #1
 800241a:	f47f af3f 	bne.w	800229c <HAL_ADCEx_InjectedConfigChannel+0xb0>
 800241e:	4694      	mov	ip, r2
 8002420:	6c02      	ldr	r2, [r0, #64]	; 0x40
 8002422:	f042 0220 	orr.w	r2, r2, #32
 8002426:	6402      	str	r2, [r0, #64]	; 0x40
 8002428:	e738      	b.n	800229c <HAL_ADCEx_InjectedConfigChannel+0xb0>
 800242a:	2a12      	cmp	r2, #18
 800242c:	d1af      	bne.n	800238e <HAL_ADCEx_InjectedConfigChannel+0x1a2>
 800242e:	688c      	ldr	r4, [r1, #8]
 8002430:	0264      	lsls	r4, r4, #9
 8002432:	d4ac      	bmi.n	800238e <HAL_ADCEx_InjectedConfigChannel+0x1a2>
 8002434:	e78f      	b.n	8002356 <HAL_ADCEx_InjectedConfigChannel+0x16a>
 8002436:	6a0d      	ldr	r5, [r1, #32]
 8002438:	2d01      	cmp	r5, #1
 800243a:	f000 809f 	beq.w	800257c <HAL_ADCEx_InjectedConfigChannel+0x390>
 800243e:	680b      	ldr	r3, [r1, #0]
 8002440:	4e24      	ldr	r6, [pc, #144]	; (80024d4 <HAL_ADCEx_InjectedConfigChannel+0x2e8>)
 8002442:	021a      	lsls	r2, r3, #8
 8002444:	6803      	ldr	r3, [r0, #0]
 8002446:	42b3      	cmp	r3, r6
 8002448:	f000 809c 	beq.w	8002584 <HAL_ADCEx_InjectedConfigChannel+0x398>
 800244c:	f506 7680 	add.w	r6, r6, #256	; 0x100
 8002450:	42b3      	cmp	r3, r6
 8002452:	f000 8097 	beq.w	8002584 <HAL_ADCEx_InjectedConfigChannel+0x398>
 8002456:	6a4e      	ldr	r6, [r1, #36]	; 0x24
 8002458:	4332      	orrs	r2, r6
 800245a:	432a      	orrs	r2, r5
 800245c:	6cdd      	ldr	r5, [r3, #76]	; 0x4c
 800245e:	4e22      	ldr	r6, [pc, #136]	; (80024e8 <HAL_ADCEx_InjectedConfigChannel+0x2fc>)
 8002460:	4035      	ands	r5, r6
 8002462:	4315      	orrs	r5, r2
 8002464:	64dd      	str	r5, [r3, #76]	; 0x4c
 8002466:	6482      	str	r2, [r0, #72]	; 0x48
 8002468:	f04f 0c00 	mov.w	ip, #0
 800246c:	e705      	b.n	800227a <HAL_ADCEx_InjectedConfigChannel+0x8e>
 800246e:	684b      	ldr	r3, [r1, #4]
 8002470:	6c86      	ldr	r6, [r0, #72]	; 0x48
 8002472:	eb03 0343 	add.w	r3, r3, r3, lsl #1
 8002476:	1e6f      	subs	r7, r5, #1
 8002478:	005b      	lsls	r3, r3, #1
 800247a:	680d      	ldr	r5, [r1, #0]
 800247c:	64c7      	str	r7, [r0, #76]	; 0x4c
 800247e:	3302      	adds	r3, #2
 8002480:	fa05 fc03 	lsl.w	ip, r5, r3
 8002484:	251f      	movs	r5, #31
 8002486:	409d      	lsls	r5, r3
 8002488:	ea26 0505 	bic.w	r5, r6, r5
 800248c:	ea45 050c 	orr.w	r5, r5, ip
 8002490:	6803      	ldr	r3, [r0, #0]
 8002492:	6485      	str	r5, [r0, #72]	; 0x48
 8002494:	2f00      	cmp	r7, #0
 8002496:	d1e7      	bne.n	8002468 <HAL_ADCEx_InjectedConfigChannel+0x27c>
 8002498:	6cda      	ldr	r2, [r3, #76]	; 0x4c
 800249a:	4e13      	ldr	r6, [pc, #76]	; (80024e8 <HAL_ADCEx_InjectedConfigChannel+0x2fc>)
 800249c:	4032      	ands	r2, r6
 800249e:	4315      	orrs	r5, r2
 80024a0:	46bc      	mov	ip, r7
 80024a2:	64dd      	str	r5, [r3, #76]	; 0x4c
 80024a4:	e6e9      	b.n	800227a <HAL_ADCEx_InjectedConfigChannel+0x8e>
 80024a6:	eb02 0442 	add.w	r4, r2, r2, lsl #1
 80024aa:	6999      	ldr	r1, [r3, #24]
 80024ac:	3c1b      	subs	r4, #27
 80024ae:	2607      	movs	r6, #7
 80024b0:	40a5      	lsls	r5, r4
 80024b2:	fa06 f404 	lsl.w	r4, r6, r4
 80024b6:	ea21 0104 	bic.w	r1, r1, r4
 80024ba:	4329      	orrs	r1, r5
 80024bc:	6199      	str	r1, [r3, #24]
 80024be:	e73c      	b.n	800233a <HAL_ADCEx_InjectedConfigChannel+0x14e>
 80024c0:	ea42 6286 	orr.w	r2, r2, r6, lsl #26
 80024c4:	4d04      	ldr	r5, [pc, #16]	; (80024d8 <HAL_ADCEx_InjectedConfigChannel+0x2ec>)
 80024c6:	6ede      	ldr	r6, [r3, #108]	; 0x6c
 80024c8:	4035      	ands	r5, r6
 80024ca:	432a      	orrs	r2, r5
 80024cc:	f042 4200 	orr.w	r2, r2, #2147483648	; 0x80000000
 80024d0:	66da      	str	r2, [r3, #108]	; 0x6c
 80024d2:	e722      	b.n	800231a <HAL_ADCEx_InjectedConfigChannel+0x12e>
 80024d4:	50000400 	.word	0x50000400
 80024d8:	83fff000 	.word	0x83fff000
 80024dc:	50000100 	.word	0x50000100
 80024e0:	50000700 	.word	0x50000700
 80024e4:	50000300 	.word	0x50000300
 80024e8:	82082000 	.word	0x82082000
 80024ec:	ea42 6286 	orr.w	r2, r2, r6, lsl #26
 80024f0:	4d60      	ldr	r5, [pc, #384]	; (8002674 <HAL_ADCEx_InjectedConfigChannel+0x488>)
 80024f2:	6e9e      	ldr	r6, [r3, #104]	; 0x68
 80024f4:	4035      	ands	r5, r6
 80024f6:	432a      	orrs	r2, r5
 80024f8:	f042 4200 	orr.w	r2, r2, #2147483648	; 0x80000000
 80024fc:	669a      	str	r2, [r3, #104]	; 0x68
 80024fe:	e70c      	b.n	800231a <HAL_ADCEx_InjectedConfigChannel+0x12e>
 8002500:	ea42 6286 	orr.w	r2, r2, r6, lsl #26
 8002504:	4d5b      	ldr	r5, [pc, #364]	; (8002674 <HAL_ADCEx_InjectedConfigChannel+0x488>)
 8002506:	6e5e      	ldr	r6, [r3, #100]	; 0x64
 8002508:	4035      	ands	r5, r6
 800250a:	432a      	orrs	r2, r5
 800250c:	f042 4200 	orr.w	r2, r2, #2147483648	; 0x80000000
 8002510:	665a      	str	r2, [r3, #100]	; 0x64
 8002512:	e702      	b.n	800231a <HAL_ADCEx_InjectedConfigChannel+0x12e>
 8002514:	4694      	mov	ip, r2
 8002516:	6c02      	ldr	r2, [r0, #64]	; 0x40
 8002518:	f042 0220 	orr.w	r2, r2, #32
 800251c:	6402      	str	r2, [r0, #64]	; 0x40
 800251e:	e6cd      	b.n	80022bc <HAL_ADCEx_InjectedConfigChannel+0xd0>
 8002520:	f04f 45a0 	mov.w	r5, #1342177280	; 0x50000000
 8002524:	689c      	ldr	r4, [r3, #8]
 8002526:	f004 0403 	and.w	r4, r4, #3
 800252a:	2c01      	cmp	r4, #1
 800252c:	d01c      	beq.n	8002568 <HAL_ADCEx_InjectedConfigChannel+0x37c>
 800252e:	68ac      	ldr	r4, [r5, #8]
 8002530:	f004 0403 	and.w	r4, r4, #3
 8002534:	2c01      	cmp	r4, #1
 8002536:	d02d      	beq.n	8002594 <HAL_ADCEx_InjectedConfigChannel+0x3a8>
 8002538:	2a10      	cmp	r2, #16
 800253a:	d02f      	beq.n	800259c <HAL_ADCEx_InjectedConfigChannel+0x3b0>
 800253c:	2a11      	cmp	r2, #17
 800253e:	d04a      	beq.n	80025d6 <HAL_ADCEx_InjectedConfigChannel+0x3ea>
 8002540:	2a12      	cmp	r2, #18
 8002542:	f47f af24 	bne.w	800238e <HAL_ADCEx_InjectedConfigChannel+0x1a2>
 8002546:	688b      	ldr	r3, [r1, #8]
 8002548:	f443 0380 	orr.w	r3, r3, #4194304	; 0x400000
 800254c:	608b      	str	r3, [r1, #8]
 800254e:	e71e      	b.n	800238e <HAL_ADCEx_InjectedConfigChannel+0x1a2>
 8002550:	7f4d      	ldrb	r5, [r1, #29]
 8002552:	ea42 6245 	orr.w	r2, r2, r5, lsl #25
 8002556:	60da      	str	r2, [r3, #12]
 8002558:	e6b0      	b.n	80022bc <HAL_ADCEx_InjectedConfigChannel+0xd0>
 800255a:	f04f 0c02 	mov.w	ip, #2
 800255e:	4660      	mov	r0, ip
 8002560:	b003      	add	sp, #12
 8002562:	bdf0      	pop	{r4, r5, r6, r7, pc}
 8002564:	4d44      	ldr	r5, [pc, #272]	; (8002678 <HAL_ADCEx_InjectedConfigChannel+0x48c>)
 8002566:	e7dd      	b.n	8002524 <HAL_ADCEx_InjectedConfigChannel+0x338>
 8002568:	681c      	ldr	r4, [r3, #0]
 800256a:	07e6      	lsls	r6, r4, #31
 800256c:	d5df      	bpl.n	800252e <HAL_ADCEx_InjectedConfigChannel+0x342>
 800256e:	6c03      	ldr	r3, [r0, #64]	; 0x40
 8002570:	f043 0320 	orr.w	r3, r3, #32
 8002574:	f04f 0c01 	mov.w	ip, #1
 8002578:	6403      	str	r3, [r0, #64]	; 0x40
 800257a:	e708      	b.n	800238e <HAL_ADCEx_InjectedConfigChannel+0x1a2>
 800257c:	680a      	ldr	r2, [r1, #0]
 800257e:	6803      	ldr	r3, [r0, #0]
 8002580:	0212      	lsls	r2, r2, #8
 8002582:	e76b      	b.n	800245c <HAL_ADCEx_InjectedConfigChannel+0x270>
 8002584:	2d08      	cmp	r5, #8
 8002586:	d033      	beq.n	80025f0 <HAL_ADCEx_InjectedConfigChannel+0x404>
 8002588:	2d14      	cmp	r5, #20
 800258a:	d043      	beq.n	8002614 <HAL_ADCEx_InjectedConfigChannel+0x428>
 800258c:	2d1c      	cmp	r5, #28
 800258e:	bf08      	it	eq
 8002590:	2510      	moveq	r5, #16
 8002592:	e760      	b.n	8002456 <HAL_ADCEx_InjectedConfigChannel+0x26a>
 8002594:	682c      	ldr	r4, [r5, #0]
 8002596:	07e4      	lsls	r4, r4, #31
 8002598:	d4e9      	bmi.n	800256e <HAL_ADCEx_InjectedConfigChannel+0x382>
 800259a:	e7cd      	b.n	8002538 <HAL_ADCEx_InjectedConfigChannel+0x34c>
 800259c:	f1b3 4fa0 	cmp.w	r3, #1342177280	; 0x50000000
 80025a0:	f47f aef5 	bne.w	800238e <HAL_ADCEx_InjectedConfigChannel+0x1a2>
 80025a4:	4b35      	ldr	r3, [pc, #212]	; (800267c <HAL_ADCEx_InjectedConfigChannel+0x490>)
 80025a6:	4c36      	ldr	r4, [pc, #216]	; (8002680 <HAL_ADCEx_InjectedConfigChannel+0x494>)
 80025a8:	681b      	ldr	r3, [r3, #0]
 80025aa:	688a      	ldr	r2, [r1, #8]
 80025ac:	fba4 4303 	umull	r4, r3, r4, r3
 80025b0:	0c9b      	lsrs	r3, r3, #18
 80025b2:	eb03 0383 	add.w	r3, r3, r3, lsl #2
 80025b6:	005b      	lsls	r3, r3, #1
 80025b8:	f442 0200 	orr.w	r2, r2, #8388608	; 0x800000
 80025bc:	608a      	str	r2, [r1, #8]
 80025be:	9301      	str	r3, [sp, #4]
 80025c0:	9b01      	ldr	r3, [sp, #4]
 80025c2:	2b00      	cmp	r3, #0
 80025c4:	f43f aee3 	beq.w	800238e <HAL_ADCEx_InjectedConfigChannel+0x1a2>
 80025c8:	9b01      	ldr	r3, [sp, #4]
 80025ca:	3b01      	subs	r3, #1
 80025cc:	9301      	str	r3, [sp, #4]
 80025ce:	9b01      	ldr	r3, [sp, #4]
 80025d0:	2b00      	cmp	r3, #0
 80025d2:	d1f9      	bne.n	80025c8 <HAL_ADCEx_InjectedConfigChannel+0x3dc>
 80025d4:	e6db      	b.n	800238e <HAL_ADCEx_InjectedConfigChannel+0x1a2>
 80025d6:	f1b3 4fa0 	cmp.w	r3, #1342177280	; 0x50000000
 80025da:	f47f aed8 	bne.w	800238e <HAL_ADCEx_InjectedConfigChannel+0x1a2>
 80025de:	688b      	ldr	r3, [r1, #8]
 80025e0:	f043 7380 	orr.w	r3, r3, #16777216	; 0x1000000
 80025e4:	608b      	str	r3, [r1, #8]
 80025e6:	e6d2      	b.n	800238e <HAL_ADCEx_InjectedConfigChannel+0x1a2>
 80025e8:	681b      	ldr	r3, [r3, #0]
 80025ea:	07df      	lsls	r7, r3, #31
 80025ec:	d4bf      	bmi.n	800256e <HAL_ADCEx_InjectedConfigChannel+0x382>
 80025ee:	e6c9      	b.n	8002384 <HAL_ADCEx_InjectedConfigChannel+0x198>
 80025f0:	2534      	movs	r5, #52	; 0x34
 80025f2:	e730      	b.n	8002456 <HAL_ADCEx_InjectedConfigChannel+0x26a>
 80025f4:	2d08      	cmp	r5, #8
 80025f6:	d00b      	beq.n	8002610 <HAL_ADCEx_InjectedConfigChannel+0x424>
 80025f8:	2d14      	cmp	r5, #20
 80025fa:	d00d      	beq.n	8002618 <HAL_ADCEx_InjectedConfigChannel+0x42c>
 80025fc:	2d1c      	cmp	r5, #28
 80025fe:	bf08      	it	eq
 8002600:	2510      	moveq	r5, #16
 8002602:	e61a      	b.n	800223a <HAL_ADCEx_InjectedConfigChannel+0x4e>
 8002604:	1e7a      	subs	r2, r7, #1
 8002606:	6803      	ldr	r3, [r0, #0]
 8002608:	4617      	mov	r7, r2
 800260a:	e619      	b.n	8002240 <HAL_ADCEx_InjectedConfigChannel+0x54>
 800260c:	4d1d      	ldr	r5, [pc, #116]	; (8002684 <HAL_ADCEx_InjectedConfigChannel+0x498>)
 800260e:	e789      	b.n	8002524 <HAL_ADCEx_InjectedConfigChannel+0x338>
 8002610:	2534      	movs	r5, #52	; 0x34
 8002612:	e612      	b.n	800223a <HAL_ADCEx_InjectedConfigChannel+0x4e>
 8002614:	251c      	movs	r5, #28
 8002616:	e71e      	b.n	8002456 <HAL_ADCEx_InjectedConfigChannel+0x26a>
 8002618:	251c      	movs	r5, #28
 800261a:	e60e      	b.n	800223a <HAL_ADCEx_InjectedConfigChannel+0x4e>
 800261c:	6e1a      	ldr	r2, [r3, #96]	; 0x60
 800261e:	f002 42f8 	and.w	r2, r2, #2080374784	; 0x7c000000
 8002622:	ebb2 6f86 	cmp.w	r2, r6, lsl #26
 8002626:	ea4f 6586 	mov.w	r5, r6, lsl #26
 800262a:	d014      	beq.n	8002656 <HAL_ADCEx_InjectedConfigChannel+0x46a>
 800262c:	6e5a      	ldr	r2, [r3, #100]	; 0x64
 800262e:	f002 42f8 	and.w	r2, r2, #2080374784	; 0x7c000000
 8002632:	4295      	cmp	r5, r2
 8002634:	d014      	beq.n	8002660 <HAL_ADCEx_InjectedConfigChannel+0x474>
 8002636:	6e9a      	ldr	r2, [r3, #104]	; 0x68
 8002638:	f002 42f8 	and.w	r2, r2, #2080374784	; 0x7c000000
 800263c:	4295      	cmp	r5, r2
 800263e:	d014      	beq.n	800266a <HAL_ADCEx_InjectedConfigChannel+0x47e>
 8002640:	6eda      	ldr	r2, [r3, #108]	; 0x6c
 8002642:	f002 42f8 	and.w	r2, r2, #2080374784	; 0x7c000000
 8002646:	4295      	cmp	r5, r2
 8002648:	f47f ae67 	bne.w	800231a <HAL_ADCEx_InjectedConfigChannel+0x12e>
 800264c:	6eda      	ldr	r2, [r3, #108]	; 0x6c
 800264e:	f022 4200 	bic.w	r2, r2, #2147483648	; 0x80000000
 8002652:	66da      	str	r2, [r3, #108]	; 0x6c
 8002654:	e661      	b.n	800231a <HAL_ADCEx_InjectedConfigChannel+0x12e>
 8002656:	6e1a      	ldr	r2, [r3, #96]	; 0x60
 8002658:	f022 4200 	bic.w	r2, r2, #2147483648	; 0x80000000
 800265c:	661a      	str	r2, [r3, #96]	; 0x60
 800265e:	e7e5      	b.n	800262c <HAL_ADCEx_InjectedConfigChannel+0x440>
 8002660:	6e5a      	ldr	r2, [r3, #100]	; 0x64
 8002662:	f022 4200 	bic.w	r2, r2, #2147483648	; 0x80000000
 8002666:	665a      	str	r2, [r3, #100]	; 0x64
 8002668:	e7e5      	b.n	8002636 <HAL_ADCEx_InjectedConfigChannel+0x44a>
 800266a:	6e9a      	ldr	r2, [r3, #104]	; 0x68
 800266c:	f022 4200 	bic.w	r2, r2, #2147483648	; 0x80000000
 8002670:	669a      	str	r2, [r3, #104]	; 0x68
 8002672:	e7e5      	b.n	8002640 <HAL_ADCEx_InjectedConfigChannel+0x454>
 8002674:	83fff000 	.word	0x83fff000
 8002678:	50000100 	.word	0x50000100
 800267c:	20000000 	.word	0x20000000
 8002680:	431bde83 	.word	0x431bde83
 8002684:	50000500 	.word	0x50000500

08002688 <HAL_ADCEx_MultiModeConfigChannel>:
 8002688:	6803      	ldr	r3, [r0, #0]
 800268a:	4a45      	ldr	r2, [pc, #276]	; (80027a0 <HAL_ADCEx_MultiModeConfigChannel+0x118>)
 800268c:	f1b3 4fa0 	cmp.w	r3, #1342177280	; 0x50000000
 8002690:	b4f0      	push	{r4, r5, r6, r7}
 8002692:	680d      	ldr	r5, [r1, #0]
 8002694:	d00e      	beq.n	80026b4 <HAL_ADCEx_MultiModeConfigChannel+0x2c>
 8002696:	4293      	cmp	r3, r2
 8002698:	d00a      	beq.n	80026b0 <HAL_ADCEx_MultiModeConfigChannel+0x28>
 800269a:	f502 7240 	add.w	r2, r2, #768	; 0x300
 800269e:	4293      	cmp	r3, r2
 80026a0:	d04b      	beq.n	800273a <HAL_ADCEx_MultiModeConfigChannel+0xb2>
 80026a2:	4c40      	ldr	r4, [pc, #256]	; (80027a4 <HAL_ADCEx_MultiModeConfigChannel+0x11c>)
 80026a4:	42a3      	cmp	r3, r4
 80026a6:	d005      	beq.n	80026b4 <HAL_ADCEx_MultiModeConfigChannel+0x2c>
 80026a8:	2201      	movs	r2, #1
 80026aa:	4610      	mov	r0, r2
 80026ac:	bcf0      	pop	{r4, r5, r6, r7}
 80026ae:	4770      	bx	lr
 80026b0:	f04f 42a0 	mov.w	r2, #1342177280	; 0x50000000
 80026b4:	f890 c03c 	ldrb.w	ip, [r0, #60]	; 0x3c
 80026b8:	f1bc 0f01 	cmp.w	ip, #1
 80026bc:	d043      	beq.n	8002746 <HAL_ADCEx_MultiModeConfigChannel+0xbe>
 80026be:	2401      	movs	r4, #1
 80026c0:	f880 403c 	strb.w	r4, [r0, #60]	; 0x3c
 80026c4:	689c      	ldr	r4, [r3, #8]
 80026c6:	0766      	lsls	r6, r4, #29
 80026c8:	d50a      	bpl.n	80026e0 <HAL_ADCEx_MultiModeConfigChannel+0x58>
 80026ca:	6c03      	ldr	r3, [r0, #64]	; 0x40
 80026cc:	f043 0320 	orr.w	r3, r3, #32
 80026d0:	2201      	movs	r2, #1
 80026d2:	6403      	str	r3, [r0, #64]	; 0x40
 80026d4:	2300      	movs	r3, #0
 80026d6:	f880 303c 	strb.w	r3, [r0, #60]	; 0x3c
 80026da:	bcf0      	pop	{r4, r5, r6, r7}
 80026dc:	4610      	mov	r0, r2
 80026de:	4770      	bx	lr
 80026e0:	6894      	ldr	r4, [r2, #8]
 80026e2:	0764      	lsls	r4, r4, #29
 80026e4:	d4f1      	bmi.n	80026ca <HAL_ADCEx_MultiModeConfigChannel+0x42>
 80026e6:	f1b3 4fa0 	cmp.w	r3, #1342177280	; 0x50000000
 80026ea:	d046      	beq.n	800277a <HAL_ADCEx_MultiModeConfigChannel+0xf2>
 80026ec:	4f2c      	ldr	r7, [pc, #176]	; (80027a0 <HAL_ADCEx_MultiModeConfigChannel+0x118>)
 80026ee:	4e2e      	ldr	r6, [pc, #184]	; (80027a8 <HAL_ADCEx_MultiModeConfigChannel+0x120>)
 80026f0:	4c2e      	ldr	r4, [pc, #184]	; (80027ac <HAL_ADCEx_MultiModeConfigChannel+0x124>)
 80026f2:	42bb      	cmp	r3, r7
 80026f4:	bf08      	it	eq
 80026f6:	4634      	moveq	r4, r6
 80026f8:	b34d      	cbz	r5, 800274e <HAL_ADCEx_MultiModeConfigChannel+0xc6>
 80026fa:	68a6      	ldr	r6, [r4, #8]
 80026fc:	684f      	ldr	r7, [r1, #4]
 80026fe:	f426 4c60 	bic.w	ip, r6, #57344	; 0xe000
 8002702:	f890 6030 	ldrb.w	r6, [r0, #48]	; 0x30
 8002706:	ea47 3646 	orr.w	r6, r7, r6, lsl #13
 800270a:	ea46 060c 	orr.w	r6, r6, ip
 800270e:	60a6      	str	r6, [r4, #8]
 8002710:	689e      	ldr	r6, [r3, #8]
 8002712:	f006 0603 	and.w	r6, r6, #3
 8002716:	2e01      	cmp	r6, #1
 8002718:	d03d      	beq.n	8002796 <HAL_ADCEx_MultiModeConfigChannel+0x10e>
 800271a:	6893      	ldr	r3, [r2, #8]
 800271c:	f003 0303 	and.w	r3, r3, #3
 8002720:	2b01      	cmp	r3, #1
 8002722:	d030      	beq.n	8002786 <HAL_ADCEx_MultiModeConfigChannel+0xfe>
 8002724:	68a2      	ldr	r2, [r4, #8]
 8002726:	688b      	ldr	r3, [r1, #8]
 8002728:	f422 6271 	bic.w	r2, r2, #3856	; 0xf10
 800272c:	431d      	orrs	r5, r3
 800272e:	f022 020f 	bic.w	r2, r2, #15
 8002732:	4315      	orrs	r5, r2
 8002734:	60a5      	str	r5, [r4, #8]
 8002736:	2200      	movs	r2, #0
 8002738:	e7cc      	b.n	80026d4 <HAL_ADCEx_MultiModeConfigChannel+0x4c>
 800273a:	f890 c03c 	ldrb.w	ip, [r0, #60]	; 0x3c
 800273e:	4a19      	ldr	r2, [pc, #100]	; (80027a4 <HAL_ADCEx_MultiModeConfigChannel+0x11c>)
 8002740:	f1bc 0f01 	cmp.w	ip, #1
 8002744:	d1bb      	bne.n	80026be <HAL_ADCEx_MultiModeConfigChannel+0x36>
 8002746:	2202      	movs	r2, #2
 8002748:	4610      	mov	r0, r2
 800274a:	bcf0      	pop	{r4, r5, r6, r7}
 800274c:	4770      	bx	lr
 800274e:	68a1      	ldr	r1, [r4, #8]
 8002750:	f421 4160 	bic.w	r1, r1, #57344	; 0xe000
 8002754:	60a1      	str	r1, [r4, #8]
 8002756:	6899      	ldr	r1, [r3, #8]
 8002758:	f001 0103 	and.w	r1, r1, #3
 800275c:	2901      	cmp	r1, #1
 800275e:	d016      	beq.n	800278e <HAL_ADCEx_MultiModeConfigChannel+0x106>
 8002760:	6893      	ldr	r3, [r2, #8]
 8002762:	f003 0303 	and.w	r3, r3, #3
 8002766:	2b01      	cmp	r3, #1
 8002768:	d009      	beq.n	800277e <HAL_ADCEx_MultiModeConfigChannel+0xf6>
 800276a:	68a3      	ldr	r3, [r4, #8]
 800276c:	f423 6371 	bic.w	r3, r3, #3856	; 0xf10
 8002770:	f023 030f 	bic.w	r3, r3, #15
 8002774:	2200      	movs	r2, #0
 8002776:	60a3      	str	r3, [r4, #8]
 8002778:	e7ac      	b.n	80026d4 <HAL_ADCEx_MultiModeConfigChannel+0x4c>
 800277a:	4c0b      	ldr	r4, [pc, #44]	; (80027a8 <HAL_ADCEx_MultiModeConfigChannel+0x120>)
 800277c:	e7bc      	b.n	80026f8 <HAL_ADCEx_MultiModeConfigChannel+0x70>
 800277e:	6813      	ldr	r3, [r2, #0]
 8002780:	07db      	lsls	r3, r3, #31
 8002782:	d4d8      	bmi.n	8002736 <HAL_ADCEx_MultiModeConfigChannel+0xae>
 8002784:	e7f1      	b.n	800276a <HAL_ADCEx_MultiModeConfigChannel+0xe2>
 8002786:	6813      	ldr	r3, [r2, #0]
 8002788:	07de      	lsls	r6, r3, #31
 800278a:	d4d4      	bmi.n	8002736 <HAL_ADCEx_MultiModeConfigChannel+0xae>
 800278c:	e7ca      	b.n	8002724 <HAL_ADCEx_MultiModeConfigChannel+0x9c>
 800278e:	681b      	ldr	r3, [r3, #0]
 8002790:	07d9      	lsls	r1, r3, #31
 8002792:	d4d0      	bmi.n	8002736 <HAL_ADCEx_MultiModeConfigChannel+0xae>
 8002794:	e7e4      	b.n	8002760 <HAL_ADCEx_MultiModeConfigChannel+0xd8>
 8002796:	681b      	ldr	r3, [r3, #0]
 8002798:	07df      	lsls	r7, r3, #31
 800279a:	d5be      	bpl.n	800271a <HAL_ADCEx_MultiModeConfigChannel+0x92>
 800279c:	e7cb      	b.n	8002736 <HAL_ADCEx_MultiModeConfigChannel+0xae>
 800279e:	bf00      	nop
 80027a0:	50000100 	.word	0x50000100
 80027a4:	50000500 	.word	0x50000500
 80027a8:	50000300 	.word	0x50000300
 80027ac:	50000700 	.word	0x50000700

080027b0 <HAL_CAN_Init>:
 80027b0:	2800      	cmp	r0, #0
 80027b2:	d07b      	beq.n	80028ac <HAL_CAN_Init+0xfc>
 80027b4:	b538      	push	{r3, r4, r5, lr}
 80027b6:	f890 3020 	ldrb.w	r3, [r0, #32]
 80027ba:	4604      	mov	r4, r0
 80027bc:	2b00      	cmp	r3, #0
 80027be:	d072      	beq.n	80028a6 <HAL_CAN_Init+0xf6>
 80027c0:	6822      	ldr	r2, [r4, #0]
 80027c2:	6813      	ldr	r3, [r2, #0]
 80027c4:	f043 0301 	orr.w	r3, r3, #1
 80027c8:	6013      	str	r3, [r2, #0]
 80027ca:	f7ff faa7 	bl	8001d1c <HAL_GetTick>
 80027ce:	4605      	mov	r5, r0
 80027d0:	e004      	b.n	80027dc <HAL_CAN_Init+0x2c>
 80027d2:	f7ff faa3 	bl	8001d1c <HAL_GetTick>
 80027d6:	1b43      	subs	r3, r0, r5
 80027d8:	2b0a      	cmp	r3, #10
 80027da:	d85b      	bhi.n	8002894 <HAL_CAN_Init+0xe4>
 80027dc:	6823      	ldr	r3, [r4, #0]
 80027de:	685a      	ldr	r2, [r3, #4]
 80027e0:	07d1      	lsls	r1, r2, #31
 80027e2:	d5f6      	bpl.n	80027d2 <HAL_CAN_Init+0x22>
 80027e4:	681a      	ldr	r2, [r3, #0]
 80027e6:	f022 0202 	bic.w	r2, r2, #2
 80027ea:	601a      	str	r2, [r3, #0]
 80027ec:	f7ff fa96 	bl	8001d1c <HAL_GetTick>
 80027f0:	4605      	mov	r5, r0
 80027f2:	e004      	b.n	80027fe <HAL_CAN_Init+0x4e>
 80027f4:	f7ff fa92 	bl	8001d1c <HAL_GetTick>
 80027f8:	1b40      	subs	r0, r0, r5
 80027fa:	280a      	cmp	r0, #10
 80027fc:	d84a      	bhi.n	8002894 <HAL_CAN_Init+0xe4>
 80027fe:	6823      	ldr	r3, [r4, #0]
 8002800:	685a      	ldr	r2, [r3, #4]
 8002802:	0792      	lsls	r2, r2, #30
 8002804:	d4f6      	bmi.n	80027f4 <HAL_CAN_Init+0x44>
 8002806:	7e22      	ldrb	r2, [r4, #24]
 8002808:	2a01      	cmp	r2, #1
 800280a:	681a      	ldr	r2, [r3, #0]
 800280c:	bf0c      	ite	eq
 800280e:	f042 0280 	orreq.w	r2, r2, #128	; 0x80
 8002812:	f022 0280 	bicne.w	r2, r2, #128	; 0x80
 8002816:	601a      	str	r2, [r3, #0]
 8002818:	7e62      	ldrb	r2, [r4, #25]
 800281a:	2a01      	cmp	r2, #1
 800281c:	681a      	ldr	r2, [r3, #0]
 800281e:	bf0c      	ite	eq
 8002820:	f042 0240 	orreq.w	r2, r2, #64	; 0x40
 8002824:	f022 0240 	bicne.w	r2, r2, #64	; 0x40
 8002828:	601a      	str	r2, [r3, #0]
 800282a:	7ea2      	ldrb	r2, [r4, #26]
 800282c:	2a01      	cmp	r2, #1
 800282e:	681a      	ldr	r2, [r3, #0]
 8002830:	bf0c      	ite	eq
 8002832:	f042 0220 	orreq.w	r2, r2, #32
 8002836:	f022 0220 	bicne.w	r2, r2, #32
 800283a:	601a      	str	r2, [r3, #0]
 800283c:	7ee2      	ldrb	r2, [r4, #27]
 800283e:	2a01      	cmp	r2, #1
 8002840:	681a      	ldr	r2, [r3, #0]
 8002842:	bf0c      	ite	eq
 8002844:	f022 0210 	biceq.w	r2, r2, #16
 8002848:	f042 0210 	orrne.w	r2, r2, #16
 800284c:	601a      	str	r2, [r3, #0]
 800284e:	7f22      	ldrb	r2, [r4, #28]
 8002850:	2a01      	cmp	r2, #1
 8002852:	681a      	ldr	r2, [r3, #0]
 8002854:	bf0c      	ite	eq
 8002856:	f042 0208 	orreq.w	r2, r2, #8
 800285a:	f022 0208 	bicne.w	r2, r2, #8
 800285e:	601a      	str	r2, [r3, #0]
 8002860:	7f62      	ldrb	r2, [r4, #29]
 8002862:	2a01      	cmp	r2, #1
 8002864:	681a      	ldr	r2, [r3, #0]
 8002866:	bf0c      	ite	eq
 8002868:	f042 0204 	orreq.w	r2, r2, #4
 800286c:	f022 0204 	bicne.w	r2, r2, #4
 8002870:	601a      	str	r2, [r3, #0]
 8002872:	e9d4 2002 	ldrd	r2, r0, [r4, #8]
 8002876:	6921      	ldr	r1, [r4, #16]
 8002878:	4302      	orrs	r2, r0
 800287a:	430a      	orrs	r2, r1
 800287c:	6960      	ldr	r0, [r4, #20]
 800287e:	6861      	ldr	r1, [r4, #4]
 8002880:	4302      	orrs	r2, r0
 8002882:	3901      	subs	r1, #1
 8002884:	430a      	orrs	r2, r1
 8002886:	2000      	movs	r0, #0
 8002888:	2101      	movs	r1, #1
 800288a:	61da      	str	r2, [r3, #28]
 800288c:	6260      	str	r0, [r4, #36]	; 0x24
 800288e:	f884 1020 	strb.w	r1, [r4, #32]
 8002892:	bd38      	pop	{r3, r4, r5, pc}
 8002894:	6a63      	ldr	r3, [r4, #36]	; 0x24
 8002896:	2205      	movs	r2, #5
 8002898:	f443 3300 	orr.w	r3, r3, #131072	; 0x20000
 800289c:	6263      	str	r3, [r4, #36]	; 0x24
 800289e:	f884 2020 	strb.w	r2, [r4, #32]
 80028a2:	2001      	movs	r0, #1
 80028a4:	bd38      	pop	{r3, r4, r5, pc}
 80028a6:	f7fe fbbf 	bl	8001028 <HAL_CAN_MspInit>
 80028aa:	e789      	b.n	80027c0 <HAL_CAN_Init+0x10>
 80028ac:	2001      	movs	r0, #1
 80028ae:	4770      	bx	lr

080028b0 <HAL_NVIC_SetPriorityGrouping>:
 80028b0:	4907      	ldr	r1, [pc, #28]	; (80028d0 <HAL_NVIC_SetPriorityGrouping+0x20>)
 80028b2:	68ca      	ldr	r2, [r1, #12]
 80028b4:	0203      	lsls	r3, r0, #8
 80028b6:	f64f 00ff 	movw	r0, #63743	; 0xf8ff
 80028ba:	f403 63e0 	and.w	r3, r3, #1792	; 0x700
 80028be:	4002      	ands	r2, r0
 80028c0:	4313      	orrs	r3, r2
 80028c2:	f043 63bf 	orr.w	r3, r3, #100139008	; 0x5f80000
 80028c6:	f443 3300 	orr.w	r3, r3, #131072	; 0x20000
 80028ca:	60cb      	str	r3, [r1, #12]
 80028cc:	4770      	bx	lr
 80028ce:	bf00      	nop
 80028d0:	e000ed00 	.word	0xe000ed00

080028d4 <HAL_NVIC_SetPriority>:
 80028d4:	4b1c      	ldr	r3, [pc, #112]	; (8002948 <HAL_NVIC_SetPriority+0x74>)
 80028d6:	68db      	ldr	r3, [r3, #12]
 80028d8:	f3c3 2302 	ubfx	r3, r3, #8, #3
 80028dc:	b500      	push	{lr}
 80028de:	f1c3 0e07 	rsb	lr, r3, #7
 80028e2:	f1be 0f04 	cmp.w	lr, #4
 80028e6:	f103 0c04 	add.w	ip, r3, #4
 80028ea:	bf28      	it	cs
 80028ec:	f04f 0e04 	movcs.w	lr, #4
 80028f0:	f1bc 0f06 	cmp.w	ip, #6
 80028f4:	d91b      	bls.n	800292e <HAL_NVIC_SetPriority+0x5a>
 80028f6:	3b03      	subs	r3, #3
 80028f8:	f04f 3cff 	mov.w	ip, #4294967295
 80028fc:	fa0c fc03 	lsl.w	ip, ip, r3
 8002900:	ea22 020c 	bic.w	r2, r2, ip
 8002904:	f04f 3cff 	mov.w	ip, #4294967295
 8002908:	fa0c fc0e 	lsl.w	ip, ip, lr
 800290c:	ea21 010c 	bic.w	r1, r1, ip
 8002910:	4099      	lsls	r1, r3
 8002912:	2800      	cmp	r0, #0
 8002914:	ea41 0102 	orr.w	r1, r1, r2
 8002918:	db0c      	blt.n	8002934 <HAL_NVIC_SetPriority+0x60>
 800291a:	f100 4060 	add.w	r0, r0, #3758096384	; 0xe0000000
 800291e:	0109      	lsls	r1, r1, #4
 8002920:	f500 4061 	add.w	r0, r0, #57600	; 0xe100
 8002924:	b2c9      	uxtb	r1, r1
 8002926:	f880 1300 	strb.w	r1, [r0, #768]	; 0x300
 800292a:	f85d fb04 	ldr.w	pc, [sp], #4
 800292e:	2200      	movs	r2, #0
 8002930:	4613      	mov	r3, r2
 8002932:	e7e7      	b.n	8002904 <HAL_NVIC_SetPriority+0x30>
 8002934:	4b05      	ldr	r3, [pc, #20]	; (800294c <HAL_NVIC_SetPriority+0x78>)
 8002936:	f000 000f 	and.w	r0, r0, #15
 800293a:	0109      	lsls	r1, r1, #4
 800293c:	4403      	add	r3, r0
 800293e:	b2c9      	uxtb	r1, r1
 8002940:	7619      	strb	r1, [r3, #24]
 8002942:	f85d fb04 	ldr.w	pc, [sp], #4
 8002946:	bf00      	nop
 8002948:	e000ed00 	.word	0xe000ed00
 800294c:	e000ecfc 	.word	0xe000ecfc

08002950 <HAL_NVIC_EnableIRQ>:
 8002950:	2800      	cmp	r0, #0
 8002952:	db08      	blt.n	8002966 <HAL_NVIC_EnableIRQ+0x16>
 8002954:	0941      	lsrs	r1, r0, #5
 8002956:	4a04      	ldr	r2, [pc, #16]	; (8002968 <HAL_NVIC_EnableIRQ+0x18>)
 8002958:	f000 001f 	and.w	r0, r0, #31
 800295c:	2301      	movs	r3, #1
 800295e:	fa03 f000 	lsl.w	r0, r3, r0
 8002962:	f842 0021 	str.w	r0, [r2, r1, lsl #2]
 8002966:	4770      	bx	lr
 8002968:	e000e100 	.word	0xe000e100

0800296c <HAL_SYSTICK_Config>:
 800296c:	3801      	subs	r0, #1
 800296e:	f1b0 7f80 	cmp.w	r0, #16777216	; 0x1000000
 8002972:	d210      	bcs.n	8002996 <HAL_SYSTICK_Config+0x2a>
 8002974:	b410      	push	{r4}
 8002976:	f04f 23e0 	mov.w	r3, #3758153728	; 0xe000e000
 800297a:	4c08      	ldr	r4, [pc, #32]	; (800299c <HAL_SYSTICK_Config+0x30>)
 800297c:	6158      	str	r0, [r3, #20]
 800297e:	f04f 0cf0 	mov.w	ip, #240	; 0xf0
 8002982:	f884 c023 	strb.w	ip, [r4, #35]	; 0x23
 8002986:	2200      	movs	r2, #0
 8002988:	2107      	movs	r1, #7
 800298a:	4610      	mov	r0, r2
 800298c:	619a      	str	r2, [r3, #24]
 800298e:	f85d 4b04 	ldr.w	r4, [sp], #4
 8002992:	6119      	str	r1, [r3, #16]
 8002994:	4770      	bx	lr
 8002996:	2001      	movs	r0, #1
 8002998:	4770      	bx	lr
 800299a:	bf00      	nop
 800299c:	e000ed00 	.word	0xe000ed00

080029a0 <HAL_DMA_Init>:
 80029a0:	2800      	cmp	r0, #0
 80029a2:	d035      	beq.n	8002a10 <HAL_DMA_Init+0x70>
 80029a4:	e9d0 3201 	ldrd	r3, r2, [r0, #4]
 80029a8:	b410      	push	{r4}
 80029aa:	68c4      	ldr	r4, [r0, #12]
 80029ac:	6801      	ldr	r1, [r0, #0]
 80029ae:	4313      	orrs	r3, r2
 80029b0:	6902      	ldr	r2, [r0, #16]
 80029b2:	4323      	orrs	r3, r4
 80029b4:	4313      	orrs	r3, r2
 80029b6:	e9d0 4205 	ldrd	r4, r2, [r0, #20]
 80029ba:	4323      	orrs	r3, r4
 80029bc:	4313      	orrs	r3, r2
 80029be:	69c2      	ldr	r2, [r0, #28]
 80029c0:	4c14      	ldr	r4, [pc, #80]	; (8002a14 <HAL_DMA_Init+0x74>)
 80029c2:	4313      	orrs	r3, r2
 80029c4:	680a      	ldr	r2, [r1, #0]
 80029c6:	f422 527f 	bic.w	r2, r2, #16320	; 0x3fc0
 80029ca:	f022 0230 	bic.w	r2, r2, #48	; 0x30
 80029ce:	4313      	orrs	r3, r2
 80029d0:	42a1      	cmp	r1, r4
 80029d2:	600b      	str	r3, [r1, #0]
 80029d4:	d912      	bls.n	80029fc <HAL_DMA_Init+0x5c>
 80029d6:	4b10      	ldr	r3, [pc, #64]	; (8002a18 <HAL_DMA_Init+0x78>)
 80029d8:	4a10      	ldr	r2, [pc, #64]	; (8002a1c <HAL_DMA_Init+0x7c>)
 80029da:	4c11      	ldr	r4, [pc, #68]	; (8002a20 <HAL_DMA_Init+0x80>)
 80029dc:	440b      	add	r3, r1
 80029de:	fba2 2303 	umull	r2, r3, r2, r3
 80029e2:	091b      	lsrs	r3, r3, #4
 80029e4:	009b      	lsls	r3, r3, #2
 80029e6:	f44f 7180 	mov.w	r1, #256	; 0x100
 80029ea:	2200      	movs	r2, #0
 80029ec:	8401      	strh	r1, [r0, #32]
 80029ee:	e9c0 430f 	strd	r4, r3, [r0, #60]	; 0x3c
 80029f2:	6382      	str	r2, [r0, #56]	; 0x38
 80029f4:	f85d 4b04 	ldr.w	r4, [sp], #4
 80029f8:	4610      	mov	r0, r2
 80029fa:	4770      	bx	lr
 80029fc:	4b09      	ldr	r3, [pc, #36]	; (8002a24 <HAL_DMA_Init+0x84>)
 80029fe:	4a07      	ldr	r2, [pc, #28]	; (8002a1c <HAL_DMA_Init+0x7c>)
 8002a00:	440b      	add	r3, r1
 8002a02:	fba2 2303 	umull	r2, r3, r2, r3
 8002a06:	091b      	lsrs	r3, r3, #4
 8002a08:	f2a4 4407 	subw	r4, r4, #1031	; 0x407
 8002a0c:	009b      	lsls	r3, r3, #2
 8002a0e:	e7ea      	b.n	80029e6 <HAL_DMA_Init+0x46>
 8002a10:	2001      	movs	r0, #1
 8002a12:	4770      	bx	lr
 8002a14:	40020407 	.word	0x40020407
 8002a18:	bffdfbf8 	.word	0xbffdfbf8
 8002a1c:	cccccccd 	.word	0xcccccccd
 8002a20:	40020400 	.word	0x40020400
 8002a24:	bffdfff8 	.word	0xbffdfff8

08002a28 <HAL_DMA_IRQHandler>:
 8002a28:	b470      	push	{r4, r5, r6}
 8002a2a:	6bc6      	ldr	r6, [r0, #60]	; 0x3c
 8002a2c:	6c02      	ldr	r2, [r0, #64]	; 0x40
 8002a2e:	6831      	ldr	r1, [r6, #0]
 8002a30:	6804      	ldr	r4, [r0, #0]
 8002a32:	2304      	movs	r3, #4
 8002a34:	4093      	lsls	r3, r2
 8002a36:	420b      	tst	r3, r1
 8002a38:	6825      	ldr	r5, [r4, #0]
 8002a3a:	d00e      	beq.n	8002a5a <HAL_DMA_IRQHandler+0x32>
 8002a3c:	f015 0f04 	tst.w	r5, #4
 8002a40:	d00b      	beq.n	8002a5a <HAL_DMA_IRQHandler+0x32>
 8002a42:	6822      	ldr	r2, [r4, #0]
 8002a44:	0692      	lsls	r2, r2, #26
 8002a46:	d403      	bmi.n	8002a50 <HAL_DMA_IRQHandler+0x28>
 8002a48:	6822      	ldr	r2, [r4, #0]
 8002a4a:	f022 0204 	bic.w	r2, r2, #4
 8002a4e:	6022      	str	r2, [r4, #0]
 8002a50:	6ac2      	ldr	r2, [r0, #44]	; 0x2c
 8002a52:	6073      	str	r3, [r6, #4]
 8002a54:	b1ca      	cbz	r2, 8002a8a <HAL_DMA_IRQHandler+0x62>
 8002a56:	bc70      	pop	{r4, r5, r6}
 8002a58:	4710      	bx	r2
 8002a5a:	2302      	movs	r3, #2
 8002a5c:	4093      	lsls	r3, r2
 8002a5e:	420b      	tst	r3, r1
 8002a60:	d015      	beq.n	8002a8e <HAL_DMA_IRQHandler+0x66>
 8002a62:	f015 0f02 	tst.w	r5, #2
 8002a66:	d012      	beq.n	8002a8e <HAL_DMA_IRQHandler+0x66>
 8002a68:	6822      	ldr	r2, [r4, #0]
 8002a6a:	0692      	lsls	r2, r2, #26
 8002a6c:	d406      	bmi.n	8002a7c <HAL_DMA_IRQHandler+0x54>
 8002a6e:	6822      	ldr	r2, [r4, #0]
 8002a70:	f022 020a 	bic.w	r2, r2, #10
 8002a74:	6022      	str	r2, [r4, #0]
 8002a76:	2201      	movs	r2, #1
 8002a78:	f880 2021 	strb.w	r2, [r0, #33]	; 0x21
 8002a7c:	6a82      	ldr	r2, [r0, #40]	; 0x28
 8002a7e:	6073      	str	r3, [r6, #4]
 8002a80:	2100      	movs	r1, #0
 8002a82:	f880 1020 	strb.w	r1, [r0, #32]
 8002a86:	2a00      	cmp	r2, #0
 8002a88:	d1e5      	bne.n	8002a56 <HAL_DMA_IRQHandler+0x2e>
 8002a8a:	bc70      	pop	{r4, r5, r6}
 8002a8c:	4770      	bx	lr
 8002a8e:	2308      	movs	r3, #8
 8002a90:	4093      	lsls	r3, r2
 8002a92:	420b      	tst	r3, r1
 8002a94:	d0f9      	beq.n	8002a8a <HAL_DMA_IRQHandler+0x62>
 8002a96:	072b      	lsls	r3, r5, #28
 8002a98:	d5f7      	bpl.n	8002a8a <HAL_DMA_IRQHandler+0x62>
 8002a9a:	6823      	ldr	r3, [r4, #0]
 8002a9c:	6b01      	ldr	r1, [r0, #48]	; 0x30
 8002a9e:	f023 030e 	bic.w	r3, r3, #14
 8002aa2:	6023      	str	r3, [r4, #0]
 8002aa4:	2301      	movs	r3, #1
 8002aa6:	fa03 f202 	lsl.w	r2, r3, r2
 8002aaa:	f44f 7480 	mov.w	r4, #256	; 0x100
 8002aae:	6072      	str	r2, [r6, #4]
 8002ab0:	8404      	strh	r4, [r0, #32]
 8002ab2:	6383      	str	r3, [r0, #56]	; 0x38
 8002ab4:	2900      	cmp	r1, #0
 8002ab6:	d0e8      	beq.n	8002a8a <HAL_DMA_IRQHandler+0x62>
 8002ab8:	bc70      	pop	{r4, r5, r6}
 8002aba:	4708      	bx	r1

08002abc <HAL_GPIO_Init>:
 8002abc:	e92d 4ff0 	stmdb	sp!, {r4, r5, r6, r7, r8, r9, sl, fp, lr}
 8002ac0:	680c      	ldr	r4, [r1, #0]
 8002ac2:	b085      	sub	sp, #20
 8002ac4:	2c00      	cmp	r4, #0
 8002ac6:	d07e      	beq.n	8002bc6 <HAL_GPIO_Init+0x10a>
 8002ac8:	f04f 0c00 	mov.w	ip, #0
 8002acc:	f8df a1bc 	ldr.w	sl, [pc, #444]	; 8002c8c <HAL_GPIO_Init+0x1d0>
 8002ad0:	4663      	mov	r3, ip
 8002ad2:	f04f 0b01 	mov.w	fp, #1
 8002ad6:	4689      	mov	r9, r1
 8002ad8:	fa0b f503 	lsl.w	r5, fp, r3
 8002adc:	ea15 0804 	ands.w	r8, r5, r4
 8002ae0:	d06b      	beq.n	8002bba <HAL_GPIO_Init+0xfe>
 8002ae2:	f8d9 7004 	ldr.w	r7, [r9, #4]
 8002ae6:	f007 0203 	and.w	r2, r7, #3
 8002aea:	1e51      	subs	r1, r2, #1
 8002aec:	2901      	cmp	r1, #1
 8002aee:	d96d      	bls.n	8002bcc <HAL_GPIO_Init+0x110>
 8002af0:	2a03      	cmp	r2, #3
 8002af2:	f040 80ac 	bne.w	8002c4e <HAL_GPIO_Init+0x192>
 8002af6:	fa02 f20c 	lsl.w	r2, r2, ip
 8002afa:	43d1      	mvns	r1, r2
 8002afc:	6805      	ldr	r5, [r0, #0]
 8002afe:	4029      	ands	r1, r5
 8002b00:	430a      	orrs	r2, r1
 8002b02:	f417 3f40 	tst.w	r7, #196608	; 0x30000
 8002b06:	6002      	str	r2, [r0, #0]
 8002b08:	d057      	beq.n	8002bba <HAL_GPIO_Init+0xfe>
 8002b0a:	f8da 2018 	ldr.w	r2, [sl, #24]
 8002b0e:	f042 0201 	orr.w	r2, r2, #1
 8002b12:	f8ca 2018 	str.w	r2, [sl, #24]
 8002b16:	f8da 2018 	ldr.w	r2, [sl, #24]
 8002b1a:	f002 0201 	and.w	r2, r2, #1
 8002b1e:	9203      	str	r2, [sp, #12]
 8002b20:	9a03      	ldr	r2, [sp, #12]
 8002b22:	f023 0203 	bic.w	r2, r3, #3
 8002b26:	f102 4280 	add.w	r2, r2, #1073741824	; 0x40000000
 8002b2a:	f502 3280 	add.w	r2, r2, #65536	; 0x10000
 8002b2e:	f003 0103 	and.w	r1, r3, #3
 8002b32:	6895      	ldr	r5, [r2, #8]
 8002b34:	0089      	lsls	r1, r1, #2
 8002b36:	260f      	movs	r6, #15
 8002b38:	fa06 fe01 	lsl.w	lr, r6, r1
 8002b3c:	f1b0 4f90 	cmp.w	r0, #1207959552	; 0x48000000
 8002b40:	ea25 050e 	bic.w	r5, r5, lr
 8002b44:	d015      	beq.n	8002b72 <HAL_GPIO_Init+0xb6>
 8002b46:	4e4c      	ldr	r6, [pc, #304]	; (8002c78 <HAL_GPIO_Init+0x1bc>)
 8002b48:	42b0      	cmp	r0, r6
 8002b4a:	f000 808b 	beq.w	8002c64 <HAL_GPIO_Init+0x1a8>
 8002b4e:	4e4b      	ldr	r6, [pc, #300]	; (8002c7c <HAL_GPIO_Init+0x1c0>)
 8002b50:	42b0      	cmp	r0, r6
 8002b52:	f000 808b 	beq.w	8002c6c <HAL_GPIO_Init+0x1b0>
 8002b56:	4e4a      	ldr	r6, [pc, #296]	; (8002c80 <HAL_GPIO_Init+0x1c4>)
 8002b58:	42b0      	cmp	r0, r6
 8002b5a:	d07d      	beq.n	8002c58 <HAL_GPIO_Init+0x19c>
 8002b5c:	4e49      	ldr	r6, [pc, #292]	; (8002c84 <HAL_GPIO_Init+0x1c8>)
 8002b5e:	42b0      	cmp	r0, r6
 8002b60:	bf0b      	itete	eq
 8002b62:	f04f 0e04 	moveq.w	lr, #4
 8002b66:	2605      	movne	r6, #5
 8002b68:	fa0e f101 	lsleq.w	r1, lr, r1
 8002b6c:	fa06 f101 	lslne.w	r1, r6, r1
 8002b70:	430d      	orrs	r5, r1
 8002b72:	6095      	str	r5, [r2, #8]
 8002b74:	4a44      	ldr	r2, [pc, #272]	; (8002c88 <HAL_GPIO_Init+0x1cc>)
 8002b76:	4944      	ldr	r1, [pc, #272]	; (8002c88 <HAL_GPIO_Init+0x1cc>)
 8002b78:	6812      	ldr	r2, [r2, #0]
 8002b7a:	ea6f 0508 	mvn.w	r5, r8
 8002b7e:	03fe      	lsls	r6, r7, #15
 8002b80:	bf54      	ite	pl
 8002b82:	402a      	andpl	r2, r5
 8002b84:	ea48 0202 	orrmi.w	r2, r8, r2
 8002b88:	600a      	str	r2, [r1, #0]
 8002b8a:	684a      	ldr	r2, [r1, #4]
 8002b8c:	03b9      	lsls	r1, r7, #14
 8002b8e:	493e      	ldr	r1, [pc, #248]	; (8002c88 <HAL_GPIO_Init+0x1cc>)
 8002b90:	bf54      	ite	pl
 8002b92:	402a      	andpl	r2, r5
 8002b94:	ea48 0202 	orrmi.w	r2, r8, r2
 8002b98:	604a      	str	r2, [r1, #4]
 8002b9a:	6889      	ldr	r1, [r1, #8]
 8002b9c:	4a3a      	ldr	r2, [pc, #232]	; (8002c88 <HAL_GPIO_Init+0x1cc>)
 8002b9e:	02fe      	lsls	r6, r7, #11
 8002ba0:	bf54      	ite	pl
 8002ba2:	4029      	andpl	r1, r5
 8002ba4:	ea48 0101 	orrmi.w	r1, r8, r1
 8002ba8:	6091      	str	r1, [r2, #8]
 8002baa:	68d2      	ldr	r2, [r2, #12]
 8002bac:	02b9      	lsls	r1, r7, #10
 8002bae:	4936      	ldr	r1, [pc, #216]	; (8002c88 <HAL_GPIO_Init+0x1cc>)
 8002bb0:	bf54      	ite	pl
 8002bb2:	402a      	andpl	r2, r5
 8002bb4:	ea48 0202 	orrmi.w	r2, r8, r2
 8002bb8:	60ca      	str	r2, [r1, #12]
 8002bba:	3301      	adds	r3, #1
 8002bbc:	fa34 f203 	lsrs.w	r2, r4, r3
 8002bc0:	f10c 0c02 	add.w	ip, ip, #2
 8002bc4:	d188      	bne.n	8002ad8 <HAL_GPIO_Init+0x1c>
 8002bc6:	b005      	add	sp, #20
 8002bc8:	e8bd 8ff0 	ldmia.w	sp!, {r4, r5, r6, r7, r8, r9, sl, fp, pc}
 8002bcc:	6881      	ldr	r1, [r0, #8]
 8002bce:	f8d9 600c 	ldr.w	r6, [r9, #12]
 8002bd2:	f04f 0e03 	mov.w	lr, #3
 8002bd6:	fa0e fe0c 	lsl.w	lr, lr, ip
 8002bda:	ea21 010e 	bic.w	r1, r1, lr
 8002bde:	fa06 f60c 	lsl.w	r6, r6, ip
 8002be2:	4331      	orrs	r1, r6
 8002be4:	6081      	str	r1, [r0, #8]
 8002be6:	ea6f 010e 	mvn.w	r1, lr
 8002bea:	f8d0 e004 	ldr.w	lr, [r0, #4]
 8002bee:	ea2e 0e05 	bic.w	lr, lr, r5
 8002bf2:	f3c7 1500 	ubfx	r5, r7, #4, #1
 8002bf6:	409d      	lsls	r5, r3
 8002bf8:	ea45 050e 	orr.w	r5, r5, lr
 8002bfc:	6045      	str	r5, [r0, #4]
 8002bfe:	68c5      	ldr	r5, [r0, #12]
 8002c00:	ea05 0e01 	and.w	lr, r5, r1
 8002c04:	f8d9 5008 	ldr.w	r5, [r9, #8]
 8002c08:	fa05 f50c 	lsl.w	r5, r5, ip
 8002c0c:	ea45 050e 	orr.w	r5, r5, lr
 8002c10:	2a02      	cmp	r2, #2
 8002c12:	60c5      	str	r5, [r0, #12]
 8002c14:	fa02 f20c 	lsl.w	r2, r2, ip
 8002c18:	f47f af70 	bne.w	8002afc <HAL_GPIO_Init+0x40>
 8002c1c:	08dd      	lsrs	r5, r3, #3
 8002c1e:	eb00 0585 	add.w	r5, r0, r5, lsl #2
 8002c22:	9501      	str	r5, [sp, #4]
 8002c24:	6a2e      	ldr	r6, [r5, #32]
 8002c26:	f8d9 5010 	ldr.w	r5, [r9, #16]
 8002c2a:	9600      	str	r6, [sp, #0]
 8002c2c:	f003 0e07 	and.w	lr, r3, #7
 8002c30:	ea4f 0e8e 	mov.w	lr, lr, lsl #2
 8002c34:	260f      	movs	r6, #15
 8002c36:	fa05 f50e 	lsl.w	r5, r5, lr
 8002c3a:	fa06 fe0e 	lsl.w	lr, r6, lr
 8002c3e:	9e00      	ldr	r6, [sp, #0]
 8002c40:	ea26 0e0e 	bic.w	lr, r6, lr
 8002c44:	9e01      	ldr	r6, [sp, #4]
 8002c46:	ea45 050e 	orr.w	r5, r5, lr
 8002c4a:	6235      	str	r5, [r6, #32]
 8002c4c:	e756      	b.n	8002afc <HAL_GPIO_Init+0x40>
 8002c4e:	2103      	movs	r1, #3
 8002c50:	fa01 f10c 	lsl.w	r1, r1, ip
 8002c54:	43c9      	mvns	r1, r1
 8002c56:	e7d2      	b.n	8002bfe <HAL_GPIO_Init+0x142>
 8002c58:	f04f 0e03 	mov.w	lr, #3
 8002c5c:	fa0e f101 	lsl.w	r1, lr, r1
 8002c60:	430d      	orrs	r5, r1
 8002c62:	e786      	b.n	8002b72 <HAL_GPIO_Init+0xb6>
 8002c64:	fa0b f101 	lsl.w	r1, fp, r1
 8002c68:	430d      	orrs	r5, r1
 8002c6a:	e782      	b.n	8002b72 <HAL_GPIO_Init+0xb6>
 8002c6c:	f04f 0e02 	mov.w	lr, #2
 8002c70:	fa0e f101 	lsl.w	r1, lr, r1
 8002c74:	430d      	orrs	r5, r1
 8002c76:	e77c      	b.n	8002b72 <HAL_GPIO_Init+0xb6>
 8002c78:	48000400 	.word	0x48000400
 8002c7c:	48000800 	.word	0x48000800
 8002c80:	48000c00 	.word	0x48000c00
 8002c84:	48001000 	.word	0x48001000
 8002c88:	40010400 	.word	0x40010400
 8002c8c:	40021000 	.word	0x40021000

08002c90 <HAL_GPIO_WritePin>:
 8002c90:	b10a      	cbz	r2, 8002c96 <HAL_GPIO_WritePin+0x6>
 8002c92:	6181      	str	r1, [r0, #24]
 8002c94:	4770      	bx	lr
 8002c96:	6281      	str	r1, [r0, #40]	; 0x28
 8002c98:	4770      	bx	lr
 8002c9a:	bf00      	nop

08002c9c <HAL_RCC_OscConfig>:
 8002c9c:	2800      	cmp	r0, #0
 8002c9e:	f000 828c 	beq.w	80031ba <HAL_RCC_OscConfig+0x51e>
 8002ca2:	e92d 43f0 	stmdb	sp!, {r4, r5, r6, r7, r8, r9, lr}
 8002ca6:	6803      	ldr	r3, [r0, #0]
 8002ca8:	07d9      	lsls	r1, r3, #31
 8002caa:	b083      	sub	sp, #12
 8002cac:	4604      	mov	r4, r0
 8002cae:	d54f      	bpl.n	8002d50 <HAL_RCC_OscConfig+0xb4>
 8002cb0:	49b4      	ldr	r1, [pc, #720]	; (8002f84 <HAL_RCC_OscConfig+0x2e8>)
 8002cb2:	684a      	ldr	r2, [r1, #4]
 8002cb4:	f002 020c 	and.w	r2, r2, #12
 8002cb8:	2a04      	cmp	r2, #4
 8002cba:	f000 816d 	beq.w	8002f98 <HAL_RCC_OscConfig+0x2fc>
 8002cbe:	684a      	ldr	r2, [r1, #4]
 8002cc0:	f002 020c 	and.w	r2, r2, #12
 8002cc4:	2a08      	cmp	r2, #8
 8002cc6:	f000 8163 	beq.w	8002f90 <HAL_RCC_OscConfig+0x2f4>
 8002cca:	6863      	ldr	r3, [r4, #4]
 8002ccc:	f5b3 3f80 	cmp.w	r3, #65536	; 0x10000
 8002cd0:	d017      	beq.n	8002d02 <HAL_RCC_OscConfig+0x66>
 8002cd2:	2b00      	cmp	r3, #0
 8002cd4:	f000 819c 	beq.w	8003010 <HAL_RCC_OscConfig+0x374>
 8002cd8:	f5b3 2fa0 	cmp.w	r3, #327680	; 0x50000
 8002cdc:	f000 8258 	beq.w	8003190 <HAL_RCC_OscConfig+0x4f4>
 8002ce0:	4ba8      	ldr	r3, [pc, #672]	; (8002f84 <HAL_RCC_OscConfig+0x2e8>)
 8002ce2:	681a      	ldr	r2, [r3, #0]
 8002ce4:	f422 3280 	bic.w	r2, r2, #65536	; 0x10000
 8002ce8:	601a      	str	r2, [r3, #0]
 8002cea:	681a      	ldr	r2, [r3, #0]
 8002cec:	f422 2280 	bic.w	r2, r2, #262144	; 0x40000
 8002cf0:	601a      	str	r2, [r3, #0]
 8002cf2:	4aa4      	ldr	r2, [pc, #656]	; (8002f84 <HAL_RCC_OscConfig+0x2e8>)
 8002cf4:	68a1      	ldr	r1, [r4, #8]
 8002cf6:	6ad3      	ldr	r3, [r2, #44]	; 0x2c
 8002cf8:	f023 030f 	bic.w	r3, r3, #15
 8002cfc:	430b      	orrs	r3, r1
 8002cfe:	62d3      	str	r3, [r2, #44]	; 0x2c
 8002d00:	e00a      	b.n	8002d18 <HAL_RCC_OscConfig+0x7c>
 8002d02:	4aa0      	ldr	r2, [pc, #640]	; (8002f84 <HAL_RCC_OscConfig+0x2e8>)
 8002d04:	6813      	ldr	r3, [r2, #0]
 8002d06:	f443 3380 	orr.w	r3, r3, #65536	; 0x10000
 8002d0a:	6013      	str	r3, [r2, #0]
 8002d0c:	6ad3      	ldr	r3, [r2, #44]	; 0x2c
 8002d0e:	68a1      	ldr	r1, [r4, #8]
 8002d10:	f023 030f 	bic.w	r3, r3, #15
 8002d14:	430b      	orrs	r3, r1
 8002d16:	62d3      	str	r3, [r2, #44]	; 0x2c
 8002d18:	f7ff f800 	bl	8001d1c <HAL_GetTick>
 8002d1c:	4f99      	ldr	r7, [pc, #612]	; (8002f84 <HAL_RCC_OscConfig+0x2e8>)
 8002d1e:	4605      	mov	r5, r0
 8002d20:	f44f 3800 	mov.w	r8, #131072	; 0x20000
 8002d24:	2601      	movs	r6, #1
 8002d26:	e005      	b.n	8002d34 <HAL_RCC_OscConfig+0x98>
 8002d28:	f7fe fff8 	bl	8001d1c <HAL_GetTick>
 8002d2c:	1b40      	subs	r0, r0, r5
 8002d2e:	2864      	cmp	r0, #100	; 0x64
 8002d30:	f200 816a 	bhi.w	8003008 <HAL_RCC_OscConfig+0x36c>
 8002d34:	fa98 f3a8 	rbit	r3, r8
 8002d38:	683a      	ldr	r2, [r7, #0]
 8002d3a:	fa98 f3a8 	rbit	r3, r8
 8002d3e:	fab3 f383 	clz	r3, r3
 8002d42:	f003 031f 	and.w	r3, r3, #31
 8002d46:	fa06 f303 	lsl.w	r3, r6, r3
 8002d4a:	4213      	tst	r3, r2
 8002d4c:	d0ec      	beq.n	8002d28 <HAL_RCC_OscConfig+0x8c>
 8002d4e:	6823      	ldr	r3, [r4, #0]
 8002d50:	079f      	lsls	r7, r3, #30
 8002d52:	d541      	bpl.n	8002dd8 <HAL_RCC_OscConfig+0x13c>
 8002d54:	4a8b      	ldr	r2, [pc, #556]	; (8002f84 <HAL_RCC_OscConfig+0x2e8>)
 8002d56:	6851      	ldr	r1, [r2, #4]
 8002d58:	f011 0f0c 	tst.w	r1, #12
 8002d5c:	f000 80c8 	beq.w	8002ef0 <HAL_RCC_OscConfig+0x254>
 8002d60:	6851      	ldr	r1, [r2, #4]
 8002d62:	f001 010c 	and.w	r1, r1, #12
 8002d66:	2908      	cmp	r1, #8
 8002d68:	f000 80be 	beq.w	8002ee8 <HAL_RCC_OscConfig+0x24c>
 8002d6c:	6922      	ldr	r2, [r4, #16]
 8002d6e:	2a00      	cmp	r2, #0
 8002d70:	f000 81ad 	beq.w	80030ce <HAL_RCC_OscConfig+0x432>
 8002d74:	2501      	movs	r5, #1
 8002d76:	fa95 f3a5 	rbit	r3, r5
 8002d7a:	fab3 f383 	clz	r3, r3
 8002d7e:	f103 5384 	add.w	r3, r3, #276824064	; 0x10800000
 8002d82:	f503 1384 	add.w	r3, r3, #1081344	; 0x108000
 8002d86:	009b      	lsls	r3, r3, #2
 8002d88:	4f7e      	ldr	r7, [pc, #504]	; (8002f84 <HAL_RCC_OscConfig+0x2e8>)
 8002d8a:	601d      	str	r5, [r3, #0]
 8002d8c:	f7fe ffc6 	bl	8001d1c <HAL_GetTick>
 8002d90:	f04f 0802 	mov.w	r8, #2
 8002d94:	4606      	mov	r6, r0
 8002d96:	e005      	b.n	8002da4 <HAL_RCC_OscConfig+0x108>
 8002d98:	f7fe ffc0 	bl	8001d1c <HAL_GetTick>
 8002d9c:	1b80      	subs	r0, r0, r6
 8002d9e:	2802      	cmp	r0, #2
 8002da0:	f200 8132 	bhi.w	8003008 <HAL_RCC_OscConfig+0x36c>
 8002da4:	fa98 f3a8 	rbit	r3, r8
 8002da8:	683a      	ldr	r2, [r7, #0]
 8002daa:	fa98 f3a8 	rbit	r3, r8
 8002dae:	fab3 f383 	clz	r3, r3
 8002db2:	f003 031f 	and.w	r3, r3, #31
 8002db6:	fa05 f303 	lsl.w	r3, r5, r3
 8002dba:	4213      	tst	r3, r2
 8002dbc:	d0ec      	beq.n	8002d98 <HAL_RCC_OscConfig+0xfc>
 8002dbe:	6839      	ldr	r1, [r7, #0]
 8002dc0:	22f8      	movs	r2, #248	; 0xf8
 8002dc2:	fa92 f2a2 	rbit	r2, r2
 8002dc6:	6963      	ldr	r3, [r4, #20]
 8002dc8:	fab2 f282 	clz	r2, r2
 8002dcc:	4093      	lsls	r3, r2
 8002dce:	f021 02f8 	bic.w	r2, r1, #248	; 0xf8
 8002dd2:	4313      	orrs	r3, r2
 8002dd4:	603b      	str	r3, [r7, #0]
 8002dd6:	6823      	ldr	r3, [r4, #0]
 8002dd8:	071d      	lsls	r5, r3, #28
 8002dda:	d421      	bmi.n	8002e20 <HAL_RCC_OscConfig+0x184>
 8002ddc:	0758      	lsls	r0, r3, #29
 8002dde:	d54c      	bpl.n	8002e7a <HAL_RCC_OscConfig+0x1de>
 8002de0:	4b68      	ldr	r3, [pc, #416]	; (8002f84 <HAL_RCC_OscConfig+0x2e8>)
 8002de2:	69da      	ldr	r2, [r3, #28]
 8002de4:	00d1      	lsls	r1, r2, #3
 8002de6:	f140 80c1 	bpl.w	8002f6c <HAL_RCC_OscConfig+0x2d0>
 8002dea:	f04f 0800 	mov.w	r8, #0
 8002dee:	4d66      	ldr	r5, [pc, #408]	; (8002f88 <HAL_RCC_OscConfig+0x2ec>)
 8002df0:	682b      	ldr	r3, [r5, #0]
 8002df2:	05da      	lsls	r2, r3, #23
 8002df4:	f140 80f8 	bpl.w	8002fe8 <HAL_RCC_OscConfig+0x34c>
 8002df8:	68e3      	ldr	r3, [r4, #12]
 8002dfa:	2b01      	cmp	r3, #1
 8002dfc:	f000 818d 	beq.w	800311a <HAL_RCC_OscConfig+0x47e>
 8002e00:	2b00      	cmp	r3, #0
 8002e02:	f000 812e 	beq.w	8003062 <HAL_RCC_OscConfig+0x3c6>
 8002e06:	2b05      	cmp	r3, #5
 8002e08:	4b5e      	ldr	r3, [pc, #376]	; (8002f84 <HAL_RCC_OscConfig+0x2e8>)
 8002e0a:	6a1a      	ldr	r2, [r3, #32]
 8002e0c:	f000 81cd 	beq.w	80031aa <HAL_RCC_OscConfig+0x50e>
 8002e10:	f022 0201 	bic.w	r2, r2, #1
 8002e14:	621a      	str	r2, [r3, #32]
 8002e16:	6a1a      	ldr	r2, [r3, #32]
 8002e18:	f022 0204 	bic.w	r2, r2, #4
 8002e1c:	621a      	str	r2, [r3, #32]
 8002e1e:	e181      	b.n	8003124 <HAL_RCC_OscConfig+0x488>
 8002e20:	69a2      	ldr	r2, [r4, #24]
 8002e22:	2a00      	cmp	r2, #0
 8002e24:	d07b      	beq.n	8002f1e <HAL_RCC_OscConfig+0x282>
 8002e26:	2501      	movs	r5, #1
 8002e28:	fa95 f2a5 	rbit	r2, r5
 8002e2c:	4b57      	ldr	r3, [pc, #348]	; (8002f8c <HAL_RCC_OscConfig+0x2f0>)
 8002e2e:	4f55      	ldr	r7, [pc, #340]	; (8002f84 <HAL_RCC_OscConfig+0x2e8>)
 8002e30:	fab2 f282 	clz	r2, r2
 8002e34:	4413      	add	r3, r2
 8002e36:	009b      	lsls	r3, r3, #2
 8002e38:	f04f 0802 	mov.w	r8, #2
 8002e3c:	601d      	str	r5, [r3, #0]
 8002e3e:	f7fe ff6d 	bl	8001d1c <HAL_GetTick>
 8002e42:	4606      	mov	r6, r0
 8002e44:	e005      	b.n	8002e52 <HAL_RCC_OscConfig+0x1b6>
 8002e46:	f7fe ff69 	bl	8001d1c <HAL_GetTick>
 8002e4a:	1b80      	subs	r0, r0, r6
 8002e4c:	2802      	cmp	r0, #2
 8002e4e:	f200 80db 	bhi.w	8003008 <HAL_RCC_OscConfig+0x36c>
 8002e52:	fa98 f3a8 	rbit	r3, r8
 8002e56:	fa98 f3a8 	rbit	r3, r8
 8002e5a:	fa98 f3a8 	rbit	r3, r8
 8002e5e:	6a7a      	ldr	r2, [r7, #36]	; 0x24
 8002e60:	fa98 f3a8 	rbit	r3, r8
 8002e64:	fab3 f383 	clz	r3, r3
 8002e68:	f003 031f 	and.w	r3, r3, #31
 8002e6c:	fa05 f303 	lsl.w	r3, r5, r3
 8002e70:	4213      	tst	r3, r2
 8002e72:	d0e8      	beq.n	8002e46 <HAL_RCC_OscConfig+0x1aa>
 8002e74:	6823      	ldr	r3, [r4, #0]
 8002e76:	0758      	lsls	r0, r3, #29
 8002e78:	d4b2      	bmi.n	8002de0 <HAL_RCC_OscConfig+0x144>
 8002e7a:	69e0      	ldr	r0, [r4, #28]
 8002e7c:	b380      	cbz	r0, 8002ee0 <HAL_RCC_OscConfig+0x244>
 8002e7e:	4d41      	ldr	r5, [pc, #260]	; (8002f84 <HAL_RCC_OscConfig+0x2e8>)
 8002e80:	686b      	ldr	r3, [r5, #4]
 8002e82:	f003 030c 	and.w	r3, r3, #12
 8002e86:	2b08      	cmp	r3, #8
 8002e88:	f000 8171 	beq.w	800316e <HAL_RCC_OscConfig+0x4d2>
 8002e8c:	2802      	cmp	r0, #2
 8002e8e:	f04f 7380 	mov.w	r3, #16777216	; 0x1000000
 8002e92:	f000 8194 	beq.w	80031be <HAL_RCC_OscConfig+0x522>
 8002e96:	fa93 f3a3 	rbit	r3, r3
 8002e9a:	fab3 f383 	clz	r3, r3
 8002e9e:	f103 5384 	add.w	r3, r3, #276824064	; 0x10800000
 8002ea2:	f503 1384 	add.w	r3, r3, #1081344	; 0x108000
 8002ea6:	009b      	lsls	r3, r3, #2
 8002ea8:	2200      	movs	r2, #0
 8002eaa:	601a      	str	r2, [r3, #0]
 8002eac:	f7fe ff36 	bl	8001d1c <HAL_GetTick>
 8002eb0:	f04f 7700 	mov.w	r7, #33554432	; 0x2000000
 8002eb4:	4604      	mov	r4, r0
 8002eb6:	2601      	movs	r6, #1
 8002eb8:	e005      	b.n	8002ec6 <HAL_RCC_OscConfig+0x22a>
 8002eba:	f7fe ff2f 	bl	8001d1c <HAL_GetTick>
 8002ebe:	1b00      	subs	r0, r0, r4
 8002ec0:	2802      	cmp	r0, #2
 8002ec2:	f200 80a1 	bhi.w	8003008 <HAL_RCC_OscConfig+0x36c>
 8002ec6:	fa97 f3a7 	rbit	r3, r7
 8002eca:	682a      	ldr	r2, [r5, #0]
 8002ecc:	fa97 f3a7 	rbit	r3, r7
 8002ed0:	fab3 f383 	clz	r3, r3
 8002ed4:	f003 031f 	and.w	r3, r3, #31
 8002ed8:	fa06 f303 	lsl.w	r3, r6, r3
 8002edc:	4213      	tst	r3, r2
 8002ede:	d1ec      	bne.n	8002eba <HAL_RCC_OscConfig+0x21e>
 8002ee0:	2000      	movs	r0, #0
 8002ee2:	b003      	add	sp, #12
 8002ee4:	e8bd 83f0 	ldmia.w	sp!, {r4, r5, r6, r7, r8, r9, pc}
 8002ee8:	6852      	ldr	r2, [r2, #4]
 8002eea:	03d6      	lsls	r6, r2, #15
 8002eec:	f53f af3e 	bmi.w	8002d6c <HAL_RCC_OscConfig+0xd0>
 8002ef0:	2202      	movs	r2, #2
 8002ef2:	fa92 f1a2 	rbit	r1, r2
 8002ef6:	4923      	ldr	r1, [pc, #140]	; (8002f84 <HAL_RCC_OscConfig+0x2e8>)
 8002ef8:	6808      	ldr	r0, [r1, #0]
 8002efa:	fa92 f2a2 	rbit	r2, r2
 8002efe:	fab2 f282 	clz	r2, r2
 8002f02:	f002 021f 	and.w	r2, r2, #31
 8002f06:	2101      	movs	r1, #1
 8002f08:	fa01 f202 	lsl.w	r2, r1, r2
 8002f0c:	4202      	tst	r2, r0
 8002f0e:	d05a      	beq.n	8002fc6 <HAL_RCC_OscConfig+0x32a>
 8002f10:	6922      	ldr	r2, [r4, #16]
 8002f12:	428a      	cmp	r2, r1
 8002f14:	d057      	beq.n	8002fc6 <HAL_RCC_OscConfig+0x32a>
 8002f16:	2001      	movs	r0, #1
 8002f18:	b003      	add	sp, #12
 8002f1a:	e8bd 83f0 	ldmia.w	sp!, {r4, r5, r6, r7, r8, r9, pc}
 8002f1e:	2601      	movs	r6, #1
 8002f20:	fa96 f1a6 	rbit	r1, r6
 8002f24:	4b19      	ldr	r3, [pc, #100]	; (8002f8c <HAL_RCC_OscConfig+0x2f0>)
 8002f26:	4f17      	ldr	r7, [pc, #92]	; (8002f84 <HAL_RCC_OscConfig+0x2e8>)
 8002f28:	fab1 f181 	clz	r1, r1
 8002f2c:	440b      	add	r3, r1
 8002f2e:	009b      	lsls	r3, r3, #2
 8002f30:	f04f 0802 	mov.w	r8, #2
 8002f34:	601a      	str	r2, [r3, #0]
 8002f36:	f7fe fef1 	bl	8001d1c <HAL_GetTick>
 8002f3a:	4605      	mov	r5, r0
 8002f3c:	e004      	b.n	8002f48 <HAL_RCC_OscConfig+0x2ac>
 8002f3e:	f7fe feed 	bl	8001d1c <HAL_GetTick>
 8002f42:	1b40      	subs	r0, r0, r5
 8002f44:	2802      	cmp	r0, #2
 8002f46:	d85f      	bhi.n	8003008 <HAL_RCC_OscConfig+0x36c>
 8002f48:	fa98 f3a8 	rbit	r3, r8
 8002f4c:	fa98 f3a8 	rbit	r3, r8
 8002f50:	fa98 f3a8 	rbit	r3, r8
 8002f54:	6a7a      	ldr	r2, [r7, #36]	; 0x24
 8002f56:	fa98 f3a8 	rbit	r3, r8
 8002f5a:	fab3 f383 	clz	r3, r3
 8002f5e:	f003 031f 	and.w	r3, r3, #31
 8002f62:	fa06 f303 	lsl.w	r3, r6, r3
 8002f66:	4213      	tst	r3, r2
 8002f68:	d1e9      	bne.n	8002f3e <HAL_RCC_OscConfig+0x2a2>
 8002f6a:	e783      	b.n	8002e74 <HAL_RCC_OscConfig+0x1d8>
 8002f6c:	69da      	ldr	r2, [r3, #28]
 8002f6e:	f042 5280 	orr.w	r2, r2, #268435456	; 0x10000000
 8002f72:	61da      	str	r2, [r3, #28]
 8002f74:	69db      	ldr	r3, [r3, #28]
 8002f76:	f003 5380 	and.w	r3, r3, #268435456	; 0x10000000
 8002f7a:	9301      	str	r3, [sp, #4]
 8002f7c:	9b01      	ldr	r3, [sp, #4]
 8002f7e:	f04f 0801 	mov.w	r8, #1
 8002f82:	e734      	b.n	8002dee <HAL_RCC_OscConfig+0x152>
 8002f84:	40021000 	.word	0x40021000
 8002f88:	40007000 	.word	0x40007000
 8002f8c:	10908120 	.word	0x10908120
 8002f90:	684a      	ldr	r2, [r1, #4]
 8002f92:	03d2      	lsls	r2, r2, #15
 8002f94:	f57f ae99 	bpl.w	8002cca <HAL_RCC_OscConfig+0x2e>
 8002f98:	f44f 3200 	mov.w	r2, #131072	; 0x20000
 8002f9c:	fa92 f1a2 	rbit	r1, r2
 8002fa0:	49b1      	ldr	r1, [pc, #708]	; (8003268 <HAL_RCC_OscConfig+0x5cc>)
 8002fa2:	6808      	ldr	r0, [r1, #0]
 8002fa4:	fa92 f2a2 	rbit	r2, r2
 8002fa8:	fab2 f282 	clz	r2, r2
 8002fac:	f002 021f 	and.w	r2, r2, #31
 8002fb0:	2101      	movs	r1, #1
 8002fb2:	fa01 f202 	lsl.w	r2, r1, r2
 8002fb6:	4202      	tst	r2, r0
 8002fb8:	f43f aeca 	beq.w	8002d50 <HAL_RCC_OscConfig+0xb4>
 8002fbc:	6862      	ldr	r2, [r4, #4]
 8002fbe:	2a00      	cmp	r2, #0
 8002fc0:	f47f aec6 	bne.w	8002d50 <HAL_RCC_OscConfig+0xb4>
 8002fc4:	e7a7      	b.n	8002f16 <HAL_RCC_OscConfig+0x27a>
 8002fc6:	4da8      	ldr	r5, [pc, #672]	; (8003268 <HAL_RCC_OscConfig+0x5cc>)
 8002fc8:	22f8      	movs	r2, #248	; 0xf8
 8002fca:	6828      	ldr	r0, [r5, #0]
 8002fcc:	fa92 f2a2 	rbit	r2, r2
 8002fd0:	fab2 f182 	clz	r1, r2
 8002fd4:	6962      	ldr	r2, [r4, #20]
 8002fd6:	f020 00f8 	bic.w	r0, r0, #248	; 0xf8
 8002fda:	408a      	lsls	r2, r1
 8002fdc:	4302      	orrs	r2, r0
 8002fde:	602a      	str	r2, [r5, #0]
 8002fe0:	071d      	lsls	r5, r3, #28
 8002fe2:	f57f aefb 	bpl.w	8002ddc <HAL_RCC_OscConfig+0x140>
 8002fe6:	e71b      	b.n	8002e20 <HAL_RCC_OscConfig+0x184>
 8002fe8:	682b      	ldr	r3, [r5, #0]
 8002fea:	f443 7380 	orr.w	r3, r3, #256	; 0x100
 8002fee:	602b      	str	r3, [r5, #0]
 8002ff0:	f7fe fe94 	bl	8001d1c <HAL_GetTick>
 8002ff4:	4606      	mov	r6, r0
 8002ff6:	682b      	ldr	r3, [r5, #0]
 8002ff8:	05db      	lsls	r3, r3, #23
 8002ffa:	f53f aefd 	bmi.w	8002df8 <HAL_RCC_OscConfig+0x15c>
 8002ffe:	f7fe fe8d 	bl	8001d1c <HAL_GetTick>
 8003002:	1b80      	subs	r0, r0, r6
 8003004:	2864      	cmp	r0, #100	; 0x64
 8003006:	d9f6      	bls.n	8002ff6 <HAL_RCC_OscConfig+0x35a>
 8003008:	2003      	movs	r0, #3
 800300a:	b003      	add	sp, #12
 800300c:	e8bd 83f0 	ldmia.w	sp!, {r4, r5, r6, r7, r8, r9, pc}
 8003010:	4d95      	ldr	r5, [pc, #596]	; (8003268 <HAL_RCC_OscConfig+0x5cc>)
 8003012:	682b      	ldr	r3, [r5, #0]
 8003014:	f423 3380 	bic.w	r3, r3, #65536	; 0x10000
 8003018:	602b      	str	r3, [r5, #0]
 800301a:	682b      	ldr	r3, [r5, #0]
 800301c:	f423 2380 	bic.w	r3, r3, #262144	; 0x40000
 8003020:	602b      	str	r3, [r5, #0]
 8003022:	6aeb      	ldr	r3, [r5, #44]	; 0x2c
 8003024:	68a2      	ldr	r2, [r4, #8]
 8003026:	f023 030f 	bic.w	r3, r3, #15
 800302a:	4313      	orrs	r3, r2
 800302c:	62eb      	str	r3, [r5, #44]	; 0x2c
 800302e:	f7fe fe75 	bl	8001d1c <HAL_GetTick>
 8003032:	f44f 3800 	mov.w	r8, #131072	; 0x20000
 8003036:	4606      	mov	r6, r0
 8003038:	2701      	movs	r7, #1
 800303a:	e004      	b.n	8003046 <HAL_RCC_OscConfig+0x3aa>
 800303c:	f7fe fe6e 	bl	8001d1c <HAL_GetTick>
 8003040:	1b80      	subs	r0, r0, r6
 8003042:	2864      	cmp	r0, #100	; 0x64
 8003044:	d8e0      	bhi.n	8003008 <HAL_RCC_OscConfig+0x36c>
 8003046:	fa98 f3a8 	rbit	r3, r8
 800304a:	682a      	ldr	r2, [r5, #0]
 800304c:	fa98 f3a8 	rbit	r3, r8
 8003050:	fab3 f383 	clz	r3, r3
 8003054:	f003 031f 	and.w	r3, r3, #31
 8003058:	fa07 f303 	lsl.w	r3, r7, r3
 800305c:	4213      	tst	r3, r2
 800305e:	d1ed      	bne.n	800303c <HAL_RCC_OscConfig+0x3a0>
 8003060:	e675      	b.n	8002d4e <HAL_RCC_OscConfig+0xb2>
 8003062:	4d81      	ldr	r5, [pc, #516]	; (8003268 <HAL_RCC_OscConfig+0x5cc>)
 8003064:	6a2b      	ldr	r3, [r5, #32]
 8003066:	f023 0301 	bic.w	r3, r3, #1
 800306a:	622b      	str	r3, [r5, #32]
 800306c:	6a2b      	ldr	r3, [r5, #32]
 800306e:	f023 0304 	bic.w	r3, r3, #4
 8003072:	622b      	str	r3, [r5, #32]
 8003074:	f7fe fe52 	bl	8001d1c <HAL_GetTick>
 8003078:	f04f 0902 	mov.w	r9, #2
 800307c:	4606      	mov	r6, r0
 800307e:	2701      	movs	r7, #1
 8003080:	e013      	b.n	80030aa <HAL_RCC_OscConfig+0x40e>
 8003082:	fa99 f3a9 	rbit	r3, r9
 8003086:	6a6a      	ldr	r2, [r5, #36]	; 0x24
 8003088:	fa99 f3a9 	rbit	r3, r9
 800308c:	fab3 f383 	clz	r3, r3
 8003090:	f003 031f 	and.w	r3, r3, #31
 8003094:	fa07 f303 	lsl.w	r3, r7, r3
 8003098:	4213      	tst	r3, r2
 800309a:	d00e      	beq.n	80030ba <HAL_RCC_OscConfig+0x41e>
 800309c:	f7fe fe3e 	bl	8001d1c <HAL_GetTick>
 80030a0:	f241 3388 	movw	r3, #5000	; 0x1388
 80030a4:	1b80      	subs	r0, r0, r6
 80030a6:	4298      	cmp	r0, r3
 80030a8:	d8ae      	bhi.n	8003008 <HAL_RCC_OscConfig+0x36c>
 80030aa:	fa99 f3a9 	rbit	r3, r9
 80030ae:	fa99 f3a9 	rbit	r3, r9
 80030b2:	2b00      	cmp	r3, #0
 80030b4:	d0e5      	beq.n	8003082 <HAL_RCC_OscConfig+0x3e6>
 80030b6:	6a2a      	ldr	r2, [r5, #32]
 80030b8:	e7e6      	b.n	8003088 <HAL_RCC_OscConfig+0x3ec>
 80030ba:	f1b8 0f00 	cmp.w	r8, #0
 80030be:	f43f aedc 	beq.w	8002e7a <HAL_RCC_OscConfig+0x1de>
 80030c2:	4a69      	ldr	r2, [pc, #420]	; (8003268 <HAL_RCC_OscConfig+0x5cc>)
 80030c4:	69d3      	ldr	r3, [r2, #28]
 80030c6:	f023 5380 	bic.w	r3, r3, #268435456	; 0x10000000
 80030ca:	61d3      	str	r3, [r2, #28]
 80030cc:	e6d5      	b.n	8002e7a <HAL_RCC_OscConfig+0x1de>
 80030ce:	2601      	movs	r6, #1
 80030d0:	fa96 f3a6 	rbit	r3, r6
 80030d4:	fab3 f383 	clz	r3, r3
 80030d8:	f103 5384 	add.w	r3, r3, #276824064	; 0x10800000
 80030dc:	f503 1384 	add.w	r3, r3, #1081344	; 0x108000
 80030e0:	009b      	lsls	r3, r3, #2
 80030e2:	4f61      	ldr	r7, [pc, #388]	; (8003268 <HAL_RCC_OscConfig+0x5cc>)
 80030e4:	601a      	str	r2, [r3, #0]
 80030e6:	f7fe fe19 	bl	8001d1c <HAL_GetTick>
 80030ea:	f04f 0802 	mov.w	r8, #2
 80030ee:	4605      	mov	r5, r0
 80030f0:	e004      	b.n	80030fc <HAL_RCC_OscConfig+0x460>
 80030f2:	f7fe fe13 	bl	8001d1c <HAL_GetTick>
 80030f6:	1b40      	subs	r0, r0, r5
 80030f8:	2802      	cmp	r0, #2
 80030fa:	d885      	bhi.n	8003008 <HAL_RCC_OscConfig+0x36c>
 80030fc:	fa98 f3a8 	rbit	r3, r8
 8003100:	683a      	ldr	r2, [r7, #0]
 8003102:	fa98 f3a8 	rbit	r3, r8
 8003106:	fab3 f383 	clz	r3, r3
 800310a:	f003 031f 	and.w	r3, r3, #31
 800310e:	fa06 f303 	lsl.w	r3, r6, r3
 8003112:	4213      	tst	r3, r2
 8003114:	d1ed      	bne.n	80030f2 <HAL_RCC_OscConfig+0x456>
 8003116:	6823      	ldr	r3, [r4, #0]
 8003118:	e65e      	b.n	8002dd8 <HAL_RCC_OscConfig+0x13c>
 800311a:	4a53      	ldr	r2, [pc, #332]	; (8003268 <HAL_RCC_OscConfig+0x5cc>)
 800311c:	6a13      	ldr	r3, [r2, #32]
 800311e:	f043 0301 	orr.w	r3, r3, #1
 8003122:	6213      	str	r3, [r2, #32]
 8003124:	f7fe fdfa 	bl	8001d1c <HAL_GetTick>
 8003128:	4f4f      	ldr	r7, [pc, #316]	; (8003268 <HAL_RCC_OscConfig+0x5cc>)
 800312a:	4605      	mov	r5, r0
 800312c:	f04f 0902 	mov.w	r9, #2
 8003130:	2601      	movs	r6, #1
 8003132:	e014      	b.n	800315e <HAL_RCC_OscConfig+0x4c2>
 8003134:	fa99 f3a9 	rbit	r3, r9
 8003138:	6a7a      	ldr	r2, [r7, #36]	; 0x24
 800313a:	fa99 f3a9 	rbit	r3, r9
 800313e:	fab3 f383 	clz	r3, r3
 8003142:	f003 031f 	and.w	r3, r3, #31
 8003146:	fa06 f303 	lsl.w	r3, r6, r3
 800314a:	4213      	tst	r3, r2
 800314c:	d1b5      	bne.n	80030ba <HAL_RCC_OscConfig+0x41e>
 800314e:	f7fe fde5 	bl	8001d1c <HAL_GetTick>
 8003152:	f241 3388 	movw	r3, #5000	; 0x1388
 8003156:	1b40      	subs	r0, r0, r5
 8003158:	4298      	cmp	r0, r3
 800315a:	f63f af55 	bhi.w	8003008 <HAL_RCC_OscConfig+0x36c>
 800315e:	fa99 f3a9 	rbit	r3, r9
 8003162:	fa99 f3a9 	rbit	r3, r9
 8003166:	2b00      	cmp	r3, #0
 8003168:	d0e4      	beq.n	8003134 <HAL_RCC_OscConfig+0x498>
 800316a:	6a3a      	ldr	r2, [r7, #32]
 800316c:	e7e5      	b.n	800313a <HAL_RCC_OscConfig+0x49e>
 800316e:	2801      	cmp	r0, #1
 8003170:	f43f aeb7 	beq.w	8002ee2 <HAL_RCC_OscConfig+0x246>
 8003174:	686b      	ldr	r3, [r5, #4]
 8003176:	6a22      	ldr	r2, [r4, #32]
 8003178:	f403 3180 	and.w	r1, r3, #65536	; 0x10000
 800317c:	4291      	cmp	r1, r2
 800317e:	f47f aeca 	bne.w	8002f16 <HAL_RCC_OscConfig+0x27a>
 8003182:	6a60      	ldr	r0, [r4, #36]	; 0x24
 8003184:	f403 1370 	and.w	r3, r3, #3932160	; 0x3c0000
 8003188:	1a18      	subs	r0, r3, r0
 800318a:	bf18      	it	ne
 800318c:	2001      	movne	r0, #1
 800318e:	e6a8      	b.n	8002ee2 <HAL_RCC_OscConfig+0x246>
 8003190:	f103 4380 	add.w	r3, r3, #1073741824	; 0x40000000
 8003194:	f5a3 333c 	sub.w	r3, r3, #192512	; 0x2f000
 8003198:	681a      	ldr	r2, [r3, #0]
 800319a:	f442 2280 	orr.w	r2, r2, #262144	; 0x40000
 800319e:	601a      	str	r2, [r3, #0]
 80031a0:	681a      	ldr	r2, [r3, #0]
 80031a2:	f442 3280 	orr.w	r2, r2, #65536	; 0x10000
 80031a6:	601a      	str	r2, [r3, #0]
 80031a8:	e5a3      	b.n	8002cf2 <HAL_RCC_OscConfig+0x56>
 80031aa:	f042 0204 	orr.w	r2, r2, #4
 80031ae:	621a      	str	r2, [r3, #32]
 80031b0:	6a1a      	ldr	r2, [r3, #32]
 80031b2:	f042 0201 	orr.w	r2, r2, #1
 80031b6:	621a      	str	r2, [r3, #32]
 80031b8:	e7b4      	b.n	8003124 <HAL_RCC_OscConfig+0x488>
 80031ba:	2001      	movs	r0, #1
 80031bc:	4770      	bx	lr
 80031be:	fa93 f3a3 	rbit	r3, r3
 80031c2:	fab3 f383 	clz	r3, r3
 80031c6:	f103 5384 	add.w	r3, r3, #276824064	; 0x10800000
 80031ca:	f503 1384 	add.w	r3, r3, #1081344	; 0x108000
 80031ce:	009b      	lsls	r3, r3, #2
 80031d0:	2200      	movs	r2, #0
 80031d2:	601a      	str	r2, [r3, #0]
 80031d4:	f7fe fda2 	bl	8001d1c <HAL_GetTick>
 80031d8:	f04f 7800 	mov.w	r8, #33554432	; 0x2000000
 80031dc:	4606      	mov	r6, r0
 80031de:	2701      	movs	r7, #1
 80031e0:	e005      	b.n	80031ee <HAL_RCC_OscConfig+0x552>
 80031e2:	f7fe fd9b 	bl	8001d1c <HAL_GetTick>
 80031e6:	1b80      	subs	r0, r0, r6
 80031e8:	2802      	cmp	r0, #2
 80031ea:	f63f af0d 	bhi.w	8003008 <HAL_RCC_OscConfig+0x36c>
 80031ee:	fa98 f3a8 	rbit	r3, r8
 80031f2:	682a      	ldr	r2, [r5, #0]
 80031f4:	fa98 f3a8 	rbit	r3, r8
 80031f8:	fab3 f383 	clz	r3, r3
 80031fc:	f003 031f 	and.w	r3, r3, #31
 8003200:	fa07 f303 	lsl.w	r3, r7, r3
 8003204:	4213      	tst	r3, r2
 8003206:	d1ec      	bne.n	80031e2 <HAL_RCC_OscConfig+0x546>
 8003208:	e9d4 1308 	ldrd	r1, r3, [r4, #32]
 800320c:	686a      	ldr	r2, [r5, #4]
 800320e:	430b      	orrs	r3, r1
 8003210:	f422 1274 	bic.w	r2, r2, #3997696	; 0x3d0000
 8003214:	4313      	orrs	r3, r2
 8003216:	606b      	str	r3, [r5, #4]
 8003218:	f04f 7380 	mov.w	r3, #16777216	; 0x1000000
 800321c:	fa93 f3a3 	rbit	r3, r3
 8003220:	fab3 f383 	clz	r3, r3
 8003224:	f103 5384 	add.w	r3, r3, #276824064	; 0x10800000
 8003228:	f503 1384 	add.w	r3, r3, #1081344	; 0x108000
 800322c:	009b      	lsls	r3, r3, #2
 800322e:	4d0e      	ldr	r5, [pc, #56]	; (8003268 <HAL_RCC_OscConfig+0x5cc>)
 8003230:	601f      	str	r7, [r3, #0]
 8003232:	f7fe fd73 	bl	8001d1c <HAL_GetTick>
 8003236:	f04f 7700 	mov.w	r7, #33554432	; 0x2000000
 800323a:	4604      	mov	r4, r0
 800323c:	2601      	movs	r6, #1
 800323e:	e005      	b.n	800324c <HAL_RCC_OscConfig+0x5b0>
 8003240:	f7fe fd6c 	bl	8001d1c <HAL_GetTick>
 8003244:	1b00      	subs	r0, r0, r4
 8003246:	2802      	cmp	r0, #2
 8003248:	f63f aede 	bhi.w	8003008 <HAL_RCC_OscConfig+0x36c>
 800324c:	fa97 f3a7 	rbit	r3, r7
 8003250:	682a      	ldr	r2, [r5, #0]
 8003252:	fa97 f3a7 	rbit	r3, r7
 8003256:	fab3 f383 	clz	r3, r3
 800325a:	f003 031f 	and.w	r3, r3, #31
 800325e:	fa06 f303 	lsl.w	r3, r6, r3
 8003262:	4213      	tst	r3, r2
 8003264:	d0ec      	beq.n	8003240 <HAL_RCC_OscConfig+0x5a4>
 8003266:	e63b      	b.n	8002ee0 <HAL_RCC_OscConfig+0x244>
 8003268:	40021000 	.word	0x40021000

0800326c <HAL_RCC_ClockConfig>:
 800326c:	2800      	cmp	r0, #0
 800326e:	f000 80c8 	beq.w	8003402 <HAL_RCC_ClockConfig+0x196>
 8003272:	4a6f      	ldr	r2, [pc, #444]	; (8003430 <HAL_RCC_ClockConfig+0x1c4>)
 8003274:	6813      	ldr	r3, [r2, #0]
 8003276:	f003 0307 	and.w	r3, r3, #7
 800327a:	428b      	cmp	r3, r1
 800327c:	e92d 41f0 	stmdb	sp!, {r4, r5, r6, r7, r8, lr}
 8003280:	460d      	mov	r5, r1
 8003282:	4604      	mov	r4, r0
 8003284:	d20c      	bcs.n	80032a0 <HAL_RCC_ClockConfig+0x34>
 8003286:	6813      	ldr	r3, [r2, #0]
 8003288:	f023 0307 	bic.w	r3, r3, #7
 800328c:	430b      	orrs	r3, r1
 800328e:	6013      	str	r3, [r2, #0]
 8003290:	6813      	ldr	r3, [r2, #0]
 8003292:	f003 0307 	and.w	r3, r3, #7
 8003296:	428b      	cmp	r3, r1
 8003298:	d002      	beq.n	80032a0 <HAL_RCC_ClockConfig+0x34>
 800329a:	2001      	movs	r0, #1
 800329c:	e8bd 81f0 	ldmia.w	sp!, {r4, r5, r6, r7, r8, pc}
 80032a0:	6823      	ldr	r3, [r4, #0]
 80032a2:	079f      	lsls	r7, r3, #30
 80032a4:	d506      	bpl.n	80032b4 <HAL_RCC_ClockConfig+0x48>
 80032a6:	4963      	ldr	r1, [pc, #396]	; (8003434 <HAL_RCC_ClockConfig+0x1c8>)
 80032a8:	68a0      	ldr	r0, [r4, #8]
 80032aa:	684a      	ldr	r2, [r1, #4]
 80032ac:	f022 02f0 	bic.w	r2, r2, #240	; 0xf0
 80032b0:	4302      	orrs	r2, r0
 80032b2:	604a      	str	r2, [r1, #4]
 80032b4:	07de      	lsls	r6, r3, #31
 80032b6:	d52f      	bpl.n	8003318 <HAL_RCC_ClockConfig+0xac>
 80032b8:	6861      	ldr	r1, [r4, #4]
 80032ba:	2901      	cmp	r1, #1
 80032bc:	f000 80a3 	beq.w	8003406 <HAL_RCC_ClockConfig+0x19a>
 80032c0:	2902      	cmp	r1, #2
 80032c2:	f000 808b 	beq.w	80033dc <HAL_RCC_ClockConfig+0x170>
 80032c6:	2202      	movs	r2, #2
 80032c8:	fa92 f3a2 	rbit	r3, r2
 80032cc:	4b59      	ldr	r3, [pc, #356]	; (8003434 <HAL_RCC_ClockConfig+0x1c8>)
 80032ce:	6818      	ldr	r0, [r3, #0]
 80032d0:	fa92 f2a2 	rbit	r2, r2
 80032d4:	fab2 f282 	clz	r2, r2
 80032d8:	f002 021f 	and.w	r2, r2, #31
 80032dc:	2301      	movs	r3, #1
 80032de:	fa03 f202 	lsl.w	r2, r3, r2
 80032e2:	4202      	tst	r2, r0
 80032e4:	d0d9      	beq.n	800329a <HAL_RCC_ClockConfig+0x2e>
 80032e6:	4e53      	ldr	r6, [pc, #332]	; (8003434 <HAL_RCC_ClockConfig+0x1c8>)
 80032e8:	6873      	ldr	r3, [r6, #4]
 80032ea:	f023 0303 	bic.w	r3, r3, #3
 80032ee:	430b      	orrs	r3, r1
 80032f0:	6073      	str	r3, [r6, #4]
 80032f2:	f7fe fd13 	bl	8001d1c <HAL_GetTick>
 80032f6:	f241 3888 	movw	r8, #5000	; 0x1388
 80032fa:	4607      	mov	r7, r0
 80032fc:	e005      	b.n	800330a <HAL_RCC_ClockConfig+0x9e>
 80032fe:	f7fe fd0d 	bl	8001d1c <HAL_GetTick>
 8003302:	1bc0      	subs	r0, r0, r7
 8003304:	4540      	cmp	r0, r8
 8003306:	f200 8090 	bhi.w	800342a <HAL_RCC_ClockConfig+0x1be>
 800330a:	6873      	ldr	r3, [r6, #4]
 800330c:	6862      	ldr	r2, [r4, #4]
 800330e:	f003 030c 	and.w	r3, r3, #12
 8003312:	ebb3 0f82 	cmp.w	r3, r2, lsl #2
 8003316:	d1f2      	bne.n	80032fe <HAL_RCC_ClockConfig+0x92>
 8003318:	4a45      	ldr	r2, [pc, #276]	; (8003430 <HAL_RCC_ClockConfig+0x1c4>)
 800331a:	6813      	ldr	r3, [r2, #0]
 800331c:	f003 0307 	and.w	r3, r3, #7
 8003320:	42ab      	cmp	r3, r5
 8003322:	d909      	bls.n	8003338 <HAL_RCC_ClockConfig+0xcc>
 8003324:	6813      	ldr	r3, [r2, #0]
 8003326:	f023 0307 	bic.w	r3, r3, #7
 800332a:	432b      	orrs	r3, r5
 800332c:	6013      	str	r3, [r2, #0]
 800332e:	6813      	ldr	r3, [r2, #0]
 8003330:	f003 0307 	and.w	r3, r3, #7
 8003334:	42ab      	cmp	r3, r5
 8003336:	d1b0      	bne.n	800329a <HAL_RCC_ClockConfig+0x2e>
 8003338:	6823      	ldr	r3, [r4, #0]
 800333a:	0758      	lsls	r0, r3, #29
 800333c:	d506      	bpl.n	800334c <HAL_RCC_ClockConfig+0xe0>
 800333e:	493d      	ldr	r1, [pc, #244]	; (8003434 <HAL_RCC_ClockConfig+0x1c8>)
 8003340:	68e0      	ldr	r0, [r4, #12]
 8003342:	684a      	ldr	r2, [r1, #4]
 8003344:	f422 62e0 	bic.w	r2, r2, #1792	; 0x700
 8003348:	4302      	orrs	r2, r0
 800334a:	604a      	str	r2, [r1, #4]
 800334c:	0719      	lsls	r1, r3, #28
 800334e:	d507      	bpl.n	8003360 <HAL_RCC_ClockConfig+0xf4>
 8003350:	4a38      	ldr	r2, [pc, #224]	; (8003434 <HAL_RCC_ClockConfig+0x1c8>)
 8003352:	6921      	ldr	r1, [r4, #16]
 8003354:	6853      	ldr	r3, [r2, #4]
 8003356:	f423 5360 	bic.w	r3, r3, #14336	; 0x3800
 800335a:	ea43 03c1 	orr.w	r3, r3, r1, lsl #3
 800335e:	6053      	str	r3, [r2, #4]
 8003360:	4934      	ldr	r1, [pc, #208]	; (8003434 <HAL_RCC_ClockConfig+0x1c8>)
 8003362:	684a      	ldr	r2, [r1, #4]
 8003364:	f002 030c 	and.w	r3, r2, #12
 8003368:	2b08      	cmp	r3, #8
 800336a:	d017      	beq.n	800339c <HAL_RCC_ClockConfig+0x130>
 800336c:	4932      	ldr	r1, [pc, #200]	; (8003438 <HAL_RCC_ClockConfig+0x1cc>)
 800336e:	4b31      	ldr	r3, [pc, #196]	; (8003434 <HAL_RCC_ClockConfig+0x1c8>)
 8003370:	22f0      	movs	r2, #240	; 0xf0
 8003372:	685b      	ldr	r3, [r3, #4]
 8003374:	fa92 f2a2 	rbit	r2, r2
 8003378:	fab2 f282 	clz	r2, r2
 800337c:	f003 03f0 	and.w	r3, r3, #240	; 0xf0
 8003380:	40d3      	lsrs	r3, r2
 8003382:	4a2e      	ldr	r2, [pc, #184]	; (800343c <HAL_RCC_ClockConfig+0x1d0>)
 8003384:	482e      	ldr	r0, [pc, #184]	; (8003440 <HAL_RCC_ClockConfig+0x1d4>)
 8003386:	5cd3      	ldrb	r3, [r2, r3]
 8003388:	4a2e      	ldr	r2, [pc, #184]	; (8003444 <HAL_RCC_ClockConfig+0x1d8>)
 800338a:	6800      	ldr	r0, [r0, #0]
 800338c:	fa21 f303 	lsr.w	r3, r1, r3
 8003390:	6013      	str	r3, [r2, #0]
 8003392:	f7fe fc81 	bl	8001c98 <HAL_InitTick>
 8003396:	2000      	movs	r0, #0
 8003398:	e8bd 81f0 	ldmia.w	sp!, {r4, r5, r6, r7, r8, pc}
 800339c:	f44f 1370 	mov.w	r3, #3932160	; 0x3c0000
 80033a0:	fa93 f3a3 	rbit	r3, r3
 80033a4:	f402 1070 	and.w	r0, r2, #3932160	; 0x3c0000
 80033a8:	fab3 f383 	clz	r3, r3
 80033ac:	4c26      	ldr	r4, [pc, #152]	; (8003448 <HAL_RCC_ClockConfig+0x1dc>)
 80033ae:	6ac9      	ldr	r1, [r1, #44]	; 0x2c
 80033b0:	fa20 f303 	lsr.w	r3, r0, r3
 80033b4:	200f      	movs	r0, #15
 80033b6:	5ce3      	ldrb	r3, [r4, r3]
 80033b8:	fa90 f0a0 	rbit	r0, r0
 80033bc:	fab0 f080 	clz	r0, r0
 80033c0:	f001 010f 	and.w	r1, r1, #15
 80033c4:	40c1      	lsrs	r1, r0
 80033c6:	4c21      	ldr	r4, [pc, #132]	; (800344c <HAL_RCC_ClockConfig+0x1e0>)
 80033c8:	03d2      	lsls	r2, r2, #15
 80033ca:	5c60      	ldrb	r0, [r4, r1]
 80033cc:	bf4a      	itet	mi
 80033ce:	491a      	ldrmi	r1, [pc, #104]	; (8003438 <HAL_RCC_ClockConfig+0x1cc>)
 80033d0:	491f      	ldrpl	r1, [pc, #124]	; (8003450 <HAL_RCC_ClockConfig+0x1e4>)
 80033d2:	fbb1 f1f0 	udivmi	r1, r1, r0
 80033d6:	fb03 f101 	mul.w	r1, r3, r1
 80033da:	e7c8      	b.n	800336e <HAL_RCC_ClockConfig+0x102>
 80033dc:	f04f 7300 	mov.w	r3, #33554432	; 0x2000000
 80033e0:	fa93 f2a3 	rbit	r2, r3
 80033e4:	4a13      	ldr	r2, [pc, #76]	; (8003434 <HAL_RCC_ClockConfig+0x1c8>)
 80033e6:	6810      	ldr	r0, [r2, #0]
 80033e8:	fa93 f3a3 	rbit	r3, r3
 80033ec:	fab3 f383 	clz	r3, r3
 80033f0:	f003 031f 	and.w	r3, r3, #31
 80033f4:	2201      	movs	r2, #1
 80033f6:	fa02 f303 	lsl.w	r3, r2, r3
 80033fa:	4203      	tst	r3, r0
 80033fc:	f47f af73 	bne.w	80032e6 <HAL_RCC_ClockConfig+0x7a>
 8003400:	e74b      	b.n	800329a <HAL_RCC_ClockConfig+0x2e>
 8003402:	2001      	movs	r0, #1
 8003404:	4770      	bx	lr
 8003406:	f44f 3200 	mov.w	r2, #131072	; 0x20000
 800340a:	fa92 f3a2 	rbit	r3, r2
 800340e:	4b09      	ldr	r3, [pc, #36]	; (8003434 <HAL_RCC_ClockConfig+0x1c8>)
 8003410:	681b      	ldr	r3, [r3, #0]
 8003412:	fa92 f2a2 	rbit	r2, r2
 8003416:	fab2 f282 	clz	r2, r2
 800341a:	f002 021f 	and.w	r2, r2, #31
 800341e:	fa01 f202 	lsl.w	r2, r1, r2
 8003422:	421a      	tst	r2, r3
 8003424:	f47f af5f 	bne.w	80032e6 <HAL_RCC_ClockConfig+0x7a>
 8003428:	e737      	b.n	800329a <HAL_RCC_ClockConfig+0x2e>
 800342a:	2003      	movs	r0, #3
 800342c:	e736      	b.n	800329c <HAL_RCC_ClockConfig+0x30>
 800342e:	bf00      	nop
 8003430:	40022000 	.word	0x40022000
 8003434:	40021000 	.word	0x40021000
 8003438:	007a1200 	.word	0x007a1200
 800343c:	0800772c 	.word	0x0800772c
 8003440:	20000008 	.word	0x20000008
 8003444:	20000000 	.word	0x20000000
 8003448:	08007744 	.word	0x08007744
 800344c:	08007754 	.word	0x08007754
 8003450:	003d0900 	.word	0x003d0900

08003454 <HAL_RCC_GetSysClockFreq>:
 8003454:	4915      	ldr	r1, [pc, #84]	; (80034ac <HAL_RCC_GetSysClockFreq+0x58>)
 8003456:	684b      	ldr	r3, [r1, #4]
 8003458:	f003 020c 	and.w	r2, r3, #12
 800345c:	2a08      	cmp	r2, #8
 800345e:	d001      	beq.n	8003464 <HAL_RCC_GetSysClockFreq+0x10>
 8003460:	4813      	ldr	r0, [pc, #76]	; (80034b0 <HAL_RCC_GetSysClockFreq+0x5c>)
 8003462:	4770      	bx	lr
 8003464:	b410      	push	{r4}
 8003466:	f44f 1270 	mov.w	r2, #3932160	; 0x3c0000
 800346a:	fa92 f2a2 	rbit	r2, r2
 800346e:	fab2 f282 	clz	r2, r2
 8003472:	f403 1070 	and.w	r0, r3, #3932160	; 0x3c0000
 8003476:	4c0f      	ldr	r4, [pc, #60]	; (80034b4 <HAL_RCC_GetSysClockFreq+0x60>)
 8003478:	40d0      	lsrs	r0, r2
 800347a:	6aca      	ldr	r2, [r1, #44]	; 0x2c
 800347c:	5c20      	ldrb	r0, [r4, r0]
 800347e:	210f      	movs	r1, #15
 8003480:	fa91 f1a1 	rbit	r1, r1
 8003484:	03db      	lsls	r3, r3, #15
 8003486:	fab1 f181 	clz	r1, r1
 800348a:	f002 020f 	and.w	r2, r2, #15
 800348e:	4c0a      	ldr	r4, [pc, #40]	; (80034b8 <HAL_RCC_GetSysClockFreq+0x64>)
 8003490:	bf4c      	ite	mi
 8003492:	4b07      	ldrmi	r3, [pc, #28]	; (80034b0 <HAL_RCC_GetSysClockFreq+0x5c>)
 8003494:	4b09      	ldrpl	r3, [pc, #36]	; (80034bc <HAL_RCC_GetSysClockFreq+0x68>)
 8003496:	fa22 f201 	lsr.w	r2, r2, r1
 800349a:	5ca2      	ldrb	r2, [r4, r2]
 800349c:	f85d 4b04 	ldr.w	r4, [sp], #4
 80034a0:	bf48      	it	mi
 80034a2:	fbb3 f3f2 	udivmi	r3, r3, r2
 80034a6:	fb03 f000 	mul.w	r0, r3, r0
 80034aa:	4770      	bx	lr
 80034ac:	40021000 	.word	0x40021000
 80034b0:	007a1200 	.word	0x007a1200
 80034b4:	08007744 	.word	0x08007744
 80034b8:	08007754 	.word	0x08007754
 80034bc:	003d0900 	.word	0x003d0900

080034c0 <HAL_RCC_GetPCLK1Freq>:
 80034c0:	4b08      	ldr	r3, [pc, #32]	; (80034e4 <HAL_RCC_GetPCLK1Freq+0x24>)
 80034c2:	f44f 62e0 	mov.w	r2, #1792	; 0x700
 80034c6:	685b      	ldr	r3, [r3, #4]
 80034c8:	fa92 f2a2 	rbit	r2, r2
 80034cc:	fab2 f282 	clz	r2, r2
 80034d0:	f403 63e0 	and.w	r3, r3, #1792	; 0x700
 80034d4:	4904      	ldr	r1, [pc, #16]	; (80034e8 <HAL_RCC_GetPCLK1Freq+0x28>)
 80034d6:	4805      	ldr	r0, [pc, #20]	; (80034ec <HAL_RCC_GetPCLK1Freq+0x2c>)
 80034d8:	40d3      	lsrs	r3, r2
 80034da:	6800      	ldr	r0, [r0, #0]
 80034dc:	5ccb      	ldrb	r3, [r1, r3]
 80034de:	40d8      	lsrs	r0, r3
 80034e0:	4770      	bx	lr
 80034e2:	bf00      	nop
 80034e4:	40021000 	.word	0x40021000
 80034e8:	0800773c 	.word	0x0800773c
 80034ec:	20000000 	.word	0x20000000

080034f0 <HAL_RCC_GetPCLK2Freq>:
 80034f0:	4b08      	ldr	r3, [pc, #32]	; (8003514 <HAL_RCC_GetPCLK2Freq+0x24>)
 80034f2:	f44f 5260 	mov.w	r2, #14336	; 0x3800
 80034f6:	685b      	ldr	r3, [r3, #4]
 80034f8:	fa92 f2a2 	rbit	r2, r2
 80034fc:	fab2 f282 	clz	r2, r2
 8003500:	f403 5360 	and.w	r3, r3, #14336	; 0x3800
 8003504:	4904      	ldr	r1, [pc, #16]	; (8003518 <HAL_RCC_GetPCLK2Freq+0x28>)
 8003506:	4805      	ldr	r0, [pc, #20]	; (800351c <HAL_RCC_GetPCLK2Freq+0x2c>)
 8003508:	40d3      	lsrs	r3, r2
 800350a:	6800      	ldr	r0, [r0, #0]
 800350c:	5ccb      	ldrb	r3, [r1, r3]
 800350e:	40d8      	lsrs	r0, r3
 8003510:	4770      	bx	lr
 8003512:	bf00      	nop
 8003514:	40021000 	.word	0x40021000
 8003518:	0800773c 	.word	0x0800773c
 800351c:	20000000 	.word	0x20000000

08003520 <HAL_RCCEx_PeriphCLKConfig>:
 8003520:	e92d 43f0 	stmdb	sp!, {r4, r5, r6, r7, r8, r9, lr}
 8003524:	6803      	ldr	r3, [r0, #0]
 8003526:	03dd      	lsls	r5, r3, #15
 8003528:	b083      	sub	sp, #12
 800352a:	4604      	mov	r4, r0
 800352c:	d540      	bpl.n	80035b0 <HAL_RCCEx_PeriphCLKConfig+0x90>
 800352e:	4b84      	ldr	r3, [pc, #528]	; (8003740 <HAL_RCCEx_PeriphCLKConfig+0x220>)
 8003530:	69da      	ldr	r2, [r3, #28]
 8003532:	00d0      	lsls	r0, r2, #3
 8003534:	f140 80ba 	bpl.w	80036ac <HAL_RCCEx_PeriphCLKConfig+0x18c>
 8003538:	4e82      	ldr	r6, [pc, #520]	; (8003744 <HAL_RCCEx_PeriphCLKConfig+0x224>)
 800353a:	6833      	ldr	r3, [r6, #0]
 800353c:	05d9      	lsls	r1, r3, #23
 800353e:	f04f 0500 	mov.w	r5, #0
 8003542:	f140 80c3 	bpl.w	80036cc <HAL_RCCEx_PeriphCLKConfig+0x1ac>
 8003546:	f8df 81f8 	ldr.w	r8, [pc, #504]	; 8003740 <HAL_RCCEx_PeriphCLKConfig+0x220>
 800354a:	f8d8 3020 	ldr.w	r3, [r8, #32]
 800354e:	f413 7340 	ands.w	r3, r3, #768	; 0x300
 8003552:	d020      	beq.n	8003596 <HAL_RCCEx_PeriphCLKConfig+0x76>
 8003554:	6861      	ldr	r1, [r4, #4]
 8003556:	f401 7240 	and.w	r2, r1, #768	; 0x300
 800355a:	429a      	cmp	r2, r3
 800355c:	d01c      	beq.n	8003598 <HAL_RCCEx_PeriphCLKConfig+0x78>
 800355e:	f8d8 1020 	ldr.w	r1, [r8, #32]
 8003562:	f44f 3380 	mov.w	r3, #65536	; 0x10000
 8003566:	f421 7040 	bic.w	r0, r1, #768	; 0x300
 800356a:	fa93 f2a3 	rbit	r2, r3
 800356e:	4f76      	ldr	r7, [pc, #472]	; (8003748 <HAL_RCCEx_PeriphCLKConfig+0x228>)
 8003570:	fab2 f282 	clz	r2, r2
 8003574:	443a      	add	r2, r7
 8003576:	0092      	lsls	r2, r2, #2
 8003578:	2601      	movs	r6, #1
 800357a:	6016      	str	r6, [r2, #0]
 800357c:	fa93 f3a3 	rbit	r3, r3
 8003580:	fab3 f383 	clz	r3, r3
 8003584:	443b      	add	r3, r7
 8003586:	009b      	lsls	r3, r3, #2
 8003588:	2200      	movs	r2, #0
 800358a:	601a      	str	r2, [r3, #0]
 800358c:	07cb      	lsls	r3, r1, #31
 800358e:	f8c8 0020 	str.w	r0, [r8, #32]
 8003592:	f100 80af 	bmi.w	80036f4 <HAL_RCCEx_PeriphCLKConfig+0x1d4>
 8003596:	6861      	ldr	r1, [r4, #4]
 8003598:	4a69      	ldr	r2, [pc, #420]	; (8003740 <HAL_RCCEx_PeriphCLKConfig+0x220>)
 800359a:	6a13      	ldr	r3, [r2, #32]
 800359c:	f423 7340 	bic.w	r3, r3, #768	; 0x300
 80035a0:	430b      	orrs	r3, r1
 80035a2:	6213      	str	r3, [r2, #32]
 80035a4:	b11d      	cbz	r5, 80035ae <HAL_RCCEx_PeriphCLKConfig+0x8e>
 80035a6:	69d3      	ldr	r3, [r2, #28]
 80035a8:	f023 5380 	bic.w	r3, r3, #268435456	; 0x10000000
 80035ac:	61d3      	str	r3, [r2, #28]
 80035ae:	6823      	ldr	r3, [r4, #0]
 80035b0:	07df      	lsls	r7, r3, #31
 80035b2:	d506      	bpl.n	80035c2 <HAL_RCCEx_PeriphCLKConfig+0xa2>
 80035b4:	4962      	ldr	r1, [pc, #392]	; (8003740 <HAL_RCCEx_PeriphCLKConfig+0x220>)
 80035b6:	68a0      	ldr	r0, [r4, #8]
 80035b8:	6b0a      	ldr	r2, [r1, #48]	; 0x30
 80035ba:	f022 0203 	bic.w	r2, r2, #3
 80035be:	4302      	orrs	r2, r0
 80035c0:	630a      	str	r2, [r1, #48]	; 0x30
 80035c2:	079e      	lsls	r6, r3, #30
 80035c4:	d506      	bpl.n	80035d4 <HAL_RCCEx_PeriphCLKConfig+0xb4>
 80035c6:	495e      	ldr	r1, [pc, #376]	; (8003740 <HAL_RCCEx_PeriphCLKConfig+0x220>)
 80035c8:	68e0      	ldr	r0, [r4, #12]
 80035ca:	6b0a      	ldr	r2, [r1, #48]	; 0x30
 80035cc:	f422 3240 	bic.w	r2, r2, #196608	; 0x30000
 80035d0:	4302      	orrs	r2, r0
 80035d2:	630a      	str	r2, [r1, #48]	; 0x30
 80035d4:	075d      	lsls	r5, r3, #29
 80035d6:	d506      	bpl.n	80035e6 <HAL_RCCEx_PeriphCLKConfig+0xc6>
 80035d8:	4959      	ldr	r1, [pc, #356]	; (8003740 <HAL_RCCEx_PeriphCLKConfig+0x220>)
 80035da:	6920      	ldr	r0, [r4, #16]
 80035dc:	6b0a      	ldr	r2, [r1, #48]	; 0x30
 80035de:	f422 2240 	bic.w	r2, r2, #786432	; 0xc0000
 80035e2:	4302      	orrs	r2, r0
 80035e4:	630a      	str	r2, [r1, #48]	; 0x30
 80035e6:	0698      	lsls	r0, r3, #26
 80035e8:	d506      	bpl.n	80035f8 <HAL_RCCEx_PeriphCLKConfig+0xd8>
 80035ea:	4955      	ldr	r1, [pc, #340]	; (8003740 <HAL_RCCEx_PeriphCLKConfig+0x220>)
 80035ec:	69e0      	ldr	r0, [r4, #28]
 80035ee:	6b0a      	ldr	r2, [r1, #48]	; 0x30
 80035f0:	f022 0210 	bic.w	r2, r2, #16
 80035f4:	4302      	orrs	r2, r0
 80035f6:	630a      	str	r2, [r1, #48]	; 0x30
 80035f8:	0399      	lsls	r1, r3, #14
 80035fa:	d506      	bpl.n	800360a <HAL_RCCEx_PeriphCLKConfig+0xea>
 80035fc:	4950      	ldr	r1, [pc, #320]	; (8003740 <HAL_RCCEx_PeriphCLKConfig+0x220>)
 80035fe:	6ba0      	ldr	r0, [r4, #56]	; 0x38
 8003600:	684a      	ldr	r2, [r1, #4]
 8003602:	f422 0280 	bic.w	r2, r2, #4194304	; 0x400000
 8003606:	4302      	orrs	r2, r0
 8003608:	604a      	str	r2, [r1, #4]
 800360a:	065a      	lsls	r2, r3, #25
 800360c:	d506      	bpl.n	800361c <HAL_RCCEx_PeriphCLKConfig+0xfc>
 800360e:	494c      	ldr	r1, [pc, #304]	; (8003740 <HAL_RCCEx_PeriphCLKConfig+0x220>)
 8003610:	6a20      	ldr	r0, [r4, #32]
 8003612:	6b0a      	ldr	r2, [r1, #48]	; 0x30
 8003614:	f022 0220 	bic.w	r2, r2, #32
 8003618:	4302      	orrs	r2, r0
 800361a:	630a      	str	r2, [r1, #48]	; 0x30
 800361c:	071f      	lsls	r7, r3, #28
 800361e:	d506      	bpl.n	800362e <HAL_RCCEx_PeriphCLKConfig+0x10e>
 8003620:	4947      	ldr	r1, [pc, #284]	; (8003740 <HAL_RCCEx_PeriphCLKConfig+0x220>)
 8003622:	6960      	ldr	r0, [r4, #20]
 8003624:	6b0a      	ldr	r2, [r1, #48]	; 0x30
 8003626:	f422 1240 	bic.w	r2, r2, #3145728	; 0x300000
 800362a:	4302      	orrs	r2, r0
 800362c:	630a      	str	r2, [r1, #48]	; 0x30
 800362e:	06de      	lsls	r6, r3, #27
 8003630:	d506      	bpl.n	8003640 <HAL_RCCEx_PeriphCLKConfig+0x120>
 8003632:	4943      	ldr	r1, [pc, #268]	; (8003740 <HAL_RCCEx_PeriphCLKConfig+0x220>)
 8003634:	69a0      	ldr	r0, [r4, #24]
 8003636:	6b0a      	ldr	r2, [r1, #48]	; 0x30
 8003638:	f422 0240 	bic.w	r2, r2, #12582912	; 0xc00000
 800363c:	4302      	orrs	r2, r0
 800363e:	630a      	str	r2, [r1, #48]	; 0x30
 8003640:	059d      	lsls	r5, r3, #22
 8003642:	d506      	bpl.n	8003652 <HAL_RCCEx_PeriphCLKConfig+0x132>
 8003644:	493e      	ldr	r1, [pc, #248]	; (8003740 <HAL_RCCEx_PeriphCLKConfig+0x220>)
 8003646:	6ae0      	ldr	r0, [r4, #44]	; 0x2c
 8003648:	684a      	ldr	r2, [r1, #4]
 800364a:	f422 0200 	bic.w	r2, r2, #8388608	; 0x800000
 800364e:	4302      	orrs	r2, r0
 8003650:	604a      	str	r2, [r1, #4]
 8003652:	0618      	lsls	r0, r3, #24
 8003654:	d506      	bpl.n	8003664 <HAL_RCCEx_PeriphCLKConfig+0x144>
 8003656:	493a      	ldr	r1, [pc, #232]	; (8003740 <HAL_RCCEx_PeriphCLKConfig+0x220>)
 8003658:	6a60      	ldr	r0, [r4, #36]	; 0x24
 800365a:	6aca      	ldr	r2, [r1, #44]	; 0x2c
 800365c:	f422 72f8 	bic.w	r2, r2, #496	; 0x1f0
 8003660:	4302      	orrs	r2, r0
 8003662:	62ca      	str	r2, [r1, #44]	; 0x2c
 8003664:	05d9      	lsls	r1, r3, #23
 8003666:	d506      	bpl.n	8003676 <HAL_RCCEx_PeriphCLKConfig+0x156>
 8003668:	4935      	ldr	r1, [pc, #212]	; (8003740 <HAL_RCCEx_PeriphCLKConfig+0x220>)
 800366a:	6aa0      	ldr	r0, [r4, #40]	; 0x28
 800366c:	6aca      	ldr	r2, [r1, #44]	; 0x2c
 800366e:	f422 5278 	bic.w	r2, r2, #15872	; 0x3e00
 8003672:	4302      	orrs	r2, r0
 8003674:	62ca      	str	r2, [r1, #44]	; 0x2c
 8003676:	04da      	lsls	r2, r3, #19
 8003678:	d506      	bpl.n	8003688 <HAL_RCCEx_PeriphCLKConfig+0x168>
 800367a:	4931      	ldr	r1, [pc, #196]	; (8003740 <HAL_RCCEx_PeriphCLKConfig+0x220>)
 800367c:	6b20      	ldr	r0, [r4, #48]	; 0x30
 800367e:	6b0a      	ldr	r2, [r1, #48]	; 0x30
 8003680:	f422 7280 	bic.w	r2, r2, #256	; 0x100
 8003684:	4302      	orrs	r2, r0
 8003686:	630a      	str	r2, [r1, #48]	; 0x30
 8003688:	f413 5300 	ands.w	r3, r3, #8192	; 0x2000
 800368c:	d103      	bne.n	8003696 <HAL_RCCEx_PeriphCLKConfig+0x176>
 800368e:	4618      	mov	r0, r3
 8003690:	b003      	add	sp, #12
 8003692:	e8bd 83f0 	ldmia.w	sp!, {r4, r5, r6, r7, r8, r9, pc}
 8003696:	4a2a      	ldr	r2, [pc, #168]	; (8003740 <HAL_RCCEx_PeriphCLKConfig+0x220>)
 8003698:	6b61      	ldr	r1, [r4, #52]	; 0x34
 800369a:	6b13      	ldr	r3, [r2, #48]	; 0x30
 800369c:	f423 7300 	bic.w	r3, r3, #512	; 0x200
 80036a0:	2000      	movs	r0, #0
 80036a2:	430b      	orrs	r3, r1
 80036a4:	6313      	str	r3, [r2, #48]	; 0x30
 80036a6:	b003      	add	sp, #12
 80036a8:	e8bd 83f0 	ldmia.w	sp!, {r4, r5, r6, r7, r8, r9, pc}
 80036ac:	69da      	ldr	r2, [r3, #28]
 80036ae:	4e25      	ldr	r6, [pc, #148]	; (8003744 <HAL_RCCEx_PeriphCLKConfig+0x224>)
 80036b0:	f042 5280 	orr.w	r2, r2, #268435456	; 0x10000000
 80036b4:	61da      	str	r2, [r3, #28]
 80036b6:	69db      	ldr	r3, [r3, #28]
 80036b8:	f003 5380 	and.w	r3, r3, #268435456	; 0x10000000
 80036bc:	9301      	str	r3, [sp, #4]
 80036be:	9b01      	ldr	r3, [sp, #4]
 80036c0:	6833      	ldr	r3, [r6, #0]
 80036c2:	05d9      	lsls	r1, r3, #23
 80036c4:	f04f 0501 	mov.w	r5, #1
 80036c8:	f53f af3d 	bmi.w	8003546 <HAL_RCCEx_PeriphCLKConfig+0x26>
 80036cc:	6833      	ldr	r3, [r6, #0]
 80036ce:	f443 7380 	orr.w	r3, r3, #256	; 0x100
 80036d2:	6033      	str	r3, [r6, #0]
 80036d4:	f7fe fb22 	bl	8001d1c <HAL_GetTick>
 80036d8:	4607      	mov	r7, r0
 80036da:	6833      	ldr	r3, [r6, #0]
 80036dc:	05da      	lsls	r2, r3, #23
 80036de:	f53f af32 	bmi.w	8003546 <HAL_RCCEx_PeriphCLKConfig+0x26>
 80036e2:	f7fe fb1b 	bl	8001d1c <HAL_GetTick>
 80036e6:	1bc0      	subs	r0, r0, r7
 80036e8:	2864      	cmp	r0, #100	; 0x64
 80036ea:	d9f6      	bls.n	80036da <HAL_RCCEx_PeriphCLKConfig+0x1ba>
 80036ec:	2003      	movs	r0, #3
 80036ee:	b003      	add	sp, #12
 80036f0:	e8bd 83f0 	ldmia.w	sp!, {r4, r5, r6, r7, r8, r9, pc}
 80036f4:	f7fe fb12 	bl	8001d1c <HAL_GetTick>
 80036f8:	f04f 0902 	mov.w	r9, #2
 80036fc:	4607      	mov	r7, r0
 80036fe:	e015      	b.n	800372c <HAL_RCCEx_PeriphCLKConfig+0x20c>
 8003700:	fa99 f3a9 	rbit	r3, r9
 8003704:	f8d8 2024 	ldr.w	r2, [r8, #36]	; 0x24
 8003708:	fa99 f3a9 	rbit	r3, r9
 800370c:	fab3 f383 	clz	r3, r3
 8003710:	f003 031f 	and.w	r3, r3, #31
 8003714:	fa06 f303 	lsl.w	r3, r6, r3
 8003718:	4213      	tst	r3, r2
 800371a:	f47f af3c 	bne.w	8003596 <HAL_RCCEx_PeriphCLKConfig+0x76>
 800371e:	f7fe fafd 	bl	8001d1c <HAL_GetTick>
 8003722:	f241 3388 	movw	r3, #5000	; 0x1388
 8003726:	1bc0      	subs	r0, r0, r7
 8003728:	4298      	cmp	r0, r3
 800372a:	d8df      	bhi.n	80036ec <HAL_RCCEx_PeriphCLKConfig+0x1cc>
 800372c:	fa99 f3a9 	rbit	r3, r9
 8003730:	fa99 f3a9 	rbit	r3, r9
 8003734:	2b00      	cmp	r3, #0
 8003736:	d0e3      	beq.n	8003700 <HAL_RCCEx_PeriphCLKConfig+0x1e0>
 8003738:	f8d8 2020 	ldr.w	r2, [r8, #32]
 800373c:	e7e4      	b.n	8003708 <HAL_RCCEx_PeriphCLKConfig+0x1e8>
 800373e:	bf00      	nop
 8003740:	40021000 	.word	0x40021000
 8003744:	40007000 	.word	0x40007000
 8003748:	10908100 	.word	0x10908100

0800374c <SPI_WaitFifoStateUntilTimeout.constprop.0>:
 800374c:	e92d 41f0 	stmdb	sp!, {r4, r5, r6, r7, r8, lr}
 8003750:	b082      	sub	sp, #8
 8003752:	2300      	movs	r3, #0
 8003754:	4614      	mov	r4, r2
 8003756:	460d      	mov	r5, r1
 8003758:	f88d 3003 	strb.w	r3, [sp, #3]
 800375c:	4606      	mov	r6, r0
 800375e:	f7fe fadd 	bl	8001d1c <HAL_GetTick>
 8003762:	442c      	add	r4, r5
 8003764:	1a27      	subs	r7, r4, r0
 8003766:	f7fe fad9 	bl	8001d1c <HAL_GetTick>
 800376a:	4b32      	ldr	r3, [pc, #200]	; (8003834 <SPI_WaitFifoStateUntilTimeout.constprop.0+0xe8>)
 800376c:	6834      	ldr	r4, [r6, #0]
 800376e:	681b      	ldr	r3, [r3, #0]
 8003770:	eb03 0383 	add.w	r3, r3, r3, lsl #2
 8003774:	ebc3 03c3 	rsb	r3, r3, r3, lsl #3
 8003778:	0d1b      	lsrs	r3, r3, #20
 800377a:	fb07 f303 	mul.w	r3, r7, r3
 800377e:	4680      	mov	r8, r0
 8003780:	9301      	str	r3, [sp, #4]
 8003782:	4622      	mov	r2, r4
 8003784:	1c69      	adds	r1, r5, #1
 8003786:	6893      	ldr	r3, [r2, #8]
 8003788:	d110      	bne.n	80037ac <SPI_WaitFifoStateUntilTimeout.constprop.0+0x60>
 800378a:	f413 6fc0 	tst.w	r3, #1536	; 0x600
 800378e:	d009      	beq.n	80037a4 <SPI_WaitFifoStateUntilTimeout.constprop.0+0x58>
 8003790:	7b23      	ldrb	r3, [r4, #12]
 8003792:	b2db      	uxtb	r3, r3
 8003794:	f88d 3003 	strb.w	r3, [sp, #3]
 8003798:	f89d 3003 	ldrb.w	r3, [sp, #3]
 800379c:	6893      	ldr	r3, [r2, #8]
 800379e:	f413 6fc0 	tst.w	r3, #1536	; 0x600
 80037a2:	d1f5      	bne.n	8003790 <SPI_WaitFifoStateUntilTimeout.constprop.0+0x44>
 80037a4:	2000      	movs	r0, #0
 80037a6:	b002      	add	sp, #8
 80037a8:	e8bd 81f0 	ldmia.w	sp!, {r4, r5, r6, r7, r8, pc}
 80037ac:	f413 6fc0 	tst.w	r3, #1536	; 0x600
 80037b0:	d0f8      	beq.n	80037a4 <SPI_WaitFifoStateUntilTimeout.constprop.0+0x58>
 80037b2:	7b23      	ldrb	r3, [r4, #12]
 80037b4:	b2db      	uxtb	r3, r3
 80037b6:	f88d 3003 	strb.w	r3, [sp, #3]
 80037ba:	f89d 3003 	ldrb.w	r3, [sp, #3]
 80037be:	f7fe faad 	bl	8001d1c <HAL_GetTick>
 80037c2:	eba0 0008 	sub.w	r0, r0, r8
 80037c6:	42b8      	cmp	r0, r7
 80037c8:	d209      	bcs.n	80037de <SPI_WaitFifoStateUntilTimeout.constprop.0+0x92>
 80037ca:	9b01      	ldr	r3, [sp, #4]
 80037cc:	6832      	ldr	r2, [r6, #0]
 80037ce:	2b00      	cmp	r3, #0
 80037d0:	9b01      	ldr	r3, [sp, #4]
 80037d2:	f103 33ff 	add.w	r3, r3, #4294967295
 80037d6:	bf08      	it	eq
 80037d8:	2700      	moveq	r7, #0
 80037da:	9301      	str	r3, [sp, #4]
 80037dc:	e7d2      	b.n	8003784 <SPI_WaitFifoStateUntilTimeout.constprop.0+0x38>
 80037de:	e9d6 3100 	ldrd	r3, r1, [r6]
 80037e2:	685a      	ldr	r2, [r3, #4]
 80037e4:	f5b1 7f82 	cmp.w	r1, #260	; 0x104
 80037e8:	f022 02e0 	bic.w	r2, r2, #224	; 0xe0
 80037ec:	605a      	str	r2, [r3, #4]
 80037ee:	d014      	beq.n	800381a <SPI_WaitFifoStateUntilTimeout.constprop.0+0xce>
 80037f0:	6ab2      	ldr	r2, [r6, #40]	; 0x28
 80037f2:	f5b2 5f00 	cmp.w	r2, #8192	; 0x2000
 80037f6:	d007      	beq.n	8003808 <SPI_WaitFifoStateUntilTimeout.constprop.0+0xbc>
 80037f8:	2201      	movs	r2, #1
 80037fa:	2300      	movs	r3, #0
 80037fc:	f886 205d 	strb.w	r2, [r6, #93]	; 0x5d
 8003800:	f886 305c 	strb.w	r3, [r6, #92]	; 0x5c
 8003804:	2003      	movs	r0, #3
 8003806:	e7ce      	b.n	80037a6 <SPI_WaitFifoStateUntilTimeout.constprop.0+0x5a>
 8003808:	681a      	ldr	r2, [r3, #0]
 800380a:	f422 5200 	bic.w	r2, r2, #8192	; 0x2000
 800380e:	601a      	str	r2, [r3, #0]
 8003810:	681a      	ldr	r2, [r3, #0]
 8003812:	f442 5200 	orr.w	r2, r2, #8192	; 0x2000
 8003816:	601a      	str	r2, [r3, #0]
 8003818:	e7ee      	b.n	80037f8 <SPI_WaitFifoStateUntilTimeout.constprop.0+0xac>
 800381a:	68b2      	ldr	r2, [r6, #8]
 800381c:	f5b2 4f00 	cmp.w	r2, #32768	; 0x8000
 8003820:	d002      	beq.n	8003828 <SPI_WaitFifoStateUntilTimeout.constprop.0+0xdc>
 8003822:	f5b2 6f80 	cmp.w	r2, #1024	; 0x400
 8003826:	d1e3      	bne.n	80037f0 <SPI_WaitFifoStateUntilTimeout.constprop.0+0xa4>
 8003828:	681a      	ldr	r2, [r3, #0]
 800382a:	f022 0240 	bic.w	r2, r2, #64	; 0x40
 800382e:	601a      	str	r2, [r3, #0]
 8003830:	e7de      	b.n	80037f0 <SPI_WaitFifoStateUntilTimeout.constprop.0+0xa4>
 8003832:	bf00      	nop
 8003834:	20000000 	.word	0x20000000

08003838 <SPI_EndRxTxTransaction>:
 8003838:	e92d 4ff0 	stmdb	sp!, {r4, r5, r6, r7, r8, r9, sl, fp, lr}
 800383c:	b085      	sub	sp, #20
 800383e:	2300      	movs	r3, #0
 8003840:	f88d 3007 	strb.w	r3, [sp, #7]
 8003844:	eb01 0902 	add.w	r9, r1, r2
 8003848:	460e      	mov	r6, r1
 800384a:	4617      	mov	r7, r2
 800384c:	4605      	mov	r5, r0
 800384e:	f7fe fa65 	bl	8001d1c <HAL_GetTick>
 8003852:	f8df 8120 	ldr.w	r8, [pc, #288]	; 8003974 <SPI_EndRxTxTransaction+0x13c>
 8003856:	eba9 0a00 	sub.w	sl, r9, r0
 800385a:	f7fe fa5f 	bl	8001d1c <HAL_GetTick>
 800385e:	f8d8 3000 	ldr.w	r3, [r8]
 8003862:	eb03 0383 	add.w	r3, r3, r3, lsl #2
 8003866:	ebc3 03c3 	rsb	r3, r3, r3, lsl #3
 800386a:	0d1b      	lsrs	r3, r3, #20
 800386c:	fb0a f303 	mul.w	r3, sl, r3
 8003870:	4683      	mov	fp, r0
 8003872:	9302      	str	r3, [sp, #8]
 8003874:	1c70      	adds	r0, r6, #1
 8003876:	682c      	ldr	r4, [r5, #0]
 8003878:	d120      	bne.n	80038bc <SPI_EndRxTxTransaction+0x84>
 800387a:	68a3      	ldr	r3, [r4, #8]
 800387c:	f413 5fc0 	tst.w	r3, #6144	; 0x1800
 8003880:	d1fb      	bne.n	800387a <SPI_EndRxTxTransaction+0x42>
 8003882:	f7fe fa4b 	bl	8001d1c <HAL_GetTick>
 8003886:	eba9 0900 	sub.w	r9, r9, r0
 800388a:	f7fe fa47 	bl	8001d1c <HAL_GetTick>
 800388e:	f8d8 3000 	ldr.w	r3, [r8]
 8003892:	f3c3 33cb 	ubfx	r3, r3, #15, #12
 8003896:	fb09 f303 	mul.w	r3, r9, r3
 800389a:	4680      	mov	r8, r0
 800389c:	9303      	str	r3, [sp, #12]
 800389e:	1c71      	adds	r1, r6, #1
 80038a0:	682c      	ldr	r4, [r5, #0]
 80038a2:	d11f      	bne.n	80038e4 <SPI_EndRxTxTransaction+0xac>
 80038a4:	68a3      	ldr	r3, [r4, #8]
 80038a6:	061a      	lsls	r2, r3, #24
 80038a8:	d4fc      	bmi.n	80038a4 <SPI_EndRxTxTransaction+0x6c>
 80038aa:	463a      	mov	r2, r7
 80038ac:	4631      	mov	r1, r6
 80038ae:	4628      	mov	r0, r5
 80038b0:	f7ff ff4c 	bl	800374c <SPI_WaitFifoStateUntilTimeout.constprop.0>
 80038b4:	bb48      	cbnz	r0, 800390a <SPI_EndRxTxTransaction+0xd2>
 80038b6:	b005      	add	sp, #20
 80038b8:	e8bd 8ff0 	ldmia.w	sp!, {r4, r5, r6, r7, r8, r9, sl, fp, pc}
 80038bc:	68a3      	ldr	r3, [r4, #8]
 80038be:	f413 5fc0 	tst.w	r3, #6144	; 0x1800
 80038c2:	d0de      	beq.n	8003882 <SPI_EndRxTxTransaction+0x4a>
 80038c4:	f7fe fa2a 	bl	8001d1c <HAL_GetTick>
 80038c8:	eba0 000b 	sub.w	r0, r0, fp
 80038cc:	4550      	cmp	r0, sl
 80038ce:	d222      	bcs.n	8003916 <SPI_EndRxTxTransaction+0xde>
 80038d0:	9a02      	ldr	r2, [sp, #8]
 80038d2:	9b02      	ldr	r3, [sp, #8]
 80038d4:	2a00      	cmp	r2, #0
 80038d6:	f103 33ff 	add.w	r3, r3, #4294967295
 80038da:	bf08      	it	eq
 80038dc:	f04f 0a00 	moveq.w	sl, #0
 80038e0:	9302      	str	r3, [sp, #8]
 80038e2:	e7c7      	b.n	8003874 <SPI_EndRxTxTransaction+0x3c>
 80038e4:	68a3      	ldr	r3, [r4, #8]
 80038e6:	061b      	lsls	r3, r3, #24
 80038e8:	d5df      	bpl.n	80038aa <SPI_EndRxTxTransaction+0x72>
 80038ea:	f7fe fa17 	bl	8001d1c <HAL_GetTick>
 80038ee:	eba0 0008 	sub.w	r0, r0, r8
 80038f2:	4548      	cmp	r0, r9
 80038f4:	d20f      	bcs.n	8003916 <SPI_EndRxTxTransaction+0xde>
 80038f6:	9a03      	ldr	r2, [sp, #12]
 80038f8:	9b03      	ldr	r3, [sp, #12]
 80038fa:	2a00      	cmp	r2, #0
 80038fc:	f103 33ff 	add.w	r3, r3, #4294967295
 8003900:	bf08      	it	eq
 8003902:	f04f 0900 	moveq.w	r9, #0
 8003906:	9303      	str	r3, [sp, #12]
 8003908:	e7c9      	b.n	800389e <SPI_EndRxTxTransaction+0x66>
 800390a:	6e2b      	ldr	r3, [r5, #96]	; 0x60
 800390c:	f043 0320 	orr.w	r3, r3, #32
 8003910:	2003      	movs	r0, #3
 8003912:	662b      	str	r3, [r5, #96]	; 0x60
 8003914:	e7cf      	b.n	80038b6 <SPI_EndRxTxTransaction+0x7e>
 8003916:	e9d5 3100 	ldrd	r3, r1, [r5]
 800391a:	685a      	ldr	r2, [r3, #4]
 800391c:	f5b1 7f82 	cmp.w	r1, #260	; 0x104
 8003920:	f022 02e0 	bic.w	r2, r2, #224	; 0xe0
 8003924:	605a      	str	r2, [r3, #4]
 8003926:	d019      	beq.n	800395c <SPI_EndRxTxTransaction+0x124>
 8003928:	6aaa      	ldr	r2, [r5, #40]	; 0x28
 800392a:	f5b2 5f00 	cmp.w	r2, #8192	; 0x2000
 800392e:	d107      	bne.n	8003940 <SPI_EndRxTxTransaction+0x108>
 8003930:	681a      	ldr	r2, [r3, #0]
 8003932:	f422 5200 	bic.w	r2, r2, #8192	; 0x2000
 8003936:	601a      	str	r2, [r3, #0]
 8003938:	681a      	ldr	r2, [r3, #0]
 800393a:	f442 5200 	orr.w	r2, r2, #8192	; 0x2000
 800393e:	601a      	str	r2, [r3, #0]
 8003940:	2301      	movs	r3, #1
 8003942:	f885 305d 	strb.w	r3, [r5, #93]	; 0x5d
 8003946:	6e2b      	ldr	r3, [r5, #96]	; 0x60
 8003948:	2200      	movs	r2, #0
 800394a:	f043 0320 	orr.w	r3, r3, #32
 800394e:	2003      	movs	r0, #3
 8003950:	f885 205c 	strb.w	r2, [r5, #92]	; 0x5c
 8003954:	662b      	str	r3, [r5, #96]	; 0x60
 8003956:	b005      	add	sp, #20
 8003958:	e8bd 8ff0 	ldmia.w	sp!, {r4, r5, r6, r7, r8, r9, sl, fp, pc}
 800395c:	68aa      	ldr	r2, [r5, #8]
 800395e:	f5b2 4f00 	cmp.w	r2, #32768	; 0x8000
 8003962:	d002      	beq.n	800396a <SPI_EndRxTxTransaction+0x132>
 8003964:	f5b2 6f80 	cmp.w	r2, #1024	; 0x400
 8003968:	d1de      	bne.n	8003928 <SPI_EndRxTxTransaction+0xf0>
 800396a:	681a      	ldr	r2, [r3, #0]
 800396c:	f022 0240 	bic.w	r2, r2, #64	; 0x40
 8003970:	601a      	str	r2, [r3, #0]
 8003972:	e7d9      	b.n	8003928 <SPI_EndRxTxTransaction+0xf0>
 8003974:	20000000 	.word	0x20000000

08003978 <HAL_SPI_Init>:
 8003978:	2800      	cmp	r0, #0
 800397a:	d077      	beq.n	8003a6c <HAL_SPI_Init+0xf4>
 800397c:	e92d 41f0 	stmdb	sp!, {r4, r5, r6, r7, r8, lr}
 8003980:	6a46      	ldr	r6, [r0, #36]	; 0x24
 8003982:	4604      	mov	r4, r0
 8003984:	2e00      	cmp	r6, #0
 8003986:	d058      	beq.n	8003a3a <HAL_SPI_Init+0xc2>
 8003988:	2300      	movs	r3, #0
 800398a:	e9c0 3304 	strd	r3, r3, [r0, #16]
 800398e:	f894 305d 	ldrb.w	r3, [r4, #93]	; 0x5d
 8003992:	2200      	movs	r2, #0
 8003994:	62a2      	str	r2, [r4, #40]	; 0x28
 8003996:	f003 02ff 	and.w	r2, r3, #255	; 0xff
 800399a:	2b00      	cmp	r3, #0
 800399c:	d059      	beq.n	8003a52 <HAL_SPI_Init+0xda>
 800399e:	6821      	ldr	r1, [r4, #0]
 80039a0:	68e2      	ldr	r2, [r4, #12]
 80039a2:	2302      	movs	r3, #2
 80039a4:	f884 305d 	strb.w	r3, [r4, #93]	; 0x5d
 80039a8:	6808      	ldr	r0, [r1, #0]
 80039aa:	f5b2 6fe0 	cmp.w	r2, #1792	; 0x700
 80039ae:	f020 0040 	bic.w	r0, r0, #64	; 0x40
 80039b2:	6008      	str	r0, [r1, #0]
 80039b4:	d947      	bls.n	8003a46 <HAL_SPI_Init+0xce>
 80039b6:	f5b2 6f70 	cmp.w	r2, #3840	; 0xf00
 80039ba:	d159      	bne.n	8003a70 <HAL_SPI_Init+0xf8>
 80039bc:	6aa3      	ldr	r3, [r4, #40]	; 0x28
 80039be:	2000      	movs	r0, #0
 80039c0:	f403 5500 	and.w	r5, r3, #8192	; 0x2000
 80039c4:	68a3      	ldr	r3, [r4, #8]
 80039c6:	6a27      	ldr	r7, [r4, #32]
 80039c8:	f402 6e70 	and.w	lr, r2, #3840	; 0xf00
 80039cc:	6862      	ldr	r2, [r4, #4]
 80039ce:	f403 4304 	and.w	r3, r3, #33792	; 0x8400
 80039d2:	f402 7282 	and.w	r2, r2, #260	; 0x104
 80039d6:	431a      	orrs	r2, r3
 80039d8:	6923      	ldr	r3, [r4, #16]
 80039da:	f003 0302 	and.w	r3, r3, #2
 80039de:	431a      	orrs	r2, r3
 80039e0:	6963      	ldr	r3, [r4, #20]
 80039e2:	f003 0301 	and.w	r3, r3, #1
 80039e6:	431a      	orrs	r2, r3
 80039e8:	6b63      	ldr	r3, [r4, #52]	; 0x34
 80039ea:	f003 0308 	and.w	r3, r3, #8
 80039ee:	f006 0c10 	and.w	ip, r6, #16
 80039f2:	ea43 0e0e 	orr.w	lr, r3, lr
 80039f6:	69a6      	ldr	r6, [r4, #24]
 80039f8:	69e3      	ldr	r3, [r4, #28]
 80039fa:	f003 0838 	and.w	r8, r3, #56	; 0x38
 80039fe:	f406 7300 	and.w	r3, r6, #512	; 0x200
 8003a02:	4313      	orrs	r3, r2
 8003a04:	f007 0780 	and.w	r7, r7, #128	; 0x80
 8003a08:	ea43 0308 	orr.w	r3, r3, r8
 8003a0c:	433b      	orrs	r3, r7
 8003a0e:	432b      	orrs	r3, r5
 8003a10:	600b      	str	r3, [r1, #0]
 8003a12:	0c33      	lsrs	r3, r6, #16
 8003a14:	f003 0304 	and.w	r3, r3, #4
 8003a18:	ea4e 0303 	orr.w	r3, lr, r3
 8003a1c:	ea43 030c 	orr.w	r3, r3, ip
 8003a20:	4303      	orrs	r3, r0
 8003a22:	604b      	str	r3, [r1, #4]
 8003a24:	69cb      	ldr	r3, [r1, #28]
 8003a26:	2000      	movs	r0, #0
 8003a28:	f423 6300 	bic.w	r3, r3, #2048	; 0x800
 8003a2c:	2201      	movs	r2, #1
 8003a2e:	61cb      	str	r3, [r1, #28]
 8003a30:	6620      	str	r0, [r4, #96]	; 0x60
 8003a32:	f884 205d 	strb.w	r2, [r4, #93]	; 0x5d
 8003a36:	e8bd 81f0 	ldmia.w	sp!, {r4, r5, r6, r7, r8, pc}
 8003a3a:	6843      	ldr	r3, [r0, #4]
 8003a3c:	f5b3 7f82 	cmp.w	r3, #260	; 0x104
 8003a40:	d0a5      	beq.n	800398e <HAL_SPI_Init+0x16>
 8003a42:	61c6      	str	r6, [r0, #28]
 8003a44:	e7a3      	b.n	800398e <HAL_SPI_Init+0x16>
 8003a46:	d00b      	beq.n	8003a60 <HAL_SPI_Init+0xe8>
 8003a48:	f44f 5080 	mov.w	r0, #4096	; 0x1000
 8003a4c:	2500      	movs	r5, #0
 8003a4e:	62a5      	str	r5, [r4, #40]	; 0x28
 8003a50:	e7b8      	b.n	80039c4 <HAL_SPI_Init+0x4c>
 8003a52:	f884 205c 	strb.w	r2, [r4, #92]	; 0x5c
 8003a56:	4620      	mov	r0, r4
 8003a58:	f7fd fd5a 	bl	8001510 <HAL_SPI_MspInit>
 8003a5c:	6a66      	ldr	r6, [r4, #36]	; 0x24
 8003a5e:	e79e      	b.n	800399e <HAL_SPI_Init+0x26>
 8003a60:	6aa3      	ldr	r3, [r4, #40]	; 0x28
 8003a62:	f44f 5080 	mov.w	r0, #4096	; 0x1000
 8003a66:	f403 5500 	and.w	r5, r3, #8192	; 0x2000
 8003a6a:	e7ab      	b.n	80039c4 <HAL_SPI_Init+0x4c>
 8003a6c:	2001      	movs	r0, #1
 8003a6e:	4770      	bx	lr
 8003a70:	2000      	movs	r0, #0
 8003a72:	e7eb      	b.n	8003a4c <HAL_SPI_Init+0xd4>

08003a74 <HAL_SPI_TransmitReceive>:
 8003a74:	e92d 43f8 	stmdb	sp!, {r3, r4, r5, r6, r7, r8, r9, lr}
 8003a78:	4604      	mov	r4, r0
 8003a7a:	f890 005c 	ldrb.w	r0, [r0, #92]	; 0x5c
 8003a7e:	9e08      	ldr	r6, [sp, #32]
 8003a80:	2801      	cmp	r0, #1
 8003a82:	f000 8098 	beq.w	8003bb6 <HAL_SPI_TransmitReceive+0x142>
 8003a86:	461f      	mov	r7, r3
 8003a88:	2301      	movs	r3, #1
 8003a8a:	f884 305c 	strb.w	r3, [r4, #92]	; 0x5c
 8003a8e:	4689      	mov	r9, r1
 8003a90:	4690      	mov	r8, r2
 8003a92:	f7fe f943 	bl	8001d1c <HAL_GetTick>
 8003a96:	4605      	mov	r5, r0
 8003a98:	f894 005d 	ldrb.w	r0, [r4, #93]	; 0x5d
 8003a9c:	6863      	ldr	r3, [r4, #4]
 8003a9e:	2801      	cmp	r0, #1
 8003aa0:	b2c1      	uxtb	r1, r0
 8003aa2:	d010      	beq.n	8003ac6 <HAL_SPI_TransmitReceive+0x52>
 8003aa4:	f5b3 7f82 	cmp.w	r3, #260	; 0x104
 8003aa8:	d008      	beq.n	8003abc <HAL_SPI_TransmitReceive+0x48>
 8003aaa:	2002      	movs	r0, #2
 8003aac:	2201      	movs	r2, #1
 8003aae:	2300      	movs	r3, #0
 8003ab0:	f884 205d 	strb.w	r2, [r4, #93]	; 0x5d
 8003ab4:	f884 305c 	strb.w	r3, [r4, #92]	; 0x5c
 8003ab8:	e8bd 83f8 	ldmia.w	sp!, {r3, r4, r5, r6, r7, r8, r9, pc}
 8003abc:	68a2      	ldr	r2, [r4, #8]
 8003abe:	2a00      	cmp	r2, #0
 8003ac0:	d1f3      	bne.n	8003aaa <HAL_SPI_TransmitReceive+0x36>
 8003ac2:	2904      	cmp	r1, #4
 8003ac4:	d1f1      	bne.n	8003aaa <HAL_SPI_TransmitReceive+0x36>
 8003ac6:	f1b9 0f00 	cmp.w	r9, #0
 8003aca:	d077      	beq.n	8003bbc <HAL_SPI_TransmitReceive+0x148>
 8003acc:	f1b8 0f00 	cmp.w	r8, #0
 8003ad0:	d074      	beq.n	8003bbc <HAL_SPI_TransmitReceive+0x148>
 8003ad2:	2f00      	cmp	r7, #0
 8003ad4:	d072      	beq.n	8003bbc <HAL_SPI_TransmitReceive+0x148>
 8003ad6:	f894 205d 	ldrb.w	r2, [r4, #93]	; 0x5d
 8003ada:	68e1      	ldr	r1, [r4, #12]
 8003adc:	f8c4 8040 	str.w	r8, [r4, #64]	; 0x40
 8003ae0:	2a04      	cmp	r2, #4
 8003ae2:	bf1c      	itt	ne
 8003ae4:	2205      	movne	r2, #5
 8003ae6:	f884 205d 	strbne.w	r2, [r4, #93]	; 0x5d
 8003aea:	2200      	movs	r2, #0
 8003aec:	6622      	str	r2, [r4, #96]	; 0x60
 8003aee:	e9c4 2213 	strd	r2, r2, [r4, #76]	; 0x4c
 8003af2:	6822      	ldr	r2, [r4, #0]
 8003af4:	f8a4 7046 	strh.w	r7, [r4, #70]	; 0x46
 8003af8:	f5b1 6fe0 	cmp.w	r1, #1792	; 0x700
 8003afc:	87e7      	strh	r7, [r4, #62]	; 0x3e
 8003afe:	6851      	ldr	r1, [r2, #4]
 8003b00:	f8a4 7044 	strh.w	r7, [r4, #68]	; 0x44
 8003b04:	f8c4 9038 	str.w	r9, [r4, #56]	; 0x38
 8003b08:	87a7      	strh	r7, [r4, #60]	; 0x3c
 8003b0a:	d859      	bhi.n	8003bc0 <HAL_SPI_TransmitReceive+0x14c>
 8003b0c:	2f01      	cmp	r7, #1
 8003b0e:	f000 8129 	beq.w	8003d64 <HAL_SPI_TransmitReceive+0x2f0>
 8003b12:	f421 5180 	bic.w	r1, r1, #4096	; 0x1000
 8003b16:	6051      	str	r1, [r2, #4]
 8003b18:	6811      	ldr	r1, [r2, #0]
 8003b1a:	0649      	lsls	r1, r1, #25
 8003b1c:	f100 80e4 	bmi.w	8003ce8 <HAL_SPI_TransmitReceive+0x274>
 8003b20:	6811      	ldr	r1, [r2, #0]
 8003b22:	f041 0140 	orr.w	r1, r1, #64	; 0x40
 8003b26:	6011      	str	r1, [r2, #0]
 8003b28:	2b00      	cmp	r3, #0
 8003b2a:	f000 80e0 	beq.w	8003cee <HAL_SPI_TransmitReceive+0x27a>
 8003b2e:	2f01      	cmp	r7, #1
 8003b30:	f000 80dd 	beq.w	8003cee <HAL_SPI_TransmitReceive+0x27a>
 8003b34:	2701      	movs	r7, #1
 8003b36:	8fe3      	ldrh	r3, [r4, #62]	; 0x3e
 8003b38:	b29b      	uxth	r3, r3
 8003b3a:	b92b      	cbnz	r3, 8003b48 <HAL_SPI_TransmitReceive+0xd4>
 8003b3c:	f8b4 3046 	ldrh.w	r3, [r4, #70]	; 0x46
 8003b40:	b29b      	uxth	r3, r3
 8003b42:	2b00      	cmp	r3, #0
 8003b44:	f000 8087 	beq.w	8003c56 <HAL_SPI_TransmitReceive+0x1e2>
 8003b48:	6822      	ldr	r2, [r4, #0]
 8003b4a:	6893      	ldr	r3, [r2, #8]
 8003b4c:	0799      	lsls	r1, r3, #30
 8003b4e:	d505      	bpl.n	8003b5c <HAL_SPI_TransmitReceive+0xe8>
 8003b50:	8fe3      	ldrh	r3, [r4, #62]	; 0x3e
 8003b52:	b29b      	uxth	r3, r3
 8003b54:	b113      	cbz	r3, 8003b5c <HAL_SPI_TransmitReceive+0xe8>
 8003b56:	2f00      	cmp	r7, #0
 8003b58:	f040 80e9 	bne.w	8003d2e <HAL_SPI_TransmitReceive+0x2ba>
 8003b5c:	6893      	ldr	r3, [r2, #8]
 8003b5e:	f013 0301 	ands.w	r3, r3, #1
 8003b62:	d01e      	beq.n	8003ba2 <HAL_SPI_TransmitReceive+0x12e>
 8003b64:	f8b4 1046 	ldrh.w	r1, [r4, #70]	; 0x46
 8003b68:	b289      	uxth	r1, r1
 8003b6a:	b1d1      	cbz	r1, 8003ba2 <HAL_SPI_TransmitReceive+0x12e>
 8003b6c:	f8b4 1046 	ldrh.w	r1, [r4, #70]	; 0x46
 8003b70:	b289      	uxth	r1, r1
 8003b72:	2901      	cmp	r1, #1
 8003b74:	f240 80cd 	bls.w	8003d12 <HAL_SPI_TransmitReceive+0x29e>
 8003b78:	6c21      	ldr	r1, [r4, #64]	; 0x40
 8003b7a:	68d0      	ldr	r0, [r2, #12]
 8003b7c:	f821 0b02 	strh.w	r0, [r1], #2
 8003b80:	6421      	str	r1, [r4, #64]	; 0x40
 8003b82:	f8b4 1046 	ldrh.w	r1, [r4, #70]	; 0x46
 8003b86:	3902      	subs	r1, #2
 8003b88:	b289      	uxth	r1, r1
 8003b8a:	f8a4 1046 	strh.w	r1, [r4, #70]	; 0x46
 8003b8e:	f8b4 1046 	ldrh.w	r1, [r4, #70]	; 0x46
 8003b92:	b289      	uxth	r1, r1
 8003b94:	2901      	cmp	r1, #1
 8003b96:	461f      	mov	r7, r3
 8003b98:	d803      	bhi.n	8003ba2 <HAL_SPI_TransmitReceive+0x12e>
 8003b9a:	6853      	ldr	r3, [r2, #4]
 8003b9c:	f443 5380 	orr.w	r3, r3, #4096	; 0x1000
 8003ba0:	6053      	str	r3, [r2, #4]
 8003ba2:	f7fe f8bb 	bl	8001d1c <HAL_GetTick>
 8003ba6:	1b40      	subs	r0, r0, r5
 8003ba8:	42b0      	cmp	r0, r6
 8003baa:	f0c0 80ae 	bcc.w	8003d0a <HAL_SPI_TransmitReceive+0x296>
 8003bae:	1c73      	adds	r3, r6, #1
 8003bb0:	d0c1      	beq.n	8003b36 <HAL_SPI_TransmitReceive+0xc2>
 8003bb2:	2003      	movs	r0, #3
 8003bb4:	e77a      	b.n	8003aac <HAL_SPI_TransmitReceive+0x38>
 8003bb6:	2002      	movs	r0, #2
 8003bb8:	e8bd 83f8 	ldmia.w	sp!, {r3, r4, r5, r6, r7, r8, r9, pc}
 8003bbc:	2001      	movs	r0, #1
 8003bbe:	e775      	b.n	8003aac <HAL_SPI_TransmitReceive+0x38>
 8003bc0:	f421 5180 	bic.w	r1, r1, #4096	; 0x1000
 8003bc4:	6051      	str	r1, [r2, #4]
 8003bc6:	6811      	ldr	r1, [r2, #0]
 8003bc8:	0648      	lsls	r0, r1, #25
 8003bca:	d403      	bmi.n	8003bd4 <HAL_SPI_TransmitReceive+0x160>
 8003bcc:	6811      	ldr	r1, [r2, #0]
 8003bce:	f041 0140 	orr.w	r1, r1, #64	; 0x40
 8003bd2:	6011      	str	r1, [r2, #0]
 8003bd4:	2b00      	cmp	r3, #0
 8003bd6:	d161      	bne.n	8003c9c <HAL_SPI_TransmitReceive+0x228>
 8003bd8:	4649      	mov	r1, r9
 8003bda:	f831 3b02 	ldrh.w	r3, [r1], #2
 8003bde:	60d3      	str	r3, [r2, #12]
 8003be0:	8fe3      	ldrh	r3, [r4, #62]	; 0x3e
 8003be2:	63a1      	str	r1, [r4, #56]	; 0x38
 8003be4:	3b01      	subs	r3, #1
 8003be6:	b29b      	uxth	r3, r3
 8003be8:	87e3      	strh	r3, [r4, #62]	; 0x3e
 8003bea:	1c72      	adds	r2, r6, #1
 8003bec:	f04f 0701 	mov.w	r7, #1
 8003bf0:	d028      	beq.n	8003c44 <HAL_SPI_TransmitReceive+0x1d0>
 8003bf2:	e04e      	b.n	8003c92 <HAL_SPI_TransmitReceive+0x21e>
 8003bf4:	6822      	ldr	r2, [r4, #0]
 8003bf6:	6893      	ldr	r3, [r2, #8]
 8003bf8:	079b      	lsls	r3, r3, #30
 8003bfa:	d50d      	bpl.n	8003c18 <HAL_SPI_TransmitReceive+0x1a4>
 8003bfc:	8fe3      	ldrh	r3, [r4, #62]	; 0x3e
 8003bfe:	b29b      	uxth	r3, r3
 8003c00:	b153      	cbz	r3, 8003c18 <HAL_SPI_TransmitReceive+0x1a4>
 8003c02:	b14f      	cbz	r7, 8003c18 <HAL_SPI_TransmitReceive+0x1a4>
 8003c04:	6ba1      	ldr	r1, [r4, #56]	; 0x38
 8003c06:	f831 3b02 	ldrh.w	r3, [r1], #2
 8003c0a:	60d3      	str	r3, [r2, #12]
 8003c0c:	8fe3      	ldrh	r3, [r4, #62]	; 0x3e
 8003c0e:	63a1      	str	r1, [r4, #56]	; 0x38
 8003c10:	3b01      	subs	r3, #1
 8003c12:	b29b      	uxth	r3, r3
 8003c14:	2700      	movs	r7, #0
 8003c16:	87e3      	strh	r3, [r4, #62]	; 0x3e
 8003c18:	6893      	ldr	r3, [r2, #8]
 8003c1a:	f013 0301 	ands.w	r3, r3, #1
 8003c1e:	d00f      	beq.n	8003c40 <HAL_SPI_TransmitReceive+0x1cc>
 8003c20:	f8b4 1046 	ldrh.w	r1, [r4, #70]	; 0x46
 8003c24:	b289      	uxth	r1, r1
 8003c26:	b159      	cbz	r1, 8003c40 <HAL_SPI_TransmitReceive+0x1cc>
 8003c28:	68d1      	ldr	r1, [r2, #12]
 8003c2a:	6c22      	ldr	r2, [r4, #64]	; 0x40
 8003c2c:	f822 1b02 	strh.w	r1, [r2], #2
 8003c30:	461f      	mov	r7, r3
 8003c32:	f8b4 3046 	ldrh.w	r3, [r4, #70]	; 0x46
 8003c36:	6422      	str	r2, [r4, #64]	; 0x40
 8003c38:	3b01      	subs	r3, #1
 8003c3a:	b29b      	uxth	r3, r3
 8003c3c:	f8a4 3046 	strh.w	r3, [r4, #70]	; 0x46
 8003c40:	f7fe f86c 	bl	8001d1c <HAL_GetTick>
 8003c44:	8fe3      	ldrh	r3, [r4, #62]	; 0x3e
 8003c46:	b29b      	uxth	r3, r3
 8003c48:	2b00      	cmp	r3, #0
 8003c4a:	d1d3      	bne.n	8003bf4 <HAL_SPI_TransmitReceive+0x180>
 8003c4c:	f8b4 3046 	ldrh.w	r3, [r4, #70]	; 0x46
 8003c50:	b29b      	uxth	r3, r3
 8003c52:	2b00      	cmp	r3, #0
 8003c54:	d1ce      	bne.n	8003bf4 <HAL_SPI_TransmitReceive+0x180>
 8003c56:	462a      	mov	r2, r5
 8003c58:	4631      	mov	r1, r6
 8003c5a:	4620      	mov	r0, r4
 8003c5c:	f7ff fdec 	bl	8003838 <SPI_EndRxTxTransaction>
 8003c60:	2800      	cmp	r0, #0
 8003c62:	f43f af23 	beq.w	8003aac <HAL_SPI_TransmitReceive+0x38>
 8003c66:	2320      	movs	r3, #32
 8003c68:	6623      	str	r3, [r4, #96]	; 0x60
 8003c6a:	2001      	movs	r0, #1
 8003c6c:	e71e      	b.n	8003aac <HAL_SPI_TransmitReceive+0x38>
 8003c6e:	f8b4 3046 	ldrh.w	r3, [r4, #70]	; 0x46
 8003c72:	b29b      	uxth	r3, r3
 8003c74:	2b00      	cmp	r3, #0
 8003c76:	d0ee      	beq.n	8003c56 <HAL_SPI_TransmitReceive+0x1e2>
 8003c78:	6822      	ldr	r2, [r4, #0]
 8003c7a:	6893      	ldr	r3, [r2, #8]
 8003c7c:	0798      	lsls	r0, r3, #30
 8003c7e:	d422      	bmi.n	8003cc6 <HAL_SPI_TransmitReceive+0x252>
 8003c80:	6893      	ldr	r3, [r2, #8]
 8003c82:	f013 0301 	ands.w	r3, r3, #1
 8003c86:	d10c      	bne.n	8003ca2 <HAL_SPI_TransmitReceive+0x22e>
 8003c88:	f7fe f848 	bl	8001d1c <HAL_GetTick>
 8003c8c:	1b40      	subs	r0, r0, r5
 8003c8e:	42b0      	cmp	r0, r6
 8003c90:	d28f      	bcs.n	8003bb2 <HAL_SPI_TransmitReceive+0x13e>
 8003c92:	8fe3      	ldrh	r3, [r4, #62]	; 0x3e
 8003c94:	b29b      	uxth	r3, r3
 8003c96:	2b00      	cmp	r3, #0
 8003c98:	d1ee      	bne.n	8003c78 <HAL_SPI_TransmitReceive+0x204>
 8003c9a:	e7e8      	b.n	8003c6e <HAL_SPI_TransmitReceive+0x1fa>
 8003c9c:	2f01      	cmp	r7, #1
 8003c9e:	d1a4      	bne.n	8003bea <HAL_SPI_TransmitReceive+0x176>
 8003ca0:	e79a      	b.n	8003bd8 <HAL_SPI_TransmitReceive+0x164>
 8003ca2:	f8b4 1046 	ldrh.w	r1, [r4, #70]	; 0x46
 8003ca6:	b289      	uxth	r1, r1
 8003ca8:	2900      	cmp	r1, #0
 8003caa:	d0ed      	beq.n	8003c88 <HAL_SPI_TransmitReceive+0x214>
 8003cac:	68d1      	ldr	r1, [r2, #12]
 8003cae:	6c22      	ldr	r2, [r4, #64]	; 0x40
 8003cb0:	f822 1b02 	strh.w	r1, [r2], #2
 8003cb4:	461f      	mov	r7, r3
 8003cb6:	f8b4 3046 	ldrh.w	r3, [r4, #70]	; 0x46
 8003cba:	6422      	str	r2, [r4, #64]	; 0x40
 8003cbc:	3b01      	subs	r3, #1
 8003cbe:	b29b      	uxth	r3, r3
 8003cc0:	f8a4 3046 	strh.w	r3, [r4, #70]	; 0x46
 8003cc4:	e7e0      	b.n	8003c88 <HAL_SPI_TransmitReceive+0x214>
 8003cc6:	8fe3      	ldrh	r3, [r4, #62]	; 0x3e
 8003cc8:	b29b      	uxth	r3, r3
 8003cca:	2b00      	cmp	r3, #0
 8003ccc:	d0d8      	beq.n	8003c80 <HAL_SPI_TransmitReceive+0x20c>
 8003cce:	2f00      	cmp	r7, #0
 8003cd0:	d0d6      	beq.n	8003c80 <HAL_SPI_TransmitReceive+0x20c>
 8003cd2:	6ba3      	ldr	r3, [r4, #56]	; 0x38
 8003cd4:	f833 1b02 	ldrh.w	r1, [r3], #2
 8003cd8:	60d1      	str	r1, [r2, #12]
 8003cda:	63a3      	str	r3, [r4, #56]	; 0x38
 8003cdc:	8fe3      	ldrh	r3, [r4, #62]	; 0x3e
 8003cde:	3b01      	subs	r3, #1
 8003ce0:	b29b      	uxth	r3, r3
 8003ce2:	2700      	movs	r7, #0
 8003ce4:	87e3      	strh	r3, [r4, #62]	; 0x3e
 8003ce6:	e7cb      	b.n	8003c80 <HAL_SPI_TransmitReceive+0x20c>
 8003ce8:	2b00      	cmp	r3, #0
 8003cea:	f47f af23 	bne.w	8003b34 <HAL_SPI_TransmitReceive+0xc0>
 8003cee:	8fe3      	ldrh	r3, [r4, #62]	; 0x3e
 8003cf0:	b29b      	uxth	r3, r3
 8003cf2:	2b01      	cmp	r3, #1
 8003cf4:	d93e      	bls.n	8003d74 <HAL_SPI_TransmitReceive+0x300>
 8003cf6:	4649      	mov	r1, r9
 8003cf8:	f831 3b02 	ldrh.w	r3, [r1], #2
 8003cfc:	60d3      	str	r3, [r2, #12]
 8003cfe:	8fe3      	ldrh	r3, [r4, #62]	; 0x3e
 8003d00:	63a1      	str	r1, [r4, #56]	; 0x38
 8003d02:	3b02      	subs	r3, #2
 8003d04:	b29b      	uxth	r3, r3
 8003d06:	87e3      	strh	r3, [r4, #62]	; 0x3e
 8003d08:	e714      	b.n	8003b34 <HAL_SPI_TransmitReceive+0xc0>
 8003d0a:	2e00      	cmp	r6, #0
 8003d0c:	f47f af13 	bne.w	8003b36 <HAL_SPI_TransmitReceive+0xc2>
 8003d10:	e74f      	b.n	8003bb2 <HAL_SPI_TransmitReceive+0x13e>
 8003d12:	461f      	mov	r7, r3
 8003d14:	6c23      	ldr	r3, [r4, #64]	; 0x40
 8003d16:	7b12      	ldrb	r2, [r2, #12]
 8003d18:	701a      	strb	r2, [r3, #0]
 8003d1a:	6c23      	ldr	r3, [r4, #64]	; 0x40
 8003d1c:	3301      	adds	r3, #1
 8003d1e:	6423      	str	r3, [r4, #64]	; 0x40
 8003d20:	f8b4 3046 	ldrh.w	r3, [r4, #70]	; 0x46
 8003d24:	3b01      	subs	r3, #1
 8003d26:	b29b      	uxth	r3, r3
 8003d28:	f8a4 3046 	strh.w	r3, [r4, #70]	; 0x46
 8003d2c:	e739      	b.n	8003ba2 <HAL_SPI_TransmitReceive+0x12e>
 8003d2e:	8fe3      	ldrh	r3, [r4, #62]	; 0x3e
 8003d30:	b29b      	uxth	r3, r3
 8003d32:	2b01      	cmp	r3, #1
 8003d34:	6ba3      	ldr	r3, [r4, #56]	; 0x38
 8003d36:	d909      	bls.n	8003d4c <HAL_SPI_TransmitReceive+0x2d8>
 8003d38:	f833 1b02 	ldrh.w	r1, [r3], #2
 8003d3c:	60d1      	str	r1, [r2, #12]
 8003d3e:	63a3      	str	r3, [r4, #56]	; 0x38
 8003d40:	8fe3      	ldrh	r3, [r4, #62]	; 0x3e
 8003d42:	3b02      	subs	r3, #2
 8003d44:	b29b      	uxth	r3, r3
 8003d46:	2700      	movs	r7, #0
 8003d48:	87e3      	strh	r3, [r4, #62]	; 0x3e
 8003d4a:	e707      	b.n	8003b5c <HAL_SPI_TransmitReceive+0xe8>
 8003d4c:	781b      	ldrb	r3, [r3, #0]
 8003d4e:	7313      	strb	r3, [r2, #12]
 8003d50:	8fe3      	ldrh	r3, [r4, #62]	; 0x3e
 8003d52:	6ba2      	ldr	r2, [r4, #56]	; 0x38
 8003d54:	3b01      	subs	r3, #1
 8003d56:	3201      	adds	r2, #1
 8003d58:	b29b      	uxth	r3, r3
 8003d5a:	63a2      	str	r2, [r4, #56]	; 0x38
 8003d5c:	87e3      	strh	r3, [r4, #62]	; 0x3e
 8003d5e:	6822      	ldr	r2, [r4, #0]
 8003d60:	2700      	movs	r7, #0
 8003d62:	e6fb      	b.n	8003b5c <HAL_SPI_TransmitReceive+0xe8>
 8003d64:	f441 5180 	orr.w	r1, r1, #4096	; 0x1000
 8003d68:	6051      	str	r1, [r2, #4]
 8003d6a:	6811      	ldr	r1, [r2, #0]
 8003d6c:	0649      	lsls	r1, r1, #25
 8003d6e:	f57f aed7 	bpl.w	8003b20 <HAL_SPI_TransmitReceive+0xac>
 8003d72:	e7bc      	b.n	8003cee <HAL_SPI_TransmitReceive+0x27a>
 8003d74:	f899 3000 	ldrb.w	r3, [r9]
 8003d78:	7313      	strb	r3, [r2, #12]
 8003d7a:	8fe3      	ldrh	r3, [r4, #62]	; 0x3e
 8003d7c:	6ba2      	ldr	r2, [r4, #56]	; 0x38
 8003d7e:	3b01      	subs	r3, #1
 8003d80:	3201      	adds	r2, #1
 8003d82:	b29b      	uxth	r3, r3
 8003d84:	63a2      	str	r2, [r4, #56]	; 0x38
 8003d86:	87e3      	strh	r3, [r4, #62]	; 0x3e
 8003d88:	e6d4      	b.n	8003b34 <HAL_SPI_TransmitReceive+0xc0>
 8003d8a:	bf00      	nop

08003d8c <TIM_OC1_SetConfig>:
 8003d8c:	6a03      	ldr	r3, [r0, #32]
 8003d8e:	f023 0301 	bic.w	r3, r3, #1
 8003d92:	6203      	str	r3, [r0, #32]
 8003d94:	6a03      	ldr	r3, [r0, #32]
 8003d96:	b470      	push	{r4, r5, r6}
 8003d98:	6844      	ldr	r4, [r0, #4]
 8003d9a:	6982      	ldr	r2, [r0, #24]
 8003d9c:	680d      	ldr	r5, [r1, #0]
 8003d9e:	f422 3280 	bic.w	r2, r2, #65536	; 0x10000
 8003da2:	f022 0273 	bic.w	r2, r2, #115	; 0x73
 8003da6:	432a      	orrs	r2, r5
 8003da8:	688d      	ldr	r5, [r1, #8]
 8003daa:	f023 0302 	bic.w	r3, r3, #2
 8003dae:	432b      	orrs	r3, r5
 8003db0:	4d13      	ldr	r5, [pc, #76]	; (8003e00 <TIM_OC1_SetConfig+0x74>)
 8003db2:	42a8      	cmp	r0, r5
 8003db4:	d00f      	beq.n	8003dd6 <TIM_OC1_SetConfig+0x4a>
 8003db6:	f505 6500 	add.w	r5, r5, #2048	; 0x800
 8003dba:	42a8      	cmp	r0, r5
 8003dbc:	d00b      	beq.n	8003dd6 <TIM_OC1_SetConfig+0x4a>
 8003dbe:	f505 6540 	add.w	r5, r5, #3072	; 0xc00
 8003dc2:	42a8      	cmp	r0, r5
 8003dc4:	d007      	beq.n	8003dd6 <TIM_OC1_SetConfig+0x4a>
 8003dc6:	f505 6580 	add.w	r5, r5, #1024	; 0x400
 8003dca:	42a8      	cmp	r0, r5
 8003dcc:	d003      	beq.n	8003dd6 <TIM_OC1_SetConfig+0x4a>
 8003dce:	f505 6580 	add.w	r5, r5, #1024	; 0x400
 8003dd2:	42a8      	cmp	r0, r5
 8003dd4:	d10d      	bne.n	8003df2 <TIM_OC1_SetConfig+0x66>
 8003dd6:	68cd      	ldr	r5, [r1, #12]
 8003dd8:	f023 0308 	bic.w	r3, r3, #8
 8003ddc:	432b      	orrs	r3, r5
 8003dde:	e9d1 6505 	ldrd	r6, r5, [r1, #20]
 8003de2:	f424 7440 	bic.w	r4, r4, #768	; 0x300
 8003de6:	ea46 0c05 	orr.w	ip, r6, r5
 8003dea:	f023 0304 	bic.w	r3, r3, #4
 8003dee:	ea4c 0404 	orr.w	r4, ip, r4
 8003df2:	6849      	ldr	r1, [r1, #4]
 8003df4:	6044      	str	r4, [r0, #4]
 8003df6:	6182      	str	r2, [r0, #24]
 8003df8:	bc70      	pop	{r4, r5, r6}
 8003dfa:	6341      	str	r1, [r0, #52]	; 0x34
 8003dfc:	6203      	str	r3, [r0, #32]
 8003dfe:	4770      	bx	lr
 8003e00:	40012c00 	.word	0x40012c00

08003e04 <TIM_OC3_SetConfig>:
 8003e04:	6a03      	ldr	r3, [r0, #32]
 8003e06:	f423 7380 	bic.w	r3, r3, #256	; 0x100
 8003e0a:	6203      	str	r3, [r0, #32]
 8003e0c:	6a03      	ldr	r3, [r0, #32]
 8003e0e:	b470      	push	{r4, r5, r6}
 8003e10:	6844      	ldr	r4, [r0, #4]
 8003e12:	69c2      	ldr	r2, [r0, #28]
 8003e14:	680d      	ldr	r5, [r1, #0]
 8003e16:	f422 3280 	bic.w	r2, r2, #65536	; 0x10000
 8003e1a:	f022 0273 	bic.w	r2, r2, #115	; 0x73
 8003e1e:	432a      	orrs	r2, r5
 8003e20:	688d      	ldr	r5, [r1, #8]
 8003e22:	f423 7300 	bic.w	r3, r3, #512	; 0x200
 8003e26:	ea43 2305 	orr.w	r3, r3, r5, lsl #8
 8003e2a:	4d15      	ldr	r5, [pc, #84]	; (8003e80 <TIM_OC3_SetConfig+0x7c>)
 8003e2c:	42a8      	cmp	r0, r5
 8003e2e:	d010      	beq.n	8003e52 <TIM_OC3_SetConfig+0x4e>
 8003e30:	f505 6500 	add.w	r5, r5, #2048	; 0x800
 8003e34:	42a8      	cmp	r0, r5
 8003e36:	d00c      	beq.n	8003e52 <TIM_OC3_SetConfig+0x4e>
 8003e38:	f505 6540 	add.w	r5, r5, #3072	; 0xc00
 8003e3c:	42a8      	cmp	r0, r5
 8003e3e:	d00f      	beq.n	8003e60 <TIM_OC3_SetConfig+0x5c>
 8003e40:	f505 6580 	add.w	r5, r5, #1024	; 0x400
 8003e44:	42a8      	cmp	r0, r5
 8003e46:	d00b      	beq.n	8003e60 <TIM_OC3_SetConfig+0x5c>
 8003e48:	f505 6580 	add.w	r5, r5, #1024	; 0x400
 8003e4c:	42a8      	cmp	r0, r5
 8003e4e:	d10f      	bne.n	8003e70 <TIM_OC3_SetConfig+0x6c>
 8003e50:	e006      	b.n	8003e60 <TIM_OC3_SetConfig+0x5c>
 8003e52:	68cd      	ldr	r5, [r1, #12]
 8003e54:	f423 6300 	bic.w	r3, r3, #2048	; 0x800
 8003e58:	ea43 2305 	orr.w	r3, r3, r5, lsl #8
 8003e5c:	f423 6380 	bic.w	r3, r3, #1024	; 0x400
 8003e60:	e9d1 6505 	ldrd	r6, r5, [r1, #20]
 8003e64:	f424 5440 	bic.w	r4, r4, #12288	; 0x3000
 8003e68:	ea46 0c05 	orr.w	ip, r6, r5
 8003e6c:	ea44 140c 	orr.w	r4, r4, ip, lsl #4
 8003e70:	6849      	ldr	r1, [r1, #4]
 8003e72:	6044      	str	r4, [r0, #4]
 8003e74:	61c2      	str	r2, [r0, #28]
 8003e76:	bc70      	pop	{r4, r5, r6}
 8003e78:	63c1      	str	r1, [r0, #60]	; 0x3c
 8003e7a:	6203      	str	r3, [r0, #32]
 8003e7c:	4770      	bx	lr
 8003e7e:	bf00      	nop
 8003e80:	40012c00 	.word	0x40012c00

08003e84 <HAL_TIM_PWM_Init>:
 8003e84:	2800      	cmp	r0, #0
 8003e86:	f000 8081 	beq.w	8003f8c <HAL_TIM_PWM_Init+0x108>
 8003e8a:	b510      	push	{r4, lr}
 8003e8c:	f890 303d 	ldrb.w	r3, [r0, #61]	; 0x3d
 8003e90:	4604      	mov	r4, r0
 8003e92:	f003 02ff 	and.w	r2, r3, #255	; 0xff
 8003e96:	2b00      	cmp	r3, #0
 8003e98:	d06d      	beq.n	8003f76 <HAL_TIM_PWM_Init+0xf2>
 8003e9a:	6822      	ldr	r2, [r4, #0]
 8003e9c:	493c      	ldr	r1, [pc, #240]	; (8003f90 <HAL_TIM_PWM_Init+0x10c>)
 8003e9e:	2302      	movs	r3, #2
 8003ea0:	f884 303d 	strb.w	r3, [r4, #61]	; 0x3d
 8003ea4:	428a      	cmp	r2, r1
 8003ea6:	6813      	ldr	r3, [r2, #0]
 8003ea8:	d051      	beq.n	8003f4e <HAL_TIM_PWM_Init+0xca>
 8003eaa:	f1b2 4f80 	cmp.w	r2, #1073741824	; 0x40000000
 8003eae:	d021      	beq.n	8003ef4 <HAL_TIM_PWM_Init+0x70>
 8003eb0:	f5a1 3194 	sub.w	r1, r1, #75776	; 0x12800
 8003eb4:	428a      	cmp	r2, r1
 8003eb6:	d01d      	beq.n	8003ef4 <HAL_TIM_PWM_Init+0x70>
 8003eb8:	f501 6180 	add.w	r1, r1, #1024	; 0x400
 8003ebc:	428a      	cmp	r2, r1
 8003ebe:	d019      	beq.n	8003ef4 <HAL_TIM_PWM_Init+0x70>
 8003ec0:	f501 3196 	add.w	r1, r1, #76800	; 0x12c00
 8003ec4:	428a      	cmp	r2, r1
 8003ec6:	d042      	beq.n	8003f4e <HAL_TIM_PWM_Init+0xca>
 8003ec8:	f501 6140 	add.w	r1, r1, #3072	; 0xc00
 8003ecc:	428a      	cmp	r2, r1
 8003ece:	d057      	beq.n	8003f80 <HAL_TIM_PWM_Init+0xfc>
 8003ed0:	f501 6180 	add.w	r1, r1, #1024	; 0x400
 8003ed4:	428a      	cmp	r2, r1
 8003ed6:	d053      	beq.n	8003f80 <HAL_TIM_PWM_Init+0xfc>
 8003ed8:	f501 6180 	add.w	r1, r1, #1024	; 0x400
 8003edc:	428a      	cmp	r2, r1
 8003ede:	d04f      	beq.n	8003f80 <HAL_TIM_PWM_Init+0xfc>
 8003ee0:	69a0      	ldr	r0, [r4, #24]
 8003ee2:	68e1      	ldr	r1, [r4, #12]
 8003ee4:	f023 0380 	bic.w	r3, r3, #128	; 0x80
 8003ee8:	4303      	orrs	r3, r0
 8003eea:	6013      	str	r3, [r2, #0]
 8003eec:	6863      	ldr	r3, [r4, #4]
 8003eee:	62d1      	str	r1, [r2, #44]	; 0x2c
 8003ef0:	6293      	str	r3, [r2, #40]	; 0x28
 8003ef2:	e010      	b.n	8003f16 <HAL_TIM_PWM_Init+0x92>
 8003ef4:	68a1      	ldr	r1, [r4, #8]
 8003ef6:	6920      	ldr	r0, [r4, #16]
 8003ef8:	f023 0370 	bic.w	r3, r3, #112	; 0x70
 8003efc:	430b      	orrs	r3, r1
 8003efe:	f423 7340 	bic.w	r3, r3, #768	; 0x300
 8003f02:	69a1      	ldr	r1, [r4, #24]
 8003f04:	4303      	orrs	r3, r0
 8003f06:	f023 0380 	bic.w	r3, r3, #128	; 0x80
 8003f0a:	68e0      	ldr	r0, [r4, #12]
 8003f0c:	430b      	orrs	r3, r1
 8003f0e:	6861      	ldr	r1, [r4, #4]
 8003f10:	6013      	str	r3, [r2, #0]
 8003f12:	62d0      	str	r0, [r2, #44]	; 0x2c
 8003f14:	6291      	str	r1, [r2, #40]	; 0x28
 8003f16:	2301      	movs	r3, #1
 8003f18:	6153      	str	r3, [r2, #20]
 8003f1a:	f884 3048 	strb.w	r3, [r4, #72]	; 0x48
 8003f1e:	f884 303e 	strb.w	r3, [r4, #62]	; 0x3e
 8003f22:	f884 303f 	strb.w	r3, [r4, #63]	; 0x3f
 8003f26:	f884 3040 	strb.w	r3, [r4, #64]	; 0x40
 8003f2a:	f884 3041 	strb.w	r3, [r4, #65]	; 0x41
 8003f2e:	f884 3042 	strb.w	r3, [r4, #66]	; 0x42
 8003f32:	f884 3043 	strb.w	r3, [r4, #67]	; 0x43
 8003f36:	f884 3044 	strb.w	r3, [r4, #68]	; 0x44
 8003f3a:	f884 3045 	strb.w	r3, [r4, #69]	; 0x45
 8003f3e:	f884 3046 	strb.w	r3, [r4, #70]	; 0x46
 8003f42:	f884 3047 	strb.w	r3, [r4, #71]	; 0x47
 8003f46:	f884 303d 	strb.w	r3, [r4, #61]	; 0x3d
 8003f4a:	2000      	movs	r0, #0
 8003f4c:	bd10      	pop	{r4, pc}
 8003f4e:	68a0      	ldr	r0, [r4, #8]
 8003f50:	6921      	ldr	r1, [r4, #16]
 8003f52:	f023 0370 	bic.w	r3, r3, #112	; 0x70
 8003f56:	4303      	orrs	r3, r0
 8003f58:	f423 7340 	bic.w	r3, r3, #768	; 0x300
 8003f5c:	430b      	orrs	r3, r1
 8003f5e:	69a1      	ldr	r1, [r4, #24]
 8003f60:	f023 0380 	bic.w	r3, r3, #128	; 0x80
 8003f64:	430b      	orrs	r3, r1
 8003f66:	6013      	str	r3, [r2, #0]
 8003f68:	68e3      	ldr	r3, [r4, #12]
 8003f6a:	62d3      	str	r3, [r2, #44]	; 0x2c
 8003f6c:	6863      	ldr	r3, [r4, #4]
 8003f6e:	6293      	str	r3, [r2, #40]	; 0x28
 8003f70:	6963      	ldr	r3, [r4, #20]
 8003f72:	6313      	str	r3, [r2, #48]	; 0x30
 8003f74:	e7cf      	b.n	8003f16 <HAL_TIM_PWM_Init+0x92>
 8003f76:	f880 203c 	strb.w	r2, [r0, #60]	; 0x3c
 8003f7a:	f7fd fd05 	bl	8001988 <HAL_TIM_PWM_MspInit>
 8003f7e:	e78c      	b.n	8003e9a <HAL_TIM_PWM_Init+0x16>
 8003f80:	6920      	ldr	r0, [r4, #16]
 8003f82:	69a1      	ldr	r1, [r4, #24]
 8003f84:	f423 7340 	bic.w	r3, r3, #768	; 0x300
 8003f88:	4303      	orrs	r3, r0
 8003f8a:	e7e9      	b.n	8003f60 <HAL_TIM_PWM_Init+0xdc>
 8003f8c:	2001      	movs	r0, #1
 8003f8e:	4770      	bx	lr
 8003f90:	40012c00 	.word	0x40012c00

08003f94 <HAL_TIM_PWM_Start>:
 8003f94:	2900      	cmp	r1, #0
 8003f96:	d14a      	bne.n	800402e <HAL_TIM_PWM_Start+0x9a>
 8003f98:	f890 303e 	ldrb.w	r3, [r0, #62]	; 0x3e
 8003f9c:	2b01      	cmp	r3, #1
 8003f9e:	d160      	bne.n	8004062 <HAL_TIM_PWM_Start+0xce>
 8003fa0:	2302      	movs	r3, #2
 8003fa2:	f880 303e 	strb.w	r3, [r0, #62]	; 0x3e
 8003fa6:	6803      	ldr	r3, [r0, #0]
 8003fa8:	2201      	movs	r2, #1
 8003faa:	6a18      	ldr	r0, [r3, #32]
 8003fac:	f001 011f 	and.w	r1, r1, #31
 8003fb0:	fa02 f101 	lsl.w	r1, r2, r1
 8003fb4:	ea20 0001 	bic.w	r0, r0, r1
 8003fb8:	6218      	str	r0, [r3, #32]
 8003fba:	6a18      	ldr	r0, [r3, #32]
 8003fbc:	4a3b      	ldr	r2, [pc, #236]	; (80040ac <HAL_TIM_PWM_Start+0x118>)
 8003fbe:	4301      	orrs	r1, r0
 8003fc0:	4293      	cmp	r3, r2
 8003fc2:	6219      	str	r1, [r3, #32]
 8003fc4:	d059      	beq.n	800407a <HAL_TIM_PWM_Start+0xe6>
 8003fc6:	f502 6200 	add.w	r2, r2, #2048	; 0x800
 8003fca:	4293      	cmp	r3, r2
 8003fcc:	d00b      	beq.n	8003fe6 <HAL_TIM_PWM_Start+0x52>
 8003fce:	f502 6240 	add.w	r2, r2, #3072	; 0xc00
 8003fd2:	4293      	cmp	r3, r2
 8003fd4:	d007      	beq.n	8003fe6 <HAL_TIM_PWM_Start+0x52>
 8003fd6:	f502 6280 	add.w	r2, r2, #1024	; 0x400
 8003fda:	4293      	cmp	r3, r2
 8003fdc:	d003      	beq.n	8003fe6 <HAL_TIM_PWM_Start+0x52>
 8003fde:	f502 6280 	add.w	r2, r2, #1024	; 0x400
 8003fe2:	4293      	cmp	r3, r2
 8003fe4:	d103      	bne.n	8003fee <HAL_TIM_PWM_Start+0x5a>
 8003fe6:	6c5a      	ldr	r2, [r3, #68]	; 0x44
 8003fe8:	f442 4200 	orr.w	r2, r2, #32768	; 0x8000
 8003fec:	645a      	str	r2, [r3, #68]	; 0x44
 8003fee:	f1b3 4f80 	cmp.w	r3, #1073741824	; 0x40000000
 8003ff2:	d00e      	beq.n	8004012 <HAL_TIM_PWM_Start+0x7e>
 8003ff4:	4a2e      	ldr	r2, [pc, #184]	; (80040b0 <HAL_TIM_PWM_Start+0x11c>)
 8003ff6:	4293      	cmp	r3, r2
 8003ff8:	d00b      	beq.n	8004012 <HAL_TIM_PWM_Start+0x7e>
 8003ffa:	f502 6280 	add.w	r2, r2, #1024	; 0x400
 8003ffe:	4293      	cmp	r3, r2
 8004000:	d007      	beq.n	8004012 <HAL_TIM_PWM_Start+0x7e>
 8004002:	f502 3296 	add.w	r2, r2, #76800	; 0x12c00
 8004006:	4293      	cmp	r3, r2
 8004008:	d003      	beq.n	8004012 <HAL_TIM_PWM_Start+0x7e>
 800400a:	f502 6240 	add.w	r2, r2, #3072	; 0xc00
 800400e:	4293      	cmp	r3, r2
 8004010:	d107      	bne.n	8004022 <HAL_TIM_PWM_Start+0x8e>
 8004012:	6899      	ldr	r1, [r3, #8]
 8004014:	4a27      	ldr	r2, [pc, #156]	; (80040b4 <HAL_TIM_PWM_Start+0x120>)
 8004016:	400a      	ands	r2, r1
 8004018:	2a06      	cmp	r2, #6
 800401a:	d024      	beq.n	8004066 <HAL_TIM_PWM_Start+0xd2>
 800401c:	f5b2 3f80 	cmp.w	r2, #65536	; 0x10000
 8004020:	d021      	beq.n	8004066 <HAL_TIM_PWM_Start+0xd2>
 8004022:	681a      	ldr	r2, [r3, #0]
 8004024:	f042 0201 	orr.w	r2, r2, #1
 8004028:	2000      	movs	r0, #0
 800402a:	601a      	str	r2, [r3, #0]
 800402c:	4770      	bx	lr
 800402e:	2904      	cmp	r1, #4
 8004030:	d01b      	beq.n	800406a <HAL_TIM_PWM_Start+0xd6>
 8004032:	2908      	cmp	r1, #8
 8004034:	d026      	beq.n	8004084 <HAL_TIM_PWM_Start+0xf0>
 8004036:	290c      	cmp	r1, #12
 8004038:	d00f      	beq.n	800405a <HAL_TIM_PWM_Start+0xc6>
 800403a:	2910      	cmp	r1, #16
 800403c:	d02e      	beq.n	800409c <HAL_TIM_PWM_Start+0x108>
 800403e:	f890 3043 	ldrb.w	r3, [r0, #67]	; 0x43
 8004042:	2b01      	cmp	r3, #1
 8004044:	d10d      	bne.n	8004062 <HAL_TIM_PWM_Start+0xce>
 8004046:	2908      	cmp	r1, #8
 8004048:	d020      	beq.n	800408c <HAL_TIM_PWM_Start+0xf8>
 800404a:	290c      	cmp	r1, #12
 800404c:	d022      	beq.n	8004094 <HAL_TIM_PWM_Start+0x100>
 800404e:	2910      	cmp	r1, #16
 8004050:	d028      	beq.n	80040a4 <HAL_TIM_PWM_Start+0x110>
 8004052:	2302      	movs	r3, #2
 8004054:	f880 3043 	strb.w	r3, [r0, #67]	; 0x43
 8004058:	e7a5      	b.n	8003fa6 <HAL_TIM_PWM_Start+0x12>
 800405a:	f890 3041 	ldrb.w	r3, [r0, #65]	; 0x41
 800405e:	2b01      	cmp	r3, #1
 8004060:	d018      	beq.n	8004094 <HAL_TIM_PWM_Start+0x100>
 8004062:	2001      	movs	r0, #1
 8004064:	4770      	bx	lr
 8004066:	2000      	movs	r0, #0
 8004068:	4770      	bx	lr
 800406a:	f890 303f 	ldrb.w	r3, [r0, #63]	; 0x3f
 800406e:	2b01      	cmp	r3, #1
 8004070:	d1f7      	bne.n	8004062 <HAL_TIM_PWM_Start+0xce>
 8004072:	2302      	movs	r3, #2
 8004074:	f880 303f 	strb.w	r3, [r0, #63]	; 0x3f
 8004078:	e795      	b.n	8003fa6 <HAL_TIM_PWM_Start+0x12>
 800407a:	6c5a      	ldr	r2, [r3, #68]	; 0x44
 800407c:	f442 4200 	orr.w	r2, r2, #32768	; 0x8000
 8004080:	645a      	str	r2, [r3, #68]	; 0x44
 8004082:	e7c6      	b.n	8004012 <HAL_TIM_PWM_Start+0x7e>
 8004084:	f890 3040 	ldrb.w	r3, [r0, #64]	; 0x40
 8004088:	2b01      	cmp	r3, #1
 800408a:	d1ea      	bne.n	8004062 <HAL_TIM_PWM_Start+0xce>
 800408c:	2302      	movs	r3, #2
 800408e:	f880 3040 	strb.w	r3, [r0, #64]	; 0x40
 8004092:	e788      	b.n	8003fa6 <HAL_TIM_PWM_Start+0x12>
 8004094:	2302      	movs	r3, #2
 8004096:	f880 3041 	strb.w	r3, [r0, #65]	; 0x41
 800409a:	e784      	b.n	8003fa6 <HAL_TIM_PWM_Start+0x12>
 800409c:	f890 3042 	ldrb.w	r3, [r0, #66]	; 0x42
 80040a0:	2b01      	cmp	r3, #1
 80040a2:	d1de      	bne.n	8004062 <HAL_TIM_PWM_Start+0xce>
 80040a4:	2302      	movs	r3, #2
 80040a6:	f880 3042 	strb.w	r3, [r0, #66]	; 0x42
 80040aa:	e77c      	b.n	8003fa6 <HAL_TIM_PWM_Start+0x12>
 80040ac:	40012c00 	.word	0x40012c00
 80040b0:	40000400 	.word	0x40000400
 80040b4:	00010007 	.word	0x00010007

080040b8 <TIM_OC2_SetConfig>:
 80040b8:	6a03      	ldr	r3, [r0, #32]
 80040ba:	f023 0310 	bic.w	r3, r3, #16
 80040be:	6203      	str	r3, [r0, #32]
 80040c0:	6a03      	ldr	r3, [r0, #32]
 80040c2:	b470      	push	{r4, r5, r6}
 80040c4:	6844      	ldr	r4, [r0, #4]
 80040c6:	6982      	ldr	r2, [r0, #24]
 80040c8:	680d      	ldr	r5, [r1, #0]
 80040ca:	f022 7280 	bic.w	r2, r2, #16777216	; 0x1000000
 80040ce:	f422 42e6 	bic.w	r2, r2, #29440	; 0x7300
 80040d2:	ea42 2205 	orr.w	r2, r2, r5, lsl #8
 80040d6:	688d      	ldr	r5, [r1, #8]
 80040d8:	f023 0320 	bic.w	r3, r3, #32
 80040dc:	ea43 1305 	orr.w	r3, r3, r5, lsl #4
 80040e0:	4d14      	ldr	r5, [pc, #80]	; (8004134 <TIM_OC2_SetConfig+0x7c>)
 80040e2:	42a8      	cmp	r0, r5
 80040e4:	d010      	beq.n	8004108 <TIM_OC2_SetConfig+0x50>
 80040e6:	f505 6500 	add.w	r5, r5, #2048	; 0x800
 80040ea:	42a8      	cmp	r0, r5
 80040ec:	d00c      	beq.n	8004108 <TIM_OC2_SetConfig+0x50>
 80040ee:	f505 6540 	add.w	r5, r5, #3072	; 0xc00
 80040f2:	42a8      	cmp	r0, r5
 80040f4:	d00f      	beq.n	8004116 <TIM_OC2_SetConfig+0x5e>
 80040f6:	f505 6580 	add.w	r5, r5, #1024	; 0x400
 80040fa:	42a8      	cmp	r0, r5
 80040fc:	d00b      	beq.n	8004116 <TIM_OC2_SetConfig+0x5e>
 80040fe:	f505 6580 	add.w	r5, r5, #1024	; 0x400
 8004102:	42a8      	cmp	r0, r5
 8004104:	d10f      	bne.n	8004126 <TIM_OC2_SetConfig+0x6e>
 8004106:	e006      	b.n	8004116 <TIM_OC2_SetConfig+0x5e>
 8004108:	68cd      	ldr	r5, [r1, #12]
 800410a:	f023 0380 	bic.w	r3, r3, #128	; 0x80
 800410e:	ea43 1305 	orr.w	r3, r3, r5, lsl #4
 8004112:	f023 0340 	bic.w	r3, r3, #64	; 0x40
 8004116:	e9d1 6505 	ldrd	r6, r5, [r1, #20]
 800411a:	f424 6440 	bic.w	r4, r4, #3072	; 0xc00
 800411e:	ea46 0c05 	orr.w	ip, r6, r5
 8004122:	ea44 048c 	orr.w	r4, r4, ip, lsl #2
 8004126:	6849      	ldr	r1, [r1, #4]
 8004128:	6044      	str	r4, [r0, #4]
 800412a:	6182      	str	r2, [r0, #24]
 800412c:	bc70      	pop	{r4, r5, r6}
 800412e:	6381      	str	r1, [r0, #56]	; 0x38
 8004130:	6203      	str	r3, [r0, #32]
 8004132:	4770      	bx	lr
 8004134:	40012c00 	.word	0x40012c00

08004138 <HAL_TIM_PWM_ConfigChannel>:
 8004138:	f890 303c 	ldrb.w	r3, [r0, #60]	; 0x3c
 800413c:	2b01      	cmp	r3, #1
 800413e:	f000 812b 	beq.w	8004398 <HAL_TIM_PWM_ConfigChannel+0x260>
 8004142:	2301      	movs	r3, #1
 8004144:	b570      	push	{r4, r5, r6, lr}
 8004146:	4604      	mov	r4, r0
 8004148:	460d      	mov	r5, r1
 800414a:	f880 303c 	strb.w	r3, [r0, #60]	; 0x3c
 800414e:	2a14      	cmp	r2, #20
 8004150:	d816      	bhi.n	8004180 <HAL_TIM_PWM_ConfigChannel+0x48>
 8004152:	e8df f012 	tbh	[pc, r2, lsl #1]
 8004156:	005d      	.short	0x005d
 8004158:	00150015 	.word	0x00150015
 800415c:	00720015 	.word	0x00720015
 8004160:	00150015 	.word	0x00150015
 8004164:	00880015 	.word	0x00880015
 8004168:	00150015 	.word	0x00150015
 800416c:	009d0015 	.word	0x009d0015
 8004170:	00150015 	.word	0x00150015
 8004174:	00e00015 	.word	0x00e00015
 8004178:	00150015 	.word	0x00150015
 800417c:	001a0015 	.word	0x001a0015
 8004180:	2300      	movs	r3, #0
 8004182:	f884 303c 	strb.w	r3, [r4, #60]	; 0x3c
 8004186:	2001      	movs	r0, #1
 8004188:	bd70      	pop	{r4, r5, r6, pc}
 800418a:	6803      	ldr	r3, [r0, #0]
 800418c:	682e      	ldr	r6, [r5, #0]
 800418e:	6a1a      	ldr	r2, [r3, #32]
 8004190:	f422 1280 	bic.w	r2, r2, #1048576	; 0x100000
 8004194:	621a      	str	r2, [r3, #32]
 8004196:	6a1a      	ldr	r2, [r3, #32]
 8004198:	6858      	ldr	r0, [r3, #4]
 800419a:	6d59      	ldr	r1, [r3, #84]	; 0x54
 800419c:	f021 7180 	bic.w	r1, r1, #16777216	; 0x1000000
 80041a0:	f421 41e0 	bic.w	r1, r1, #28672	; 0x7000
 80041a4:	ea41 2106 	orr.w	r1, r1, r6, lsl #8
 80041a8:	68ae      	ldr	r6, [r5, #8]
 80041aa:	f422 1200 	bic.w	r2, r2, #2097152	; 0x200000
 80041ae:	ea42 5206 	orr.w	r2, r2, r6, lsl #20
 80041b2:	4e7a      	ldr	r6, [pc, #488]	; (800439c <HAL_TIM_PWM_ConfigChannel+0x264>)
 80041b4:	42b3      	cmp	r3, r6
 80041b6:	d00f      	beq.n	80041d8 <HAL_TIM_PWM_ConfigChannel+0xa0>
 80041b8:	f506 6600 	add.w	r6, r6, #2048	; 0x800
 80041bc:	42b3      	cmp	r3, r6
 80041be:	d00b      	beq.n	80041d8 <HAL_TIM_PWM_ConfigChannel+0xa0>
 80041c0:	f506 6640 	add.w	r6, r6, #3072	; 0xc00
 80041c4:	42b3      	cmp	r3, r6
 80041c6:	d007      	beq.n	80041d8 <HAL_TIM_PWM_ConfigChannel+0xa0>
 80041c8:	f506 6680 	add.w	r6, r6, #1024	; 0x400
 80041cc:	42b3      	cmp	r3, r6
 80041ce:	d003      	beq.n	80041d8 <HAL_TIM_PWM_ConfigChannel+0xa0>
 80041d0:	f506 6680 	add.w	r6, r6, #1024	; 0x400
 80041d4:	42b3      	cmp	r3, r6
 80041d6:	d104      	bne.n	80041e2 <HAL_TIM_PWM_ConfigChannel+0xaa>
 80041d8:	696e      	ldr	r6, [r5, #20]
 80041da:	f420 2080 	bic.w	r0, r0, #262144	; 0x40000
 80041de:	ea40 2086 	orr.w	r0, r0, r6, lsl #10
 80041e2:	6058      	str	r0, [r3, #4]
 80041e4:	6559      	str	r1, [r3, #84]	; 0x54
 80041e6:	6869      	ldr	r1, [r5, #4]
 80041e8:	65d9      	str	r1, [r3, #92]	; 0x5c
 80041ea:	621a      	str	r2, [r3, #32]
 80041ec:	6d59      	ldr	r1, [r3, #84]	; 0x54
 80041ee:	692d      	ldr	r5, [r5, #16]
 80041f0:	f441 6100 	orr.w	r1, r1, #2048	; 0x800
 80041f4:	6559      	str	r1, [r3, #84]	; 0x54
 80041f6:	6d59      	ldr	r1, [r3, #84]	; 0x54
 80041f8:	f421 6180 	bic.w	r1, r1, #1024	; 0x400
 80041fc:	6559      	str	r1, [r3, #84]	; 0x54
 80041fe:	6d5a      	ldr	r2, [r3, #84]	; 0x54
 8004200:	ea42 2205 	orr.w	r2, r2, r5, lsl #8
 8004204:	655a      	str	r2, [r3, #84]	; 0x54
 8004206:	2300      	movs	r3, #0
 8004208:	f884 303c 	strb.w	r3, [r4, #60]	; 0x3c
 800420c:	2000      	movs	r0, #0
 800420e:	bd70      	pop	{r4, r5, r6, pc}
 8004210:	6800      	ldr	r0, [r0, #0]
 8004212:	f7ff fdbb 	bl	8003d8c <TIM_OC1_SetConfig>
 8004216:	6823      	ldr	r3, [r4, #0]
 8004218:	6928      	ldr	r0, [r5, #16]
 800421a:	6999      	ldr	r1, [r3, #24]
 800421c:	f041 0108 	orr.w	r1, r1, #8
 8004220:	6199      	str	r1, [r3, #24]
 8004222:	6999      	ldr	r1, [r3, #24]
 8004224:	f021 0104 	bic.w	r1, r1, #4
 8004228:	6199      	str	r1, [r3, #24]
 800422a:	699a      	ldr	r2, [r3, #24]
 800422c:	4302      	orrs	r2, r0
 800422e:	619a      	str	r2, [r3, #24]
 8004230:	2300      	movs	r3, #0
 8004232:	f884 303c 	strb.w	r3, [r4, #60]	; 0x3c
 8004236:	2000      	movs	r0, #0
 8004238:	bd70      	pop	{r4, r5, r6, pc}
 800423a:	6800      	ldr	r0, [r0, #0]
 800423c:	f7ff ff3c 	bl	80040b8 <TIM_OC2_SetConfig>
 8004240:	6823      	ldr	r3, [r4, #0]
 8004242:	6928      	ldr	r0, [r5, #16]
 8004244:	6999      	ldr	r1, [r3, #24]
 8004246:	f441 6100 	orr.w	r1, r1, #2048	; 0x800
 800424a:	6199      	str	r1, [r3, #24]
 800424c:	6999      	ldr	r1, [r3, #24]
 800424e:	f421 6180 	bic.w	r1, r1, #1024	; 0x400
 8004252:	6199      	str	r1, [r3, #24]
 8004254:	699a      	ldr	r2, [r3, #24]
 8004256:	ea42 2200 	orr.w	r2, r2, r0, lsl #8
 800425a:	619a      	str	r2, [r3, #24]
 800425c:	2300      	movs	r3, #0
 800425e:	f884 303c 	strb.w	r3, [r4, #60]	; 0x3c
 8004262:	2000      	movs	r0, #0
 8004264:	bd70      	pop	{r4, r5, r6, pc}
 8004266:	6800      	ldr	r0, [r0, #0]
 8004268:	f7ff fdcc 	bl	8003e04 <TIM_OC3_SetConfig>
 800426c:	6823      	ldr	r3, [r4, #0]
 800426e:	6928      	ldr	r0, [r5, #16]
 8004270:	69d9      	ldr	r1, [r3, #28]
 8004272:	f041 0108 	orr.w	r1, r1, #8
 8004276:	61d9      	str	r1, [r3, #28]
 8004278:	69d9      	ldr	r1, [r3, #28]
 800427a:	f021 0104 	bic.w	r1, r1, #4
 800427e:	61d9      	str	r1, [r3, #28]
 8004280:	69da      	ldr	r2, [r3, #28]
 8004282:	4302      	orrs	r2, r0
 8004284:	61da      	str	r2, [r3, #28]
 8004286:	2300      	movs	r3, #0
 8004288:	f884 303c 	strb.w	r3, [r4, #60]	; 0x3c
 800428c:	2000      	movs	r0, #0
 800428e:	bd70      	pop	{r4, r5, r6, pc}
 8004290:	6803      	ldr	r3, [r0, #0]
 8004292:	682e      	ldr	r6, [r5, #0]
 8004294:	6a1a      	ldr	r2, [r3, #32]
 8004296:	f422 5280 	bic.w	r2, r2, #4096	; 0x1000
 800429a:	621a      	str	r2, [r3, #32]
 800429c:	6a1a      	ldr	r2, [r3, #32]
 800429e:	6858      	ldr	r0, [r3, #4]
 80042a0:	69d9      	ldr	r1, [r3, #28]
 80042a2:	f021 7180 	bic.w	r1, r1, #16777216	; 0x1000000
 80042a6:	f421 41e6 	bic.w	r1, r1, #29440	; 0x7300
 80042aa:	ea41 2106 	orr.w	r1, r1, r6, lsl #8
 80042ae:	68ae      	ldr	r6, [r5, #8]
 80042b0:	f422 5200 	bic.w	r2, r2, #8192	; 0x2000
 80042b4:	ea42 3206 	orr.w	r2, r2, r6, lsl #12
 80042b8:	4e38      	ldr	r6, [pc, #224]	; (800439c <HAL_TIM_PWM_ConfigChannel+0x264>)
 80042ba:	42b3      	cmp	r3, r6
 80042bc:	d00f      	beq.n	80042de <HAL_TIM_PWM_ConfigChannel+0x1a6>
 80042be:	f506 6600 	add.w	r6, r6, #2048	; 0x800
 80042c2:	42b3      	cmp	r3, r6
 80042c4:	d00b      	beq.n	80042de <HAL_TIM_PWM_ConfigChannel+0x1a6>
 80042c6:	f506 6640 	add.w	r6, r6, #3072	; 0xc00
 80042ca:	42b3      	cmp	r3, r6
 80042cc:	d007      	beq.n	80042de <HAL_TIM_PWM_ConfigChannel+0x1a6>
 80042ce:	f506 6680 	add.w	r6, r6, #1024	; 0x400
 80042d2:	42b3      	cmp	r3, r6
 80042d4:	d003      	beq.n	80042de <HAL_TIM_PWM_ConfigChannel+0x1a6>
 80042d6:	f506 6680 	add.w	r6, r6, #1024	; 0x400
 80042da:	42b3      	cmp	r3, r6
 80042dc:	d104      	bne.n	80042e8 <HAL_TIM_PWM_ConfigChannel+0x1b0>
 80042de:	696e      	ldr	r6, [r5, #20]
 80042e0:	f420 4080 	bic.w	r0, r0, #16384	; 0x4000
 80042e4:	ea40 1086 	orr.w	r0, r0, r6, lsl #6
 80042e8:	6058      	str	r0, [r3, #4]
 80042ea:	61d9      	str	r1, [r3, #28]
 80042ec:	6869      	ldr	r1, [r5, #4]
 80042ee:	6419      	str	r1, [r3, #64]	; 0x40
 80042f0:	621a      	str	r2, [r3, #32]
 80042f2:	69d9      	ldr	r1, [r3, #28]
 80042f4:	692d      	ldr	r5, [r5, #16]
 80042f6:	f441 6100 	orr.w	r1, r1, #2048	; 0x800
 80042fa:	61d9      	str	r1, [r3, #28]
 80042fc:	69d9      	ldr	r1, [r3, #28]
 80042fe:	f421 6180 	bic.w	r1, r1, #1024	; 0x400
 8004302:	61d9      	str	r1, [r3, #28]
 8004304:	69da      	ldr	r2, [r3, #28]
 8004306:	ea42 2205 	orr.w	r2, r2, r5, lsl #8
 800430a:	61da      	str	r2, [r3, #28]
 800430c:	2300      	movs	r3, #0
 800430e:	f884 303c 	strb.w	r3, [r4, #60]	; 0x3c
 8004312:	2000      	movs	r0, #0
 8004314:	bd70      	pop	{r4, r5, r6, pc}
 8004316:	6803      	ldr	r3, [r0, #0]
 8004318:	682e      	ldr	r6, [r5, #0]
 800431a:	6a1a      	ldr	r2, [r3, #32]
 800431c:	f422 3280 	bic.w	r2, r2, #65536	; 0x10000
 8004320:	621a      	str	r2, [r3, #32]
 8004322:	6a1a      	ldr	r2, [r3, #32]
 8004324:	6858      	ldr	r0, [r3, #4]
 8004326:	6d59      	ldr	r1, [r3, #84]	; 0x54
 8004328:	f421 3180 	bic.w	r1, r1, #65536	; 0x10000
 800432c:	f021 0170 	bic.w	r1, r1, #112	; 0x70
 8004330:	4331      	orrs	r1, r6
 8004332:	68ae      	ldr	r6, [r5, #8]
 8004334:	f422 3200 	bic.w	r2, r2, #131072	; 0x20000
 8004338:	ea42 4206 	orr.w	r2, r2, r6, lsl #16
 800433c:	4e17      	ldr	r6, [pc, #92]	; (800439c <HAL_TIM_PWM_ConfigChannel+0x264>)
 800433e:	42b3      	cmp	r3, r6
 8004340:	d00f      	beq.n	8004362 <HAL_TIM_PWM_ConfigChannel+0x22a>
 8004342:	f506 6600 	add.w	r6, r6, #2048	; 0x800
 8004346:	42b3      	cmp	r3, r6
 8004348:	d00b      	beq.n	8004362 <HAL_TIM_PWM_ConfigChannel+0x22a>
 800434a:	f506 6640 	add.w	r6, r6, #3072	; 0xc00
 800434e:	42b3      	cmp	r3, r6
 8004350:	d007      	beq.n	8004362 <HAL_TIM_PWM_ConfigChannel+0x22a>
 8004352:	f506 6680 	add.w	r6, r6, #1024	; 0x400
 8004356:	42b3      	cmp	r3, r6
 8004358:	d003      	beq.n	8004362 <HAL_TIM_PWM_ConfigChannel+0x22a>
 800435a:	f506 6680 	add.w	r6, r6, #1024	; 0x400
 800435e:	42b3      	cmp	r3, r6
 8004360:	d104      	bne.n	800436c <HAL_TIM_PWM_ConfigChannel+0x234>
 8004362:	696e      	ldr	r6, [r5, #20]
 8004364:	f420 3080 	bic.w	r0, r0, #65536	; 0x10000
 8004368:	ea40 2006 	orr.w	r0, r0, r6, lsl #8
 800436c:	6058      	str	r0, [r3, #4]
 800436e:	6559      	str	r1, [r3, #84]	; 0x54
 8004370:	6869      	ldr	r1, [r5, #4]
 8004372:	6599      	str	r1, [r3, #88]	; 0x58
 8004374:	621a      	str	r2, [r3, #32]
 8004376:	6d59      	ldr	r1, [r3, #84]	; 0x54
 8004378:	692d      	ldr	r5, [r5, #16]
 800437a:	f041 0108 	orr.w	r1, r1, #8
 800437e:	6559      	str	r1, [r3, #84]	; 0x54
 8004380:	6d59      	ldr	r1, [r3, #84]	; 0x54
 8004382:	f021 0104 	bic.w	r1, r1, #4
 8004386:	6559      	str	r1, [r3, #84]	; 0x54
 8004388:	6d5a      	ldr	r2, [r3, #84]	; 0x54
 800438a:	432a      	orrs	r2, r5
 800438c:	655a      	str	r2, [r3, #84]	; 0x54
 800438e:	2300      	movs	r3, #0
 8004390:	f884 303c 	strb.w	r3, [r4, #60]	; 0x3c
 8004394:	2000      	movs	r0, #0
 8004396:	bd70      	pop	{r4, r5, r6, pc}
 8004398:	2002      	movs	r0, #2
 800439a:	4770      	bx	lr
 800439c:	40012c00 	.word	0x40012c00

080043a0 <HAL_TIMEx_MasterConfigSynchronization>:
 80043a0:	f890 303c 	ldrb.w	r3, [r0, #60]	; 0x3c
 80043a4:	2b01      	cmp	r3, #1
 80043a6:	d03a      	beq.n	800441e <HAL_TIMEx_MasterConfigSynchronization+0x7e>
 80043a8:	b470      	push	{r4, r5, r6}
 80043aa:	6802      	ldr	r2, [r0, #0]
 80043ac:	4d1d      	ldr	r5, [pc, #116]	; (8004424 <HAL_TIMEx_MasterConfigSynchronization+0x84>)
 80043ae:	2302      	movs	r3, #2
 80043b0:	f880 303d 	strb.w	r3, [r0, #61]	; 0x3d
 80043b4:	42aa      	cmp	r2, r5
 80043b6:	6853      	ldr	r3, [r2, #4]
 80043b8:	6894      	ldr	r4, [r2, #8]
 80043ba:	d026      	beq.n	800440a <HAL_TIMEx_MasterConfigSynchronization+0x6a>
 80043bc:	f505 6500 	add.w	r5, r5, #2048	; 0x800
 80043c0:	42aa      	cmp	r2, r5
 80043c2:	d022      	beq.n	800440a <HAL_TIMEx_MasterConfigSynchronization+0x6a>
 80043c4:	680e      	ldr	r6, [r1, #0]
 80043c6:	f023 0370 	bic.w	r3, r3, #112	; 0x70
 80043ca:	4333      	orrs	r3, r6
 80043cc:	f1b2 4f80 	cmp.w	r2, #1073741824	; 0x40000000
 80043d0:	6053      	str	r3, [r2, #4]
 80043d2:	d00c      	beq.n	80043ee <HAL_TIMEx_MasterConfigSynchronization+0x4e>
 80043d4:	4b14      	ldr	r3, [pc, #80]	; (8004428 <HAL_TIMEx_MasterConfigSynchronization+0x88>)
 80043d6:	429a      	cmp	r2, r3
 80043d8:	d009      	beq.n	80043ee <HAL_TIMEx_MasterConfigSynchronization+0x4e>
 80043da:	f503 6380 	add.w	r3, r3, #1024	; 0x400
 80043de:	429a      	cmp	r2, r3
 80043e0:	d005      	beq.n	80043ee <HAL_TIMEx_MasterConfigSynchronization+0x4e>
 80043e2:	42aa      	cmp	r2, r5
 80043e4:	d003      	beq.n	80043ee <HAL_TIMEx_MasterConfigSynchronization+0x4e>
 80043e6:	f503 339c 	add.w	r3, r3, #79872	; 0x13800
 80043ea:	429a      	cmp	r2, r3
 80043ec:	d104      	bne.n	80043f8 <HAL_TIMEx_MasterConfigSynchronization+0x58>
 80043ee:	688b      	ldr	r3, [r1, #8]
 80043f0:	f024 0480 	bic.w	r4, r4, #128	; 0x80
 80043f4:	431c      	orrs	r4, r3
 80043f6:	6094      	str	r4, [r2, #8]
 80043f8:	2300      	movs	r3, #0
 80043fa:	2201      	movs	r2, #1
 80043fc:	f880 203d 	strb.w	r2, [r0, #61]	; 0x3d
 8004400:	f880 303c 	strb.w	r3, [r0, #60]	; 0x3c
 8004404:	bc70      	pop	{r4, r5, r6}
 8004406:	4618      	mov	r0, r3
 8004408:	4770      	bx	lr
 800440a:	684d      	ldr	r5, [r1, #4]
 800440c:	f423 0370 	bic.w	r3, r3, #15728640	; 0xf00000
 8004410:	432b      	orrs	r3, r5
 8004412:	680d      	ldr	r5, [r1, #0]
 8004414:	f023 0370 	bic.w	r3, r3, #112	; 0x70
 8004418:	432b      	orrs	r3, r5
 800441a:	6053      	str	r3, [r2, #4]
 800441c:	e7e7      	b.n	80043ee <HAL_TIMEx_MasterConfigSynchronization+0x4e>
 800441e:	2002      	movs	r0, #2
 8004420:	4770      	bx	lr
 8004422:	bf00      	nop
 8004424:	40012c00 	.word	0x40012c00
 8004428:	40000400 	.word	0x40000400

0800442c <UART_SetConfig>:
 800442c:	b538      	push	{r3, r4, r5, lr}
 800442e:	4604      	mov	r4, r0
 8004430:	6802      	ldr	r2, [r0, #0]
 8004432:	6883      	ldr	r3, [r0, #8]
 8004434:	6925      	ldr	r5, [r4, #16]
 8004436:	6810      	ldr	r0, [r2, #0]
 8004438:	69e1      	ldr	r1, [r4, #28]
 800443a:	432b      	orrs	r3, r5
 800443c:	6965      	ldr	r5, [r4, #20]
 800443e:	f420 4016 	bic.w	r0, r0, #38400	; 0x9600
 8004442:	432b      	orrs	r3, r5
 8004444:	f020 000c 	bic.w	r0, r0, #12
 8004448:	430b      	orrs	r3, r1
 800444a:	4303      	orrs	r3, r0
 800444c:	6013      	str	r3, [r2, #0]
 800444e:	6853      	ldr	r3, [r2, #4]
 8004450:	68e0      	ldr	r0, [r4, #12]
 8004452:	6a25      	ldr	r5, [r4, #32]
 8004454:	f423 5340 	bic.w	r3, r3, #12288	; 0x3000
 8004458:	4303      	orrs	r3, r0
 800445a:	6053      	str	r3, [r2, #4]
 800445c:	6890      	ldr	r0, [r2, #8]
 800445e:	69a3      	ldr	r3, [r4, #24]
 8004460:	f420 6030 	bic.w	r0, r0, #2816	; 0xb00
 8004464:	432b      	orrs	r3, r5
 8004466:	4303      	orrs	r3, r0
 8004468:	487d      	ldr	r0, [pc, #500]	; (8004660 <UART_SetConfig+0x234>)
 800446a:	6093      	str	r3, [r2, #8]
 800446c:	4282      	cmp	r2, r0
 800446e:	d046      	beq.n	80044fe <UART_SetConfig+0xd2>
 8004470:	4b7c      	ldr	r3, [pc, #496]	; (8004664 <UART_SetConfig+0x238>)
 8004472:	429a      	cmp	r2, r3
 8004474:	d00f      	beq.n	8004496 <UART_SetConfig+0x6a>
 8004476:	4b7c      	ldr	r3, [pc, #496]	; (8004668 <UART_SetConfig+0x23c>)
 8004478:	429a      	cmp	r2, r3
 800447a:	f000 80a3 	beq.w	80045c4 <UART_SetConfig+0x198>
 800447e:	4b7b      	ldr	r3, [pc, #492]	; (800466c <UART_SetConfig+0x240>)
 8004480:	429a      	cmp	r2, r3
 8004482:	f000 80b4 	beq.w	80045ee <UART_SetConfig+0x1c2>
 8004486:	4b7a      	ldr	r3, [pc, #488]	; (8004670 <UART_SetConfig+0x244>)
 8004488:	429a      	cmp	r2, r3
 800448a:	d063      	beq.n	8004554 <UART_SetConfig+0x128>
 800448c:	2300      	movs	r3, #0
 800448e:	e9c4 3319 	strd	r3, r3, [r4, #100]	; 0x64
 8004492:	2001      	movs	r0, #1
 8004494:	bd38      	pop	{r3, r4, r5, pc}
 8004496:	f503 33e6 	add.w	r3, r3, #117760	; 0x1cc00
 800449a:	6b1b      	ldr	r3, [r3, #48]	; 0x30
 800449c:	f403 3340 	and.w	r3, r3, #196608	; 0x30000
 80044a0:	f5b3 3f00 	cmp.w	r3, #131072	; 0x20000
 80044a4:	d069      	beq.n	800457a <UART_SetConfig+0x14e>
 80044a6:	d80f      	bhi.n	80044c8 <UART_SetConfig+0x9c>
 80044a8:	2b00      	cmp	r3, #0
 80044aa:	d05c      	beq.n	8004566 <UART_SetConfig+0x13a>
 80044ac:	f5b3 3f80 	cmp.w	r3, #65536	; 0x10000
 80044b0:	d1ec      	bne.n	800448c <UART_SetConfig+0x60>
 80044b2:	f5b1 4f00 	cmp.w	r1, #32768	; 0x8000
 80044b6:	d066      	beq.n	8004586 <UART_SetConfig+0x15a>
 80044b8:	f7fe ffcc 	bl	8003454 <HAL_RCC_GetSysClockFreq>
 80044bc:	b960      	cbnz	r0, 80044d8 <UART_SetConfig+0xac>
 80044be:	2300      	movs	r3, #0
 80044c0:	e9c4 3319 	strd	r3, r3, [r4, #100]	; 0x64
 80044c4:	2000      	movs	r0, #0
 80044c6:	bd38      	pop	{r3, r4, r5, pc}
 80044c8:	f5b3 3f40 	cmp.w	r3, #196608	; 0x30000
 80044cc:	d1de      	bne.n	800448c <UART_SetConfig+0x60>
 80044ce:	f5b1 4f00 	cmp.w	r1, #32768	; 0x8000
 80044d2:	f000 80c2 	beq.w	800465a <UART_SetConfig+0x22e>
 80044d6:	4867      	ldr	r0, [pc, #412]	; (8004674 <UART_SetConfig+0x248>)
 80044d8:	6863      	ldr	r3, [r4, #4]
 80044da:	eb00 0053 	add.w	r0, r0, r3, lsr #1
 80044de:	fbb0 f3f3 	udiv	r3, r0, r3
 80044e2:	b29b      	uxth	r3, r3
 80044e4:	f64f 72ef 	movw	r2, #65519	; 0xffef
 80044e8:	f1a3 0110 	sub.w	r1, r3, #16
 80044ec:	4291      	cmp	r1, r2
 80044ee:	d8cd      	bhi.n	800448c <UART_SetConfig+0x60>
 80044f0:	6822      	ldr	r2, [r4, #0]
 80044f2:	60d3      	str	r3, [r2, #12]
 80044f4:	2300      	movs	r3, #0
 80044f6:	e9c4 3319 	strd	r3, r3, [r4, #100]	; 0x64
 80044fa:	2000      	movs	r0, #0
 80044fc:	bd38      	pop	{r3, r4, r5, pc}
 80044fe:	4b5e      	ldr	r3, [pc, #376]	; (8004678 <UART_SetConfig+0x24c>)
 8004500:	6b1b      	ldr	r3, [r3, #48]	; 0x30
 8004502:	f003 0303 	and.w	r3, r3, #3
 8004506:	3b01      	subs	r3, #1
 8004508:	2b02      	cmp	r3, #2
 800450a:	d906      	bls.n	800451a <UART_SetConfig+0xee>
 800450c:	f5b1 4f00 	cmp.w	r1, #32768	; 0x8000
 8004510:	f000 8082 	beq.w	8004618 <UART_SetConfig+0x1ec>
 8004514:	f7fe ffec 	bl	80034f0 <HAL_RCC_GetPCLK2Freq>
 8004518:	e7d0      	b.n	80044bc <UART_SetConfig+0x90>
 800451a:	4a58      	ldr	r2, [pc, #352]	; (800467c <UART_SetConfig+0x250>)
 800451c:	f5b1 4f00 	cmp.w	r1, #32768	; 0x8000
 8004520:	5cd3      	ldrb	r3, [r2, r3]
 8004522:	d07f      	beq.n	8004624 <UART_SetConfig+0x1f8>
 8004524:	2b08      	cmp	r3, #8
 8004526:	d8b1      	bhi.n	800448c <UART_SetConfig+0x60>
 8004528:	a201      	add	r2, pc, #4	; (adr r2, 8004530 <UART_SetConfig+0x104>)
 800452a:	f852 f023 	ldr.w	pc, [r2, r3, lsl #2]
 800452e:	bf00      	nop
 8004530:	0800456d 	.word	0x0800456d
 8004534:	08004515 	.word	0x08004515
 8004538:	080044d7 	.word	0x080044d7
 800453c:	0800448d 	.word	0x0800448d
 8004540:	080044b9 	.word	0x080044b9
 8004544:	0800448d 	.word	0x0800448d
 8004548:	0800448d 	.word	0x0800448d
 800454c:	0800448d 	.word	0x0800448d
 8004550:	08004581 	.word	0x08004581
 8004554:	4b48      	ldr	r3, [pc, #288]	; (8004678 <UART_SetConfig+0x24c>)
 8004556:	6b1b      	ldr	r3, [r3, #48]	; 0x30
 8004558:	f403 0340 	and.w	r3, r3, #12582912	; 0xc00000
 800455c:	f5b3 0f00 	cmp.w	r3, #8388608	; 0x800000
 8004560:	d00b      	beq.n	800457a <UART_SetConfig+0x14e>
 8004562:	d82b      	bhi.n	80045bc <UART_SetConfig+0x190>
 8004564:	b92b      	cbnz	r3, 8004572 <UART_SetConfig+0x146>
 8004566:	f5b1 4f00 	cmp.w	r1, #32768	; 0x8000
 800456a:	d058      	beq.n	800461e <UART_SetConfig+0x1f2>
 800456c:	f7fe ffa8 	bl	80034c0 <HAL_RCC_GetPCLK1Freq>
 8004570:	e7a4      	b.n	80044bc <UART_SetConfig+0x90>
 8004572:	f5b3 0f80 	cmp.w	r3, #4194304	; 0x400000
 8004576:	d09c      	beq.n	80044b2 <UART_SetConfig+0x86>
 8004578:	e788      	b.n	800448c <UART_SetConfig+0x60>
 800457a:	f5b1 4f00 	cmp.w	r1, #32768	; 0x8000
 800457e:	d069      	beq.n	8004654 <UART_SetConfig+0x228>
 8004580:	f44f 4000 	mov.w	r0, #32768	; 0x8000
 8004584:	e7a8      	b.n	80044d8 <UART_SetConfig+0xac>
 8004586:	f7fe ff65 	bl	8003454 <HAL_RCC_GetSysClockFreq>
 800458a:	2800      	cmp	r0, #0
 800458c:	d097      	beq.n	80044be <UART_SetConfig+0x92>
 800458e:	0043      	lsls	r3, r0, #1
 8004590:	6862      	ldr	r2, [r4, #4]
 8004592:	eb03 0352 	add.w	r3, r3, r2, lsr #1
 8004596:	fbb3 f3f2 	udiv	r3, r3, r2
 800459a:	b29a      	uxth	r2, r3
 800459c:	f1a2 0010 	sub.w	r0, r2, #16
 80045a0:	f64f 71ef 	movw	r1, #65519	; 0xffef
 80045a4:	4288      	cmp	r0, r1
 80045a6:	f63f af71 	bhi.w	800448c <UART_SetConfig+0x60>
 80045aa:	f023 030f 	bic.w	r3, r3, #15
 80045ae:	6821      	ldr	r1, [r4, #0]
 80045b0:	b29b      	uxth	r3, r3
 80045b2:	f3c2 0242 	ubfx	r2, r2, #1, #3
 80045b6:	4313      	orrs	r3, r2
 80045b8:	60cb      	str	r3, [r1, #12]
 80045ba:	e780      	b.n	80044be <UART_SetConfig+0x92>
 80045bc:	f5b3 0f40 	cmp.w	r3, #12582912	; 0xc00000
 80045c0:	d085      	beq.n	80044ce <UART_SetConfig+0xa2>
 80045c2:	e763      	b.n	800448c <UART_SetConfig+0x60>
 80045c4:	f503 33e4 	add.w	r3, r3, #116736	; 0x1c800
 80045c8:	6b1b      	ldr	r3, [r3, #48]	; 0x30
 80045ca:	f403 2340 	and.w	r3, r3, #786432	; 0xc0000
 80045ce:	f5b3 2f00 	cmp.w	r3, #524288	; 0x80000
 80045d2:	d0d2      	beq.n	800457a <UART_SetConfig+0x14e>
 80045d4:	d806      	bhi.n	80045e4 <UART_SetConfig+0x1b8>
 80045d6:	2b00      	cmp	r3, #0
 80045d8:	d0c5      	beq.n	8004566 <UART_SetConfig+0x13a>
 80045da:	f5b3 2f80 	cmp.w	r3, #262144	; 0x40000
 80045de:	f43f af68 	beq.w	80044b2 <UART_SetConfig+0x86>
 80045e2:	e753      	b.n	800448c <UART_SetConfig+0x60>
 80045e4:	f5b3 2f40 	cmp.w	r3, #786432	; 0xc0000
 80045e8:	f43f af71 	beq.w	80044ce <UART_SetConfig+0xa2>
 80045ec:	e74e      	b.n	800448c <UART_SetConfig+0x60>
 80045ee:	f503 33e2 	add.w	r3, r3, #115712	; 0x1c400
 80045f2:	6b1b      	ldr	r3, [r3, #48]	; 0x30
 80045f4:	f403 1340 	and.w	r3, r3, #3145728	; 0x300000
 80045f8:	f5b3 1f00 	cmp.w	r3, #2097152	; 0x200000
 80045fc:	d0bd      	beq.n	800457a <UART_SetConfig+0x14e>
 80045fe:	d806      	bhi.n	800460e <UART_SetConfig+0x1e2>
 8004600:	2b00      	cmp	r3, #0
 8004602:	d0b0      	beq.n	8004566 <UART_SetConfig+0x13a>
 8004604:	f5b3 1f80 	cmp.w	r3, #1048576	; 0x100000
 8004608:	f43f af53 	beq.w	80044b2 <UART_SetConfig+0x86>
 800460c:	e73e      	b.n	800448c <UART_SetConfig+0x60>
 800460e:	f5b3 1f40 	cmp.w	r3, #3145728	; 0x300000
 8004612:	f43f af5c 	beq.w	80044ce <UART_SetConfig+0xa2>
 8004616:	e739      	b.n	800448c <UART_SetConfig+0x60>
 8004618:	f7fe ff6a 	bl	80034f0 <HAL_RCC_GetPCLK2Freq>
 800461c:	e7b5      	b.n	800458a <UART_SetConfig+0x15e>
 800461e:	f7fe ff4f 	bl	80034c0 <HAL_RCC_GetPCLK1Freq>
 8004622:	e7b2      	b.n	800458a <UART_SetConfig+0x15e>
 8004624:	2b08      	cmp	r3, #8
 8004626:	f63f af31 	bhi.w	800448c <UART_SetConfig+0x60>
 800462a:	a201      	add	r2, pc, #4	; (adr r2, 8004630 <UART_SetConfig+0x204>)
 800462c:	f852 f023 	ldr.w	pc, [r2, r3, lsl #2]
 8004630:	0800461f 	.word	0x0800461f
 8004634:	08004619 	.word	0x08004619
 8004638:	0800465b 	.word	0x0800465b
 800463c:	0800448d 	.word	0x0800448d
 8004640:	08004587 	.word	0x08004587
 8004644:	0800448d 	.word	0x0800448d
 8004648:	0800448d 	.word	0x0800448d
 800464c:	0800448d 	.word	0x0800448d
 8004650:	08004655 	.word	0x08004655
 8004654:	f44f 3380 	mov.w	r3, #65536	; 0x10000
 8004658:	e79a      	b.n	8004590 <UART_SetConfig+0x164>
 800465a:	4b09      	ldr	r3, [pc, #36]	; (8004680 <UART_SetConfig+0x254>)
 800465c:	e798      	b.n	8004590 <UART_SetConfig+0x164>
 800465e:	bf00      	nop
 8004660:	40013800 	.word	0x40013800
 8004664:	40004400 	.word	0x40004400
 8004668:	40004800 	.word	0x40004800
 800466c:	40004c00 	.word	0x40004c00
 8004670:	40005000 	.word	0x40005000
 8004674:	007a1200 	.word	0x007a1200
 8004678:	40021000 	.word	0x40021000
 800467c:	08007764 	.word	0x08007764
 8004680:	00f42400 	.word	0x00f42400

08004684 <UART_AdvFeatureConfig>:
 8004684:	6a43      	ldr	r3, [r0, #36]	; 0x24
 8004686:	07da      	lsls	r2, r3, #31
 8004688:	b410      	push	{r4}
 800468a:	d506      	bpl.n	800469a <UART_AdvFeatureConfig+0x16>
 800468c:	6801      	ldr	r1, [r0, #0]
 800468e:	6a84      	ldr	r4, [r0, #40]	; 0x28
 8004690:	684a      	ldr	r2, [r1, #4]
 8004692:	f422 3200 	bic.w	r2, r2, #131072	; 0x20000
 8004696:	4322      	orrs	r2, r4
 8004698:	604a      	str	r2, [r1, #4]
 800469a:	079c      	lsls	r4, r3, #30
 800469c:	d506      	bpl.n	80046ac <UART_AdvFeatureConfig+0x28>
 800469e:	6801      	ldr	r1, [r0, #0]
 80046a0:	6ac4      	ldr	r4, [r0, #44]	; 0x2c
 80046a2:	684a      	ldr	r2, [r1, #4]
 80046a4:	f422 3280 	bic.w	r2, r2, #65536	; 0x10000
 80046a8:	4322      	orrs	r2, r4
 80046aa:	604a      	str	r2, [r1, #4]
 80046ac:	0759      	lsls	r1, r3, #29
 80046ae:	d506      	bpl.n	80046be <UART_AdvFeatureConfig+0x3a>
 80046b0:	6801      	ldr	r1, [r0, #0]
 80046b2:	6b04      	ldr	r4, [r0, #48]	; 0x30
 80046b4:	684a      	ldr	r2, [r1, #4]
 80046b6:	f422 2280 	bic.w	r2, r2, #262144	; 0x40000
 80046ba:	4322      	orrs	r2, r4
 80046bc:	604a      	str	r2, [r1, #4]
 80046be:	071a      	lsls	r2, r3, #28
 80046c0:	d506      	bpl.n	80046d0 <UART_AdvFeatureConfig+0x4c>
 80046c2:	6801      	ldr	r1, [r0, #0]
 80046c4:	6b44      	ldr	r4, [r0, #52]	; 0x34
 80046c6:	684a      	ldr	r2, [r1, #4]
 80046c8:	f422 4200 	bic.w	r2, r2, #32768	; 0x8000
 80046cc:	4322      	orrs	r2, r4
 80046ce:	604a      	str	r2, [r1, #4]
 80046d0:	06dc      	lsls	r4, r3, #27
 80046d2:	d506      	bpl.n	80046e2 <UART_AdvFeatureConfig+0x5e>
 80046d4:	6801      	ldr	r1, [r0, #0]
 80046d6:	6b84      	ldr	r4, [r0, #56]	; 0x38
 80046d8:	688a      	ldr	r2, [r1, #8]
 80046da:	f422 5280 	bic.w	r2, r2, #4096	; 0x1000
 80046de:	4322      	orrs	r2, r4
 80046e0:	608a      	str	r2, [r1, #8]
 80046e2:	0699      	lsls	r1, r3, #26
 80046e4:	d506      	bpl.n	80046f4 <UART_AdvFeatureConfig+0x70>
 80046e6:	6801      	ldr	r1, [r0, #0]
 80046e8:	6bc4      	ldr	r4, [r0, #60]	; 0x3c
 80046ea:	688a      	ldr	r2, [r1, #8]
 80046ec:	f422 5200 	bic.w	r2, r2, #8192	; 0x2000
 80046f0:	4322      	orrs	r2, r4
 80046f2:	608a      	str	r2, [r1, #8]
 80046f4:	065a      	lsls	r2, r3, #25
 80046f6:	d509      	bpl.n	800470c <UART_AdvFeatureConfig+0x88>
 80046f8:	6801      	ldr	r1, [r0, #0]
 80046fa:	6c04      	ldr	r4, [r0, #64]	; 0x40
 80046fc:	684a      	ldr	r2, [r1, #4]
 80046fe:	f422 1280 	bic.w	r2, r2, #1048576	; 0x100000
 8004702:	4322      	orrs	r2, r4
 8004704:	f5b4 1f80 	cmp.w	r4, #1048576	; 0x100000
 8004708:	604a      	str	r2, [r1, #4]
 800470a:	d00b      	beq.n	8004724 <UART_AdvFeatureConfig+0xa0>
 800470c:	061b      	lsls	r3, r3, #24
 800470e:	d506      	bpl.n	800471e <UART_AdvFeatureConfig+0x9a>
 8004710:	6802      	ldr	r2, [r0, #0]
 8004712:	6c81      	ldr	r1, [r0, #72]	; 0x48
 8004714:	6853      	ldr	r3, [r2, #4]
 8004716:	f423 2300 	bic.w	r3, r3, #524288	; 0x80000
 800471a:	430b      	orrs	r3, r1
 800471c:	6053      	str	r3, [r2, #4]
 800471e:	f85d 4b04 	ldr.w	r4, [sp], #4
 8004722:	4770      	bx	lr
 8004724:	684a      	ldr	r2, [r1, #4]
 8004726:	6c44      	ldr	r4, [r0, #68]	; 0x44
 8004728:	f422 02c0 	bic.w	r2, r2, #6291456	; 0x600000
 800472c:	4322      	orrs	r2, r4
 800472e:	604a      	str	r2, [r1, #4]
 8004730:	e7ec      	b.n	800470c <UART_AdvFeatureConfig+0x88>
 8004732:	bf00      	nop

08004734 <UART_WaitOnFlagUntilTimeout>:
 8004734:	e92d 43f8 	stmdb	sp!, {r3, r4, r5, r6, r7, r8, r9, lr}
 8004738:	f8dd 8020 	ldr.w	r8, [sp, #32]
 800473c:	6804      	ldr	r4, [r0, #0]
 800473e:	4607      	mov	r7, r0
 8004740:	460e      	mov	r6, r1
 8004742:	4615      	mov	r5, r2
 8004744:	4699      	mov	r9, r3
 8004746:	f1b8 3fff 	cmp.w	r8, #4294967295
 800474a:	d10a      	bne.n	8004762 <UART_WaitOnFlagUntilTimeout+0x2e>
 800474c:	69e3      	ldr	r3, [r4, #28]
 800474e:	ea36 0303 	bics.w	r3, r6, r3
 8004752:	bf0c      	ite	eq
 8004754:	2301      	moveq	r3, #1
 8004756:	2300      	movne	r3, #0
 8004758:	429d      	cmp	r5, r3
 800475a:	d0f7      	beq.n	800474c <UART_WaitOnFlagUntilTimeout+0x18>
 800475c:	2000      	movs	r0, #0
 800475e:	e8bd 83f8 	ldmia.w	sp!, {r3, r4, r5, r6, r7, r8, r9, pc}
 8004762:	69e3      	ldr	r3, [r4, #28]
 8004764:	ea36 0303 	bics.w	r3, r6, r3
 8004768:	bf0c      	ite	eq
 800476a:	2301      	moveq	r3, #1
 800476c:	2300      	movne	r3, #0
 800476e:	42ab      	cmp	r3, r5
 8004770:	d1f4      	bne.n	800475c <UART_WaitOnFlagUntilTimeout+0x28>
 8004772:	f7fd fad3 	bl	8001d1c <HAL_GetTick>
 8004776:	eba0 0009 	sub.w	r0, r0, r9
 800477a:	4540      	cmp	r0, r8
 800477c:	d831      	bhi.n	80047e2 <UART_WaitOnFlagUntilTimeout+0xae>
 800477e:	f1b8 0f00 	cmp.w	r8, #0
 8004782:	d02e      	beq.n	80047e2 <UART_WaitOnFlagUntilTimeout+0xae>
 8004784:	683c      	ldr	r4, [r7, #0]
 8004786:	6823      	ldr	r3, [r4, #0]
 8004788:	0759      	lsls	r1, r3, #29
 800478a:	4622      	mov	r2, r4
 800478c:	d5db      	bpl.n	8004746 <UART_WaitOnFlagUntilTimeout+0x12>
 800478e:	69e3      	ldr	r3, [r4, #28]
 8004790:	051b      	lsls	r3, r3, #20
 8004792:	d5d8      	bpl.n	8004746 <UART_WaitOnFlagUntilTimeout+0x12>
 8004794:	f44f 6300 	mov.w	r3, #2048	; 0x800
 8004798:	6223      	str	r3, [r4, #32]
 800479a:	e854 3f00 	ldrex	r3, [r4]
 800479e:	f423 73d0 	bic.w	r3, r3, #416	; 0x1a0
 80047a2:	e844 3100 	strex	r1, r3, [r4]
 80047a6:	b139      	cbz	r1, 80047b8 <UART_WaitOnFlagUntilTimeout+0x84>
 80047a8:	e852 3f00 	ldrex	r3, [r2]
 80047ac:	f423 73d0 	bic.w	r3, r3, #416	; 0x1a0
 80047b0:	e842 3100 	strex	r1, r3, [r2]
 80047b4:	2900      	cmp	r1, #0
 80047b6:	d1f7      	bne.n	80047a8 <UART_WaitOnFlagUntilTimeout+0x74>
 80047b8:	f102 0308 	add.w	r3, r2, #8
 80047bc:	e853 3f00 	ldrex	r3, [r3]
 80047c0:	f023 0301 	bic.w	r3, r3, #1
 80047c4:	f102 0008 	add.w	r0, r2, #8
 80047c8:	e840 3100 	strex	r1, r3, [r0]
 80047cc:	2900      	cmp	r1, #0
 80047ce:	d1f3      	bne.n	80047b8 <UART_WaitOnFlagUntilTimeout+0x84>
 80047d0:	2320      	movs	r3, #32
 80047d2:	67bb      	str	r3, [r7, #120]	; 0x78
 80047d4:	f887 1074 	strb.w	r1, [r7, #116]	; 0x74
 80047d8:	67fb      	str	r3, [r7, #124]	; 0x7c
 80047da:	2003      	movs	r0, #3
 80047dc:	f8c7 3080 	str.w	r3, [r7, #128]	; 0x80
 80047e0:	e7bd      	b.n	800475e <UART_WaitOnFlagUntilTimeout+0x2a>
 80047e2:	683a      	ldr	r2, [r7, #0]
 80047e4:	e852 3f00 	ldrex	r3, [r2]
 80047e8:	f423 73d0 	bic.w	r3, r3, #416	; 0x1a0
 80047ec:	e842 3100 	strex	r1, r3, [r2]
 80047f0:	2900      	cmp	r1, #0
 80047f2:	d1f7      	bne.n	80047e4 <UART_WaitOnFlagUntilTimeout+0xb0>
 80047f4:	f102 0308 	add.w	r3, r2, #8
 80047f8:	e853 3f00 	ldrex	r3, [r3]
 80047fc:	f023 0301 	bic.w	r3, r3, #1
 8004800:	f102 0008 	add.w	r0, r2, #8
 8004804:	e840 3100 	strex	r1, r3, [r0]
 8004808:	2900      	cmp	r1, #0
 800480a:	d1f3      	bne.n	80047f4 <UART_WaitOnFlagUntilTimeout+0xc0>
 800480c:	2320      	movs	r3, #32
 800480e:	67bb      	str	r3, [r7, #120]	; 0x78
 8004810:	f887 1074 	strb.w	r1, [r7, #116]	; 0x74
 8004814:	67fb      	str	r3, [r7, #124]	; 0x7c
 8004816:	2003      	movs	r0, #3
 8004818:	e7a1      	b.n	800475e <UART_WaitOnFlagUntilTimeout+0x2a>
 800481a:	bf00      	nop

0800481c <HAL_UART_Transmit>:
 800481c:	e92d 43f0 	stmdb	sp!, {r4, r5, r6, r7, r8, r9, lr}
 8004820:	4605      	mov	r5, r0
 8004822:	6f80      	ldr	r0, [r0, #120]	; 0x78
 8004824:	2820      	cmp	r0, #32
 8004826:	b083      	sub	sp, #12
 8004828:	f040 808b 	bne.w	8004942 <HAL_UART_Transmit+0x126>
 800482c:	4689      	mov	r9, r1
 800482e:	2900      	cmp	r1, #0
 8004830:	d045      	beq.n	80048be <HAL_UART_Transmit+0xa2>
 8004832:	4614      	mov	r4, r2
 8004834:	2a00      	cmp	r2, #0
 8004836:	d042      	beq.n	80048be <HAL_UART_Transmit+0xa2>
 8004838:	461e      	mov	r6, r3
 800483a:	f895 3074 	ldrb.w	r3, [r5, #116]	; 0x74
 800483e:	2b01      	cmp	r3, #1
 8004840:	d07f      	beq.n	8004942 <HAL_UART_Transmit+0x126>
 8004842:	2301      	movs	r3, #1
 8004844:	f885 3074 	strb.w	r3, [r5, #116]	; 0x74
 8004848:	f04f 0800 	mov.w	r8, #0
 800484c:	2321      	movs	r3, #33	; 0x21
 800484e:	f8c5 8080 	str.w	r8, [r5, #128]	; 0x80
 8004852:	67ab      	str	r3, [r5, #120]	; 0x78
 8004854:	f7fd fa62 	bl	8001d1c <HAL_GetTick>
 8004858:	68ab      	ldr	r3, [r5, #8]
 800485a:	f8a5 4050 	strh.w	r4, [r5, #80]	; 0x50
 800485e:	f5b3 5f80 	cmp.w	r3, #4096	; 0x1000
 8004862:	f8a5 4052 	strh.w	r4, [r5, #82]	; 0x52
 8004866:	4607      	mov	r7, r0
 8004868:	d06f      	beq.n	800494a <HAL_UART_Transmit+0x12e>
 800486a:	f8b5 3052 	ldrh.w	r3, [r5, #82]	; 0x52
 800486e:	2200      	movs	r2, #0
 8004870:	b29b      	uxth	r3, r3
 8004872:	f885 2074 	strb.w	r2, [r5, #116]	; 0x74
 8004876:	b1b3      	cbz	r3, 80048a6 <HAL_UART_Transmit+0x8a>
 8004878:	682c      	ldr	r4, [r5, #0]
 800487a:	1c71      	adds	r1, r6, #1
 800487c:	d123      	bne.n	80048c6 <HAL_UART_Transmit+0xaa>
 800487e:	69e2      	ldr	r2, [r4, #28]
 8004880:	0612      	lsls	r2, r2, #24
 8004882:	d5fc      	bpl.n	800487e <HAL_UART_Transmit+0x62>
 8004884:	f1b9 0f00 	cmp.w	r9, #0
 8004888:	d056      	beq.n	8004938 <HAL_UART_Transmit+0x11c>
 800488a:	f819 3b01 	ldrb.w	r3, [r9], #1
 800488e:	8523      	strh	r3, [r4, #40]	; 0x28
 8004890:	f8b5 3052 	ldrh.w	r3, [r5, #82]	; 0x52
 8004894:	3b01      	subs	r3, #1
 8004896:	b29b      	uxth	r3, r3
 8004898:	f8a5 3052 	strh.w	r3, [r5, #82]	; 0x52
 800489c:	f8b5 3052 	ldrh.w	r3, [r5, #82]	; 0x52
 80048a0:	b29b      	uxth	r3, r3
 80048a2:	2b00      	cmp	r3, #0
 80048a4:	d1e9      	bne.n	800487a <HAL_UART_Transmit+0x5e>
 80048a6:	9600      	str	r6, [sp, #0]
 80048a8:	463b      	mov	r3, r7
 80048aa:	2200      	movs	r2, #0
 80048ac:	2140      	movs	r1, #64	; 0x40
 80048ae:	4628      	mov	r0, r5
 80048b0:	f7ff ff40 	bl	8004734 <UART_WaitOnFlagUntilTimeout>
 80048b4:	2800      	cmp	r0, #0
 80048b6:	d16c      	bne.n	8004992 <HAL_UART_Transmit+0x176>
 80048b8:	2320      	movs	r3, #32
 80048ba:	67ab      	str	r3, [r5, #120]	; 0x78
 80048bc:	e000      	b.n	80048c0 <HAL_UART_Transmit+0xa4>
 80048be:	2001      	movs	r0, #1
 80048c0:	b003      	add	sp, #12
 80048c2:	e8bd 83f0 	ldmia.w	sp!, {r4, r5, r6, r7, r8, r9, pc}
 80048c6:	69e3      	ldr	r3, [r4, #28]
 80048c8:	061b      	lsls	r3, r3, #24
 80048ca:	d4db      	bmi.n	8004884 <HAL_UART_Transmit+0x68>
 80048cc:	f7fd fa26 	bl	8001d1c <HAL_GetTick>
 80048d0:	1bc0      	subs	r0, r0, r7
 80048d2:	4286      	cmp	r6, r0
 80048d4:	d33f      	bcc.n	8004956 <HAL_UART_Transmit+0x13a>
 80048d6:	2e00      	cmp	r6, #0
 80048d8:	d03d      	beq.n	8004956 <HAL_UART_Transmit+0x13a>
 80048da:	682c      	ldr	r4, [r5, #0]
 80048dc:	6822      	ldr	r2, [r4, #0]
 80048de:	0752      	lsls	r2, r2, #29
 80048e0:	4623      	mov	r3, r4
 80048e2:	d5ca      	bpl.n	800487a <HAL_UART_Transmit+0x5e>
 80048e4:	69e2      	ldr	r2, [r4, #28]
 80048e6:	0510      	lsls	r0, r2, #20
 80048e8:	d5c7      	bpl.n	800487a <HAL_UART_Transmit+0x5e>
 80048ea:	f44f 6200 	mov.w	r2, #2048	; 0x800
 80048ee:	6222      	str	r2, [r4, #32]
 80048f0:	e854 2f00 	ldrex	r2, [r4]
 80048f4:	f422 72d0 	bic.w	r2, r2, #416	; 0x1a0
 80048f8:	e844 2100 	strex	r1, r2, [r4]
 80048fc:	b139      	cbz	r1, 800490e <HAL_UART_Transmit+0xf2>
 80048fe:	e853 2f00 	ldrex	r2, [r3]
 8004902:	f422 72d0 	bic.w	r2, r2, #416	; 0x1a0
 8004906:	e843 2100 	strex	r1, r2, [r3]
 800490a:	2900      	cmp	r1, #0
 800490c:	d1f7      	bne.n	80048fe <HAL_UART_Transmit+0xe2>
 800490e:	f103 0208 	add.w	r2, r3, #8
 8004912:	e852 2f00 	ldrex	r2, [r2]
 8004916:	f022 0201 	bic.w	r2, r2, #1
 800491a:	f103 0008 	add.w	r0, r3, #8
 800491e:	e840 2100 	strex	r1, r2, [r0]
 8004922:	2900      	cmp	r1, #0
 8004924:	d1f3      	bne.n	800490e <HAL_UART_Transmit+0xf2>
 8004926:	2320      	movs	r3, #32
 8004928:	67ab      	str	r3, [r5, #120]	; 0x78
 800492a:	f885 1074 	strb.w	r1, [r5, #116]	; 0x74
 800492e:	67eb      	str	r3, [r5, #124]	; 0x7c
 8004930:	2003      	movs	r0, #3
 8004932:	f8c5 3080 	str.w	r3, [r5, #128]	; 0x80
 8004936:	e7c3      	b.n	80048c0 <HAL_UART_Transmit+0xa4>
 8004938:	f838 3b02 	ldrh.w	r3, [r8], #2
 800493c:	f3c3 0308 	ubfx	r3, r3, #0, #9
 8004940:	e7a5      	b.n	800488e <HAL_UART_Transmit+0x72>
 8004942:	2002      	movs	r0, #2
 8004944:	b003      	add	sp, #12
 8004946:	e8bd 83f0 	ldmia.w	sp!, {r4, r5, r6, r7, r8, r9, pc}
 800494a:	692b      	ldr	r3, [r5, #16]
 800494c:	2b00      	cmp	r3, #0
 800494e:	d18c      	bne.n	800486a <HAL_UART_Transmit+0x4e>
 8004950:	46c8      	mov	r8, r9
 8004952:	4699      	mov	r9, r3
 8004954:	e789      	b.n	800486a <HAL_UART_Transmit+0x4e>
 8004956:	682b      	ldr	r3, [r5, #0]
 8004958:	e853 2f00 	ldrex	r2, [r3]
 800495c:	f422 72d0 	bic.w	r2, r2, #416	; 0x1a0
 8004960:	e843 2100 	strex	r1, r2, [r3]
 8004964:	2900      	cmp	r1, #0
 8004966:	d1f7      	bne.n	8004958 <HAL_UART_Transmit+0x13c>
 8004968:	f103 0208 	add.w	r2, r3, #8
 800496c:	e852 2f00 	ldrex	r2, [r2]
 8004970:	f022 0201 	bic.w	r2, r2, #1
 8004974:	f103 0008 	add.w	r0, r3, #8
 8004978:	e840 2100 	strex	r1, r2, [r0]
 800497c:	2900      	cmp	r1, #0
 800497e:	d1f3      	bne.n	8004968 <HAL_UART_Transmit+0x14c>
 8004980:	2320      	movs	r3, #32
 8004982:	2003      	movs	r0, #3
 8004984:	67ab      	str	r3, [r5, #120]	; 0x78
 8004986:	f885 1074 	strb.w	r1, [r5, #116]	; 0x74
 800498a:	67eb      	str	r3, [r5, #124]	; 0x7c
 800498c:	b003      	add	sp, #12
 800498e:	e8bd 83f0 	ldmia.w	sp!, {r4, r5, r6, r7, r8, r9, pc}
 8004992:	2003      	movs	r0, #3
 8004994:	e794      	b.n	80048c0 <HAL_UART_Transmit+0xa4>
 8004996:	bf00      	nop

08004998 <HAL_UART_Init>:
 8004998:	2800      	cmp	r0, #0
 800499a:	d062      	beq.n	8004a62 <HAL_UART_Init+0xca>
 800499c:	b570      	push	{r4, r5, r6, lr}
 800499e:	6f83      	ldr	r3, [r0, #120]	; 0x78
 80049a0:	b082      	sub	sp, #8
 80049a2:	4604      	mov	r4, r0
 80049a4:	2b00      	cmp	r3, #0
 80049a6:	d049      	beq.n	8004a3c <HAL_UART_Init+0xa4>
 80049a8:	6822      	ldr	r2, [r4, #0]
 80049aa:	2324      	movs	r3, #36	; 0x24
 80049ac:	67a3      	str	r3, [r4, #120]	; 0x78
 80049ae:	6813      	ldr	r3, [r2, #0]
 80049b0:	f023 0301 	bic.w	r3, r3, #1
 80049b4:	4620      	mov	r0, r4
 80049b6:	6013      	str	r3, [r2, #0]
 80049b8:	f7ff fd38 	bl	800442c <UART_SetConfig>
 80049bc:	2801      	cmp	r0, #1
 80049be:	d03a      	beq.n	8004a36 <HAL_UART_Init+0x9e>
 80049c0:	6a63      	ldr	r3, [r4, #36]	; 0x24
 80049c2:	2b00      	cmp	r3, #0
 80049c4:	d133      	bne.n	8004a2e <HAL_UART_Init+0x96>
 80049c6:	6823      	ldr	r3, [r4, #0]
 80049c8:	6859      	ldr	r1, [r3, #4]
 80049ca:	f421 4190 	bic.w	r1, r1, #18432	; 0x4800
 80049ce:	6059      	str	r1, [r3, #4]
 80049d0:	6899      	ldr	r1, [r3, #8]
 80049d2:	f021 012a 	bic.w	r1, r1, #42	; 0x2a
 80049d6:	6099      	str	r1, [r3, #8]
 80049d8:	6819      	ldr	r1, [r3, #0]
 80049da:	2500      	movs	r5, #0
 80049dc:	f041 0101 	orr.w	r1, r1, #1
 80049e0:	6019      	str	r1, [r3, #0]
 80049e2:	f8c4 5080 	str.w	r5, [r4, #128]	; 0x80
 80049e6:	f7fd f999 	bl	8001d1c <HAL_GetTick>
 80049ea:	6823      	ldr	r3, [r4, #0]
 80049ec:	681a      	ldr	r2, [r3, #0]
 80049ee:	0712      	lsls	r2, r2, #28
 80049f0:	4606      	mov	r6, r0
 80049f2:	d40c      	bmi.n	8004a0e <HAL_UART_Init+0x76>
 80049f4:	681b      	ldr	r3, [r3, #0]
 80049f6:	075b      	lsls	r3, r3, #29
 80049f8:	d425      	bmi.n	8004a46 <HAL_UART_Init+0xae>
 80049fa:	2300      	movs	r3, #0
 80049fc:	2220      	movs	r2, #32
 80049fe:	67a2      	str	r2, [r4, #120]	; 0x78
 8004a00:	f884 3074 	strb.w	r3, [r4, #116]	; 0x74
 8004a04:	67e2      	str	r2, [r4, #124]	; 0x7c
 8004a06:	4618      	mov	r0, r3
 8004a08:	6623      	str	r3, [r4, #96]	; 0x60
 8004a0a:	b002      	add	sp, #8
 8004a0c:	bd70      	pop	{r4, r5, r6, pc}
 8004a0e:	f06f 437e 	mvn.w	r3, #4261412864	; 0xfe000000
 8004a12:	9300      	str	r3, [sp, #0]
 8004a14:	462a      	mov	r2, r5
 8004a16:	4603      	mov	r3, r0
 8004a18:	f44f 1100 	mov.w	r1, #2097152	; 0x200000
 8004a1c:	4620      	mov	r0, r4
 8004a1e:	f7ff fe89 	bl	8004734 <UART_WaitOnFlagUntilTimeout>
 8004a22:	b9e0      	cbnz	r0, 8004a5e <HAL_UART_Init+0xc6>
 8004a24:	6823      	ldr	r3, [r4, #0]
 8004a26:	681b      	ldr	r3, [r3, #0]
 8004a28:	075b      	lsls	r3, r3, #29
 8004a2a:	d40c      	bmi.n	8004a46 <HAL_UART_Init+0xae>
 8004a2c:	e7e5      	b.n	80049fa <HAL_UART_Init+0x62>
 8004a2e:	4620      	mov	r0, r4
 8004a30:	f7ff fe28 	bl	8004684 <UART_AdvFeatureConfig>
 8004a34:	e7c7      	b.n	80049c6 <HAL_UART_Init+0x2e>
 8004a36:	2001      	movs	r0, #1
 8004a38:	b002      	add	sp, #8
 8004a3a:	bd70      	pop	{r4, r5, r6, pc}
 8004a3c:	f880 3074 	strb.w	r3, [r0, #116]	; 0x74
 8004a40:	f7fd f8c6 	bl	8001bd0 <HAL_UART_MspInit>
 8004a44:	e7b0      	b.n	80049a8 <HAL_UART_Init+0x10>
 8004a46:	f06f 437e 	mvn.w	r3, #4261412864	; 0xfe000000
 8004a4a:	9300      	str	r3, [sp, #0]
 8004a4c:	2200      	movs	r2, #0
 8004a4e:	4633      	mov	r3, r6
 8004a50:	f44f 0180 	mov.w	r1, #4194304	; 0x400000
 8004a54:	4620      	mov	r0, r4
 8004a56:	f7ff fe6d 	bl	8004734 <UART_WaitOnFlagUntilTimeout>
 8004a5a:	2800      	cmp	r0, #0
 8004a5c:	d0cd      	beq.n	80049fa <HAL_UART_Init+0x62>
 8004a5e:	2003      	movs	r0, #3
 8004a60:	e7d3      	b.n	8004a0a <HAL_UART_Init+0x72>
 8004a62:	2001      	movs	r0, #1
 8004a64:	4770      	bx	lr
 8004a66:	bf00      	nop

08004a68 <__errno>:
 8004a68:	4b01      	ldr	r3, [pc, #4]	; (8004a70 <__errno+0x8>)
 8004a6a:	6818      	ldr	r0, [r3, #0]
 8004a6c:	4770      	bx	lr
 8004a6e:	bf00      	nop
 8004a70:	2000000c 	.word	0x2000000c

08004a74 <__libc_init_array>:
 8004a74:	b570      	push	{r4, r5, r6, lr}
 8004a76:	4d0d      	ldr	r5, [pc, #52]	; (8004aac <__libc_init_array+0x38>)
 8004a78:	4c0d      	ldr	r4, [pc, #52]	; (8004ab0 <__libc_init_array+0x3c>)
 8004a7a:	1b64      	subs	r4, r4, r5
 8004a7c:	10a4      	asrs	r4, r4, #2
 8004a7e:	2600      	movs	r6, #0
 8004a80:	42a6      	cmp	r6, r4
 8004a82:	d109      	bne.n	8004a98 <__libc_init_array+0x24>
 8004a84:	4d0b      	ldr	r5, [pc, #44]	; (8004ab4 <__libc_init_array+0x40>)
 8004a86:	4c0c      	ldr	r4, [pc, #48]	; (8004ab8 <__libc_init_array+0x44>)
 8004a88:	f002 fe1c 	bl	80076c4 <_init>
 8004a8c:	1b64      	subs	r4, r4, r5
 8004a8e:	10a4      	asrs	r4, r4, #2
 8004a90:	2600      	movs	r6, #0
 8004a92:	42a6      	cmp	r6, r4
 8004a94:	d105      	bne.n	8004aa2 <__libc_init_array+0x2e>
 8004a96:	bd70      	pop	{r4, r5, r6, pc}
 8004a98:	f855 3b04 	ldr.w	r3, [r5], #4
 8004a9c:	4798      	blx	r3
 8004a9e:	3601      	adds	r6, #1
 8004aa0:	e7ee      	b.n	8004a80 <__libc_init_array+0xc>
 8004aa2:	f855 3b04 	ldr.w	r3, [r5], #4
 8004aa6:	4798      	blx	r3
 8004aa8:	3601      	adds	r6, #1
 8004aaa:	e7f2      	b.n	8004a92 <__libc_init_array+0x1e>
 8004aac:	08007b44 	.word	0x08007b44
 8004ab0:	08007b44 	.word	0x08007b44
 8004ab4:	08007b44 	.word	0x08007b44
 8004ab8:	08007b48 	.word	0x08007b48

08004abc <memset>:
 8004abc:	4402      	add	r2, r0
 8004abe:	4603      	mov	r3, r0
 8004ac0:	4293      	cmp	r3, r2
 8004ac2:	d100      	bne.n	8004ac6 <memset+0xa>
 8004ac4:	4770      	bx	lr
 8004ac6:	f803 1b01 	strb.w	r1, [r3], #1
 8004aca:	e7f9      	b.n	8004ac0 <memset+0x4>

08004acc <__cvt>:
 8004acc:	e92d 47ff 	stmdb	sp!, {r0, r1, r2, r3, r4, r5, r6, r7, r8, r9, sl, lr}
 8004ad0:	ec55 4b10 	vmov	r4, r5, d0
 8004ad4:	2d00      	cmp	r5, #0
 8004ad6:	460e      	mov	r6, r1
 8004ad8:	4619      	mov	r1, r3
 8004ada:	462b      	mov	r3, r5
 8004adc:	bfbb      	ittet	lt
 8004ade:	f105 4300 	addlt.w	r3, r5, #2147483648	; 0x80000000
 8004ae2:	461d      	movlt	r5, r3
 8004ae4:	2300      	movge	r3, #0
 8004ae6:	232d      	movlt	r3, #45	; 0x2d
 8004ae8:	700b      	strb	r3, [r1, #0]
 8004aea:	9b0d      	ldr	r3, [sp, #52]	; 0x34
 8004aec:	f8dd a030 	ldr.w	sl, [sp, #48]	; 0x30
 8004af0:	4691      	mov	r9, r2
 8004af2:	f023 0820 	bic.w	r8, r3, #32
 8004af6:	bfbc      	itt	lt
 8004af8:	4622      	movlt	r2, r4
 8004afa:	4614      	movlt	r4, r2
 8004afc:	f1b8 0f46 	cmp.w	r8, #70	; 0x46
 8004b00:	d005      	beq.n	8004b0e <__cvt+0x42>
 8004b02:	f1b8 0f45 	cmp.w	r8, #69	; 0x45
 8004b06:	d100      	bne.n	8004b0a <__cvt+0x3e>
 8004b08:	3601      	adds	r6, #1
 8004b0a:	2102      	movs	r1, #2
 8004b0c:	e000      	b.n	8004b10 <__cvt+0x44>
 8004b0e:	2103      	movs	r1, #3
 8004b10:	ab03      	add	r3, sp, #12
 8004b12:	9301      	str	r3, [sp, #4]
 8004b14:	ab02      	add	r3, sp, #8
 8004b16:	9300      	str	r3, [sp, #0]
 8004b18:	ec45 4b10 	vmov	d0, r4, r5
 8004b1c:	4653      	mov	r3, sl
 8004b1e:	4632      	mov	r2, r6
 8004b20:	f000 fdb2 	bl	8005688 <_dtoa_r>
 8004b24:	f1b8 0f47 	cmp.w	r8, #71	; 0x47
 8004b28:	4607      	mov	r7, r0
 8004b2a:	d102      	bne.n	8004b32 <__cvt+0x66>
 8004b2c:	f019 0f01 	tst.w	r9, #1
 8004b30:	d022      	beq.n	8004b78 <__cvt+0xac>
 8004b32:	f1b8 0f46 	cmp.w	r8, #70	; 0x46
 8004b36:	eb07 0906 	add.w	r9, r7, r6
 8004b3a:	d110      	bne.n	8004b5e <__cvt+0x92>
 8004b3c:	783b      	ldrb	r3, [r7, #0]
 8004b3e:	2b30      	cmp	r3, #48	; 0x30
 8004b40:	d10a      	bne.n	8004b58 <__cvt+0x8c>
 8004b42:	2200      	movs	r2, #0
 8004b44:	2300      	movs	r3, #0
 8004b46:	4620      	mov	r0, r4
 8004b48:	4629      	mov	r1, r5
 8004b4a:	f7fb ffbd 	bl	8000ac8 <__aeabi_dcmpeq>
 8004b4e:	b918      	cbnz	r0, 8004b58 <__cvt+0x8c>
 8004b50:	f1c6 0601 	rsb	r6, r6, #1
 8004b54:	f8ca 6000 	str.w	r6, [sl]
 8004b58:	f8da 3000 	ldr.w	r3, [sl]
 8004b5c:	4499      	add	r9, r3
 8004b5e:	2200      	movs	r2, #0
 8004b60:	2300      	movs	r3, #0
 8004b62:	4620      	mov	r0, r4
 8004b64:	4629      	mov	r1, r5
 8004b66:	f7fb ffaf 	bl	8000ac8 <__aeabi_dcmpeq>
 8004b6a:	b108      	cbz	r0, 8004b70 <__cvt+0xa4>
 8004b6c:	f8cd 900c 	str.w	r9, [sp, #12]
 8004b70:	2230      	movs	r2, #48	; 0x30
 8004b72:	9b03      	ldr	r3, [sp, #12]
 8004b74:	454b      	cmp	r3, r9
 8004b76:	d307      	bcc.n	8004b88 <__cvt+0xbc>
 8004b78:	9b03      	ldr	r3, [sp, #12]
 8004b7a:	9a0e      	ldr	r2, [sp, #56]	; 0x38
 8004b7c:	1bdb      	subs	r3, r3, r7
 8004b7e:	4638      	mov	r0, r7
 8004b80:	6013      	str	r3, [r2, #0]
 8004b82:	b004      	add	sp, #16
 8004b84:	e8bd 87f0 	ldmia.w	sp!, {r4, r5, r6, r7, r8, r9, sl, pc}
 8004b88:	1c59      	adds	r1, r3, #1
 8004b8a:	9103      	str	r1, [sp, #12]
 8004b8c:	701a      	strb	r2, [r3, #0]
 8004b8e:	e7f0      	b.n	8004b72 <__cvt+0xa6>

08004b90 <__exponent>:
 8004b90:	b5f7      	push	{r0, r1, r2, r4, r5, r6, r7, lr}
 8004b92:	4603      	mov	r3, r0
 8004b94:	2900      	cmp	r1, #0
 8004b96:	bfb8      	it	lt
 8004b98:	4249      	neglt	r1, r1
 8004b9a:	f803 2b02 	strb.w	r2, [r3], #2
 8004b9e:	bfb4      	ite	lt
 8004ba0:	222d      	movlt	r2, #45	; 0x2d
 8004ba2:	222b      	movge	r2, #43	; 0x2b
 8004ba4:	2909      	cmp	r1, #9
 8004ba6:	7042      	strb	r2, [r0, #1]
 8004ba8:	dd2a      	ble.n	8004c00 <__exponent+0x70>
 8004baa:	f10d 0407 	add.w	r4, sp, #7
 8004bae:	46a4      	mov	ip, r4
 8004bb0:	270a      	movs	r7, #10
 8004bb2:	46a6      	mov	lr, r4
 8004bb4:	460a      	mov	r2, r1
 8004bb6:	fb91 f6f7 	sdiv	r6, r1, r7
 8004bba:	fb07 1516 	mls	r5, r7, r6, r1
 8004bbe:	3530      	adds	r5, #48	; 0x30
 8004bc0:	2a63      	cmp	r2, #99	; 0x63
 8004bc2:	f104 34ff 	add.w	r4, r4, #4294967295
 8004bc6:	f80e 5c01 	strb.w	r5, [lr, #-1]
 8004bca:	4631      	mov	r1, r6
 8004bcc:	dcf1      	bgt.n	8004bb2 <__exponent+0x22>
 8004bce:	3130      	adds	r1, #48	; 0x30
 8004bd0:	f1ae 0502 	sub.w	r5, lr, #2
 8004bd4:	f804 1c01 	strb.w	r1, [r4, #-1]
 8004bd8:	1c44      	adds	r4, r0, #1
 8004bda:	4629      	mov	r1, r5
 8004bdc:	4561      	cmp	r1, ip
 8004bde:	d30a      	bcc.n	8004bf6 <__exponent+0x66>
 8004be0:	f10d 0209 	add.w	r2, sp, #9
 8004be4:	eba2 020e 	sub.w	r2, r2, lr
 8004be8:	4565      	cmp	r5, ip
 8004bea:	bf88      	it	hi
 8004bec:	2200      	movhi	r2, #0
 8004bee:	4413      	add	r3, r2
 8004bf0:	1a18      	subs	r0, r3, r0
 8004bf2:	b003      	add	sp, #12
 8004bf4:	bdf0      	pop	{r4, r5, r6, r7, pc}
 8004bf6:	f811 2b01 	ldrb.w	r2, [r1], #1
 8004bfa:	f804 2f01 	strb.w	r2, [r4, #1]!
 8004bfe:	e7ed      	b.n	8004bdc <__exponent+0x4c>
 8004c00:	2330      	movs	r3, #48	; 0x30
 8004c02:	3130      	adds	r1, #48	; 0x30
 8004c04:	7083      	strb	r3, [r0, #2]
 8004c06:	70c1      	strb	r1, [r0, #3]
 8004c08:	1d03      	adds	r3, r0, #4
 8004c0a:	e7f1      	b.n	8004bf0 <__exponent+0x60>

08004c0c <_printf_float>:
 8004c0c:	e92d 4ff0 	stmdb	sp!, {r4, r5, r6, r7, r8, r9, sl, fp, lr}
 8004c10:	ed2d 8b02 	vpush	{d8}
 8004c14:	b08d      	sub	sp, #52	; 0x34
 8004c16:	460c      	mov	r4, r1
 8004c18:	f8dd 8060 	ldr.w	r8, [sp, #96]	; 0x60
 8004c1c:	4616      	mov	r6, r2
 8004c1e:	461f      	mov	r7, r3
 8004c20:	4605      	mov	r5, r0
 8004c22:	f001 fcd7 	bl	80065d4 <_localeconv_r>
 8004c26:	f8d0 a000 	ldr.w	sl, [r0]
 8004c2a:	4650      	mov	r0, sl
 8004c2c:	f7fb fad0 	bl	80001d0 <strlen>
 8004c30:	2300      	movs	r3, #0
 8004c32:	930a      	str	r3, [sp, #40]	; 0x28
 8004c34:	6823      	ldr	r3, [r4, #0]
 8004c36:	9305      	str	r3, [sp, #20]
 8004c38:	f8d8 3000 	ldr.w	r3, [r8]
 8004c3c:	f894 b018 	ldrb.w	fp, [r4, #24]
 8004c40:	3307      	adds	r3, #7
 8004c42:	f023 0307 	bic.w	r3, r3, #7
 8004c46:	f103 0208 	add.w	r2, r3, #8
 8004c4a:	f8c8 2000 	str.w	r2, [r8]
 8004c4e:	e9d3 2300 	ldrd	r2, r3, [r3]
 8004c52:	e9c4 2312 	strd	r2, r3, [r4, #72]	; 0x48
 8004c56:	e9d4 8912 	ldrd	r8, r9, [r4, #72]	; 0x48
 8004c5a:	f029 4300 	bic.w	r3, r9, #2147483648	; 0x80000000
 8004c5e:	9307      	str	r3, [sp, #28]
 8004c60:	f8cd 8018 	str.w	r8, [sp, #24]
 8004c64:	ee08 0a10 	vmov	s16, r0
 8004c68:	4b9f      	ldr	r3, [pc, #636]	; (8004ee8 <_printf_float+0x2dc>)
 8004c6a:	e9dd 0106 	ldrd	r0, r1, [sp, #24]
 8004c6e:	f04f 32ff 	mov.w	r2, #4294967295
 8004c72:	f7fb ff5b 	bl	8000b2c <__aeabi_dcmpun>
 8004c76:	bb88      	cbnz	r0, 8004cdc <_printf_float+0xd0>
 8004c78:	e9dd 0106 	ldrd	r0, r1, [sp, #24]
 8004c7c:	4b9a      	ldr	r3, [pc, #616]	; (8004ee8 <_printf_float+0x2dc>)
 8004c7e:	f04f 32ff 	mov.w	r2, #4294967295
 8004c82:	f7fb ff35 	bl	8000af0 <__aeabi_dcmple>
 8004c86:	bb48      	cbnz	r0, 8004cdc <_printf_float+0xd0>
 8004c88:	2200      	movs	r2, #0
 8004c8a:	2300      	movs	r3, #0
 8004c8c:	4640      	mov	r0, r8
 8004c8e:	4649      	mov	r1, r9
 8004c90:	f7fb ff24 	bl	8000adc <__aeabi_dcmplt>
 8004c94:	b110      	cbz	r0, 8004c9c <_printf_float+0x90>
 8004c96:	232d      	movs	r3, #45	; 0x2d
 8004c98:	f884 3043 	strb.w	r3, [r4, #67]	; 0x43
 8004c9c:	4b93      	ldr	r3, [pc, #588]	; (8004eec <_printf_float+0x2e0>)
 8004c9e:	4894      	ldr	r0, [pc, #592]	; (8004ef0 <_printf_float+0x2e4>)
 8004ca0:	f1bb 0f47 	cmp.w	fp, #71	; 0x47
 8004ca4:	bf94      	ite	ls
 8004ca6:	4698      	movls	r8, r3
 8004ca8:	4680      	movhi	r8, r0
 8004caa:	2303      	movs	r3, #3
 8004cac:	6123      	str	r3, [r4, #16]
 8004cae:	9b05      	ldr	r3, [sp, #20]
 8004cb0:	f023 0204 	bic.w	r2, r3, #4
 8004cb4:	6022      	str	r2, [r4, #0]
 8004cb6:	f04f 0900 	mov.w	r9, #0
 8004cba:	9700      	str	r7, [sp, #0]
 8004cbc:	4633      	mov	r3, r6
 8004cbe:	aa0b      	add	r2, sp, #44	; 0x2c
 8004cc0:	4621      	mov	r1, r4
 8004cc2:	4628      	mov	r0, r5
 8004cc4:	f000 f9d8 	bl	8005078 <_printf_common>
 8004cc8:	3001      	adds	r0, #1
 8004cca:	f040 8090 	bne.w	8004dee <_printf_float+0x1e2>
 8004cce:	f04f 30ff 	mov.w	r0, #4294967295
 8004cd2:	b00d      	add	sp, #52	; 0x34
 8004cd4:	ecbd 8b02 	vpop	{d8}
 8004cd8:	e8bd 8ff0 	ldmia.w	sp!, {r4, r5, r6, r7, r8, r9, sl, fp, pc}
 8004cdc:	4642      	mov	r2, r8
 8004cde:	464b      	mov	r3, r9
 8004ce0:	4640      	mov	r0, r8
 8004ce2:	4649      	mov	r1, r9
 8004ce4:	f7fb ff22 	bl	8000b2c <__aeabi_dcmpun>
 8004ce8:	b140      	cbz	r0, 8004cfc <_printf_float+0xf0>
 8004cea:	464b      	mov	r3, r9
 8004cec:	2b00      	cmp	r3, #0
 8004cee:	bfbc      	itt	lt
 8004cf0:	232d      	movlt	r3, #45	; 0x2d
 8004cf2:	f884 3043 	strblt.w	r3, [r4, #67]	; 0x43
 8004cf6:	487f      	ldr	r0, [pc, #508]	; (8004ef4 <_printf_float+0x2e8>)
 8004cf8:	4b7f      	ldr	r3, [pc, #508]	; (8004ef8 <_printf_float+0x2ec>)
 8004cfa:	e7d1      	b.n	8004ca0 <_printf_float+0x94>
 8004cfc:	6863      	ldr	r3, [r4, #4]
 8004cfe:	f00b 02df 	and.w	r2, fp, #223	; 0xdf
 8004d02:	9206      	str	r2, [sp, #24]
 8004d04:	1c5a      	adds	r2, r3, #1
 8004d06:	d13f      	bne.n	8004d88 <_printf_float+0x17c>
 8004d08:	2306      	movs	r3, #6
 8004d0a:	6063      	str	r3, [r4, #4]
 8004d0c:	9b05      	ldr	r3, [sp, #20]
 8004d0e:	6861      	ldr	r1, [r4, #4]
 8004d10:	f443 6280 	orr.w	r2, r3, #1024	; 0x400
 8004d14:	2300      	movs	r3, #0
 8004d16:	9303      	str	r3, [sp, #12]
 8004d18:	ab0a      	add	r3, sp, #40	; 0x28
 8004d1a:	e9cd b301 	strd	fp, r3, [sp, #4]
 8004d1e:	ab09      	add	r3, sp, #36	; 0x24
 8004d20:	ec49 8b10 	vmov	d0, r8, r9
 8004d24:	9300      	str	r3, [sp, #0]
 8004d26:	6022      	str	r2, [r4, #0]
 8004d28:	f10d 0323 	add.w	r3, sp, #35	; 0x23
 8004d2c:	4628      	mov	r0, r5
 8004d2e:	f7ff fecd 	bl	8004acc <__cvt>
 8004d32:	9b06      	ldr	r3, [sp, #24]
 8004d34:	9909      	ldr	r1, [sp, #36]	; 0x24
 8004d36:	2b47      	cmp	r3, #71	; 0x47
 8004d38:	4680      	mov	r8, r0
 8004d3a:	d108      	bne.n	8004d4e <_printf_float+0x142>
 8004d3c:	1cc8      	adds	r0, r1, #3
 8004d3e:	db02      	blt.n	8004d46 <_printf_float+0x13a>
 8004d40:	6863      	ldr	r3, [r4, #4]
 8004d42:	4299      	cmp	r1, r3
 8004d44:	dd41      	ble.n	8004dca <_printf_float+0x1be>
 8004d46:	f1ab 0b02 	sub.w	fp, fp, #2
 8004d4a:	fa5f fb8b 	uxtb.w	fp, fp
 8004d4e:	f1bb 0f65 	cmp.w	fp, #101	; 0x65
 8004d52:	d820      	bhi.n	8004d96 <_printf_float+0x18a>
 8004d54:	3901      	subs	r1, #1
 8004d56:	465a      	mov	r2, fp
 8004d58:	f104 0050 	add.w	r0, r4, #80	; 0x50
 8004d5c:	9109      	str	r1, [sp, #36]	; 0x24
 8004d5e:	f7ff ff17 	bl	8004b90 <__exponent>
 8004d62:	9a0a      	ldr	r2, [sp, #40]	; 0x28
 8004d64:	1813      	adds	r3, r2, r0
 8004d66:	2a01      	cmp	r2, #1
 8004d68:	4681      	mov	r9, r0
 8004d6a:	6123      	str	r3, [r4, #16]
 8004d6c:	dc02      	bgt.n	8004d74 <_printf_float+0x168>
 8004d6e:	6822      	ldr	r2, [r4, #0]
 8004d70:	07d2      	lsls	r2, r2, #31
 8004d72:	d501      	bpl.n	8004d78 <_printf_float+0x16c>
 8004d74:	3301      	adds	r3, #1
 8004d76:	6123      	str	r3, [r4, #16]
 8004d78:	f89d 3023 	ldrb.w	r3, [sp, #35]	; 0x23
 8004d7c:	2b00      	cmp	r3, #0
 8004d7e:	d09c      	beq.n	8004cba <_printf_float+0xae>
 8004d80:	232d      	movs	r3, #45	; 0x2d
 8004d82:	f884 3043 	strb.w	r3, [r4, #67]	; 0x43
 8004d86:	e798      	b.n	8004cba <_printf_float+0xae>
 8004d88:	9a06      	ldr	r2, [sp, #24]
 8004d8a:	2a47      	cmp	r2, #71	; 0x47
 8004d8c:	d1be      	bne.n	8004d0c <_printf_float+0x100>
 8004d8e:	2b00      	cmp	r3, #0
 8004d90:	d1bc      	bne.n	8004d0c <_printf_float+0x100>
 8004d92:	2301      	movs	r3, #1
 8004d94:	e7b9      	b.n	8004d0a <_printf_float+0xfe>
 8004d96:	f1bb 0f66 	cmp.w	fp, #102	; 0x66
 8004d9a:	d118      	bne.n	8004dce <_printf_float+0x1c2>
 8004d9c:	2900      	cmp	r1, #0
 8004d9e:	6863      	ldr	r3, [r4, #4]
 8004da0:	dd0b      	ble.n	8004dba <_printf_float+0x1ae>
 8004da2:	6121      	str	r1, [r4, #16]
 8004da4:	b913      	cbnz	r3, 8004dac <_printf_float+0x1a0>
 8004da6:	6822      	ldr	r2, [r4, #0]
 8004da8:	07d0      	lsls	r0, r2, #31
 8004daa:	d502      	bpl.n	8004db2 <_printf_float+0x1a6>
 8004dac:	3301      	adds	r3, #1
 8004dae:	440b      	add	r3, r1
 8004db0:	6123      	str	r3, [r4, #16]
 8004db2:	65a1      	str	r1, [r4, #88]	; 0x58
 8004db4:	f04f 0900 	mov.w	r9, #0
 8004db8:	e7de      	b.n	8004d78 <_printf_float+0x16c>
 8004dba:	b913      	cbnz	r3, 8004dc2 <_printf_float+0x1b6>
 8004dbc:	6822      	ldr	r2, [r4, #0]
 8004dbe:	07d2      	lsls	r2, r2, #31
 8004dc0:	d501      	bpl.n	8004dc6 <_printf_float+0x1ba>
 8004dc2:	3302      	adds	r3, #2
 8004dc4:	e7f4      	b.n	8004db0 <_printf_float+0x1a4>
 8004dc6:	2301      	movs	r3, #1
 8004dc8:	e7f2      	b.n	8004db0 <_printf_float+0x1a4>
 8004dca:	f04f 0b67 	mov.w	fp, #103	; 0x67
 8004dce:	9b0a      	ldr	r3, [sp, #40]	; 0x28
 8004dd0:	4299      	cmp	r1, r3
 8004dd2:	db05      	blt.n	8004de0 <_printf_float+0x1d4>
 8004dd4:	6823      	ldr	r3, [r4, #0]
 8004dd6:	6121      	str	r1, [r4, #16]
 8004dd8:	07d8      	lsls	r0, r3, #31
 8004dda:	d5ea      	bpl.n	8004db2 <_printf_float+0x1a6>
 8004ddc:	1c4b      	adds	r3, r1, #1
 8004dde:	e7e7      	b.n	8004db0 <_printf_float+0x1a4>
 8004de0:	2900      	cmp	r1, #0
 8004de2:	bfd4      	ite	le
 8004de4:	f1c1 0202 	rsble	r2, r1, #2
 8004de8:	2201      	movgt	r2, #1
 8004dea:	4413      	add	r3, r2
 8004dec:	e7e0      	b.n	8004db0 <_printf_float+0x1a4>
 8004dee:	6823      	ldr	r3, [r4, #0]
 8004df0:	055a      	lsls	r2, r3, #21
 8004df2:	d407      	bmi.n	8004e04 <_printf_float+0x1f8>
 8004df4:	6923      	ldr	r3, [r4, #16]
 8004df6:	4642      	mov	r2, r8
 8004df8:	4631      	mov	r1, r6
 8004dfa:	4628      	mov	r0, r5
 8004dfc:	47b8      	blx	r7
 8004dfe:	3001      	adds	r0, #1
 8004e00:	d12c      	bne.n	8004e5c <_printf_float+0x250>
 8004e02:	e764      	b.n	8004cce <_printf_float+0xc2>
 8004e04:	f1bb 0f65 	cmp.w	fp, #101	; 0x65
 8004e08:	f240 80e0 	bls.w	8004fcc <_printf_float+0x3c0>
 8004e0c:	e9d4 0112 	ldrd	r0, r1, [r4, #72]	; 0x48
 8004e10:	2200      	movs	r2, #0
 8004e12:	2300      	movs	r3, #0
 8004e14:	f7fb fe58 	bl	8000ac8 <__aeabi_dcmpeq>
 8004e18:	2800      	cmp	r0, #0
 8004e1a:	d034      	beq.n	8004e86 <_printf_float+0x27a>
 8004e1c:	4a37      	ldr	r2, [pc, #220]	; (8004efc <_printf_float+0x2f0>)
 8004e1e:	2301      	movs	r3, #1
 8004e20:	4631      	mov	r1, r6
 8004e22:	4628      	mov	r0, r5
 8004e24:	47b8      	blx	r7
 8004e26:	3001      	adds	r0, #1
 8004e28:	f43f af51 	beq.w	8004cce <_printf_float+0xc2>
 8004e2c:	e9dd 2309 	ldrd	r2, r3, [sp, #36]	; 0x24
 8004e30:	429a      	cmp	r2, r3
 8004e32:	db02      	blt.n	8004e3a <_printf_float+0x22e>
 8004e34:	6823      	ldr	r3, [r4, #0]
 8004e36:	07d8      	lsls	r0, r3, #31
 8004e38:	d510      	bpl.n	8004e5c <_printf_float+0x250>
 8004e3a:	ee18 3a10 	vmov	r3, s16
 8004e3e:	4652      	mov	r2, sl
 8004e40:	4631      	mov	r1, r6
 8004e42:	4628      	mov	r0, r5
 8004e44:	47b8      	blx	r7
 8004e46:	3001      	adds	r0, #1
 8004e48:	f43f af41 	beq.w	8004cce <_printf_float+0xc2>
 8004e4c:	f04f 0800 	mov.w	r8, #0
 8004e50:	f104 091a 	add.w	r9, r4, #26
 8004e54:	9b0a      	ldr	r3, [sp, #40]	; 0x28
 8004e56:	3b01      	subs	r3, #1
 8004e58:	4543      	cmp	r3, r8
 8004e5a:	dc09      	bgt.n	8004e70 <_printf_float+0x264>
 8004e5c:	6823      	ldr	r3, [r4, #0]
 8004e5e:	079b      	lsls	r3, r3, #30
 8004e60:	f100 8105 	bmi.w	800506e <_printf_float+0x462>
 8004e64:	68e0      	ldr	r0, [r4, #12]
 8004e66:	9b0b      	ldr	r3, [sp, #44]	; 0x2c
 8004e68:	4298      	cmp	r0, r3
 8004e6a:	bfb8      	it	lt
 8004e6c:	4618      	movlt	r0, r3
 8004e6e:	e730      	b.n	8004cd2 <_printf_float+0xc6>
 8004e70:	2301      	movs	r3, #1
 8004e72:	464a      	mov	r2, r9
 8004e74:	4631      	mov	r1, r6
 8004e76:	4628      	mov	r0, r5
 8004e78:	47b8      	blx	r7
 8004e7a:	3001      	adds	r0, #1
 8004e7c:	f43f af27 	beq.w	8004cce <_printf_float+0xc2>
 8004e80:	f108 0801 	add.w	r8, r8, #1
 8004e84:	e7e6      	b.n	8004e54 <_printf_float+0x248>
 8004e86:	9b09      	ldr	r3, [sp, #36]	; 0x24
 8004e88:	2b00      	cmp	r3, #0
 8004e8a:	dc39      	bgt.n	8004f00 <_printf_float+0x2f4>
 8004e8c:	4a1b      	ldr	r2, [pc, #108]	; (8004efc <_printf_float+0x2f0>)
 8004e8e:	2301      	movs	r3, #1
 8004e90:	4631      	mov	r1, r6
 8004e92:	4628      	mov	r0, r5
 8004e94:	47b8      	blx	r7
 8004e96:	3001      	adds	r0, #1
 8004e98:	f43f af19 	beq.w	8004cce <_printf_float+0xc2>
 8004e9c:	e9dd 2309 	ldrd	r2, r3, [sp, #36]	; 0x24
 8004ea0:	4313      	orrs	r3, r2
 8004ea2:	d102      	bne.n	8004eaa <_printf_float+0x29e>
 8004ea4:	6823      	ldr	r3, [r4, #0]
 8004ea6:	07d9      	lsls	r1, r3, #31
 8004ea8:	d5d8      	bpl.n	8004e5c <_printf_float+0x250>
 8004eaa:	ee18 3a10 	vmov	r3, s16
 8004eae:	4652      	mov	r2, sl
 8004eb0:	4631      	mov	r1, r6
 8004eb2:	4628      	mov	r0, r5
 8004eb4:	47b8      	blx	r7
 8004eb6:	3001      	adds	r0, #1
 8004eb8:	f43f af09 	beq.w	8004cce <_printf_float+0xc2>
 8004ebc:	f04f 0900 	mov.w	r9, #0
 8004ec0:	f104 0a1a 	add.w	sl, r4, #26
 8004ec4:	9b09      	ldr	r3, [sp, #36]	; 0x24
 8004ec6:	425b      	negs	r3, r3
 8004ec8:	454b      	cmp	r3, r9
 8004eca:	dc01      	bgt.n	8004ed0 <_printf_float+0x2c4>
 8004ecc:	9b0a      	ldr	r3, [sp, #40]	; 0x28
 8004ece:	e792      	b.n	8004df6 <_printf_float+0x1ea>
 8004ed0:	2301      	movs	r3, #1
 8004ed2:	4652      	mov	r2, sl
 8004ed4:	4631      	mov	r1, r6
 8004ed6:	4628      	mov	r0, r5
 8004ed8:	47b8      	blx	r7
 8004eda:	3001      	adds	r0, #1
 8004edc:	f43f aef7 	beq.w	8004cce <_printf_float+0xc2>
 8004ee0:	f109 0901 	add.w	r9, r9, #1
 8004ee4:	e7ee      	b.n	8004ec4 <_printf_float+0x2b8>
 8004ee6:	bf00      	nop
 8004ee8:	7fefffff 	.word	0x7fefffff
 8004eec:	0800776c 	.word	0x0800776c
 8004ef0:	08007770 	.word	0x08007770
 8004ef4:	08007778 	.word	0x08007778
 8004ef8:	08007774 	.word	0x08007774
 8004efc:	0800777c 	.word	0x0800777c
 8004f00:	9a0a      	ldr	r2, [sp, #40]	; 0x28
 8004f02:	6da3      	ldr	r3, [r4, #88]	; 0x58
 8004f04:	429a      	cmp	r2, r3
 8004f06:	bfa8      	it	ge
 8004f08:	461a      	movge	r2, r3
 8004f0a:	2a00      	cmp	r2, #0
 8004f0c:	4691      	mov	r9, r2
 8004f0e:	dc37      	bgt.n	8004f80 <_printf_float+0x374>
 8004f10:	f04f 0b00 	mov.w	fp, #0
 8004f14:	ea29 79e9 	bic.w	r9, r9, r9, asr #31
 8004f18:	f104 021a 	add.w	r2, r4, #26
 8004f1c:	6da3      	ldr	r3, [r4, #88]	; 0x58
 8004f1e:	9305      	str	r3, [sp, #20]
 8004f20:	eba3 0309 	sub.w	r3, r3, r9
 8004f24:	455b      	cmp	r3, fp
 8004f26:	dc33      	bgt.n	8004f90 <_printf_float+0x384>
 8004f28:	e9dd 2309 	ldrd	r2, r3, [sp, #36]	; 0x24
 8004f2c:	429a      	cmp	r2, r3
 8004f2e:	db3b      	blt.n	8004fa8 <_printf_float+0x39c>
 8004f30:	6823      	ldr	r3, [r4, #0]
 8004f32:	07da      	lsls	r2, r3, #31
 8004f34:	d438      	bmi.n	8004fa8 <_printf_float+0x39c>
 8004f36:	9b0a      	ldr	r3, [sp, #40]	; 0x28
 8004f38:	9a05      	ldr	r2, [sp, #20]
 8004f3a:	9909      	ldr	r1, [sp, #36]	; 0x24
 8004f3c:	1a9a      	subs	r2, r3, r2
 8004f3e:	eba3 0901 	sub.w	r9, r3, r1
 8004f42:	4591      	cmp	r9, r2
 8004f44:	bfa8      	it	ge
 8004f46:	4691      	movge	r9, r2
 8004f48:	f1b9 0f00 	cmp.w	r9, #0
 8004f4c:	dc35      	bgt.n	8004fba <_printf_float+0x3ae>
 8004f4e:	f04f 0800 	mov.w	r8, #0
 8004f52:	ea29 79e9 	bic.w	r9, r9, r9, asr #31
 8004f56:	f104 0a1a 	add.w	sl, r4, #26
 8004f5a:	e9dd 2309 	ldrd	r2, r3, [sp, #36]	; 0x24
 8004f5e:	1a9b      	subs	r3, r3, r2
 8004f60:	eba3 0309 	sub.w	r3, r3, r9
 8004f64:	4543      	cmp	r3, r8
 8004f66:	f77f af79 	ble.w	8004e5c <_printf_float+0x250>
 8004f6a:	2301      	movs	r3, #1
 8004f6c:	4652      	mov	r2, sl
 8004f6e:	4631      	mov	r1, r6
 8004f70:	4628      	mov	r0, r5
 8004f72:	47b8      	blx	r7
 8004f74:	3001      	adds	r0, #1
 8004f76:	f43f aeaa 	beq.w	8004cce <_printf_float+0xc2>
 8004f7a:	f108 0801 	add.w	r8, r8, #1
 8004f7e:	e7ec      	b.n	8004f5a <_printf_float+0x34e>
 8004f80:	4613      	mov	r3, r2
 8004f82:	4631      	mov	r1, r6
 8004f84:	4642      	mov	r2, r8
 8004f86:	4628      	mov	r0, r5
 8004f88:	47b8      	blx	r7
 8004f8a:	3001      	adds	r0, #1
 8004f8c:	d1c0      	bne.n	8004f10 <_printf_float+0x304>
 8004f8e:	e69e      	b.n	8004cce <_printf_float+0xc2>
 8004f90:	2301      	movs	r3, #1
 8004f92:	4631      	mov	r1, r6
 8004f94:	4628      	mov	r0, r5
 8004f96:	9205      	str	r2, [sp, #20]
 8004f98:	47b8      	blx	r7
 8004f9a:	3001      	adds	r0, #1
 8004f9c:	f43f ae97 	beq.w	8004cce <_printf_float+0xc2>
 8004fa0:	9a05      	ldr	r2, [sp, #20]
 8004fa2:	f10b 0b01 	add.w	fp, fp, #1
 8004fa6:	e7b9      	b.n	8004f1c <_printf_float+0x310>
 8004fa8:	ee18 3a10 	vmov	r3, s16
 8004fac:	4652      	mov	r2, sl
 8004fae:	4631      	mov	r1, r6
 8004fb0:	4628      	mov	r0, r5
 8004fb2:	47b8      	blx	r7
 8004fb4:	3001      	adds	r0, #1
 8004fb6:	d1be      	bne.n	8004f36 <_printf_float+0x32a>
 8004fb8:	e689      	b.n	8004cce <_printf_float+0xc2>
 8004fba:	9a05      	ldr	r2, [sp, #20]
 8004fbc:	464b      	mov	r3, r9
 8004fbe:	4442      	add	r2, r8
 8004fc0:	4631      	mov	r1, r6
 8004fc2:	4628      	mov	r0, r5
 8004fc4:	47b8      	blx	r7
 8004fc6:	3001      	adds	r0, #1
 8004fc8:	d1c1      	bne.n	8004f4e <_printf_float+0x342>
 8004fca:	e680      	b.n	8004cce <_printf_float+0xc2>
 8004fcc:	9a0a      	ldr	r2, [sp, #40]	; 0x28
 8004fce:	2a01      	cmp	r2, #1
 8004fd0:	dc01      	bgt.n	8004fd6 <_printf_float+0x3ca>
 8004fd2:	07db      	lsls	r3, r3, #31
 8004fd4:	d538      	bpl.n	8005048 <_printf_float+0x43c>
 8004fd6:	2301      	movs	r3, #1
 8004fd8:	4642      	mov	r2, r8
 8004fda:	4631      	mov	r1, r6
 8004fdc:	4628      	mov	r0, r5
 8004fde:	47b8      	blx	r7
 8004fe0:	3001      	adds	r0, #1
 8004fe2:	f43f ae74 	beq.w	8004cce <_printf_float+0xc2>
 8004fe6:	ee18 3a10 	vmov	r3, s16
 8004fea:	4652      	mov	r2, sl
 8004fec:	4631      	mov	r1, r6
 8004fee:	4628      	mov	r0, r5
 8004ff0:	47b8      	blx	r7
 8004ff2:	3001      	adds	r0, #1
 8004ff4:	f43f ae6b 	beq.w	8004cce <_printf_float+0xc2>
 8004ff8:	e9d4 0112 	ldrd	r0, r1, [r4, #72]	; 0x48
 8004ffc:	2200      	movs	r2, #0
 8004ffe:	2300      	movs	r3, #0
 8005000:	f7fb fd62 	bl	8000ac8 <__aeabi_dcmpeq>
 8005004:	b9d8      	cbnz	r0, 800503e <_printf_float+0x432>
 8005006:	9b0a      	ldr	r3, [sp, #40]	; 0x28
 8005008:	f108 0201 	add.w	r2, r8, #1
 800500c:	3b01      	subs	r3, #1
 800500e:	4631      	mov	r1, r6
 8005010:	4628      	mov	r0, r5
 8005012:	47b8      	blx	r7
 8005014:	3001      	adds	r0, #1
 8005016:	d10e      	bne.n	8005036 <_printf_float+0x42a>
 8005018:	e659      	b.n	8004cce <_printf_float+0xc2>
 800501a:	2301      	movs	r3, #1
 800501c:	4652      	mov	r2, sl
 800501e:	4631      	mov	r1, r6
 8005020:	4628      	mov	r0, r5
 8005022:	47b8      	blx	r7
 8005024:	3001      	adds	r0, #1
 8005026:	f43f ae52 	beq.w	8004cce <_printf_float+0xc2>
 800502a:	f108 0801 	add.w	r8, r8, #1
 800502e:	9b0a      	ldr	r3, [sp, #40]	; 0x28
 8005030:	3b01      	subs	r3, #1
 8005032:	4543      	cmp	r3, r8
 8005034:	dcf1      	bgt.n	800501a <_printf_float+0x40e>
 8005036:	464b      	mov	r3, r9
 8005038:	f104 0250 	add.w	r2, r4, #80	; 0x50
 800503c:	e6dc      	b.n	8004df8 <_printf_float+0x1ec>
 800503e:	f04f 0800 	mov.w	r8, #0
 8005042:	f104 0a1a 	add.w	sl, r4, #26
 8005046:	e7f2      	b.n	800502e <_printf_float+0x422>
 8005048:	2301      	movs	r3, #1
 800504a:	4642      	mov	r2, r8
 800504c:	e7df      	b.n	800500e <_printf_float+0x402>
 800504e:	2301      	movs	r3, #1
 8005050:	464a      	mov	r2, r9
 8005052:	4631      	mov	r1, r6
 8005054:	4628      	mov	r0, r5
 8005056:	47b8      	blx	r7
 8005058:	3001      	adds	r0, #1
 800505a:	f43f ae38 	beq.w	8004cce <_printf_float+0xc2>
 800505e:	f108 0801 	add.w	r8, r8, #1
 8005062:	68e3      	ldr	r3, [r4, #12]
 8005064:	990b      	ldr	r1, [sp, #44]	; 0x2c
 8005066:	1a5b      	subs	r3, r3, r1
 8005068:	4543      	cmp	r3, r8
 800506a:	dcf0      	bgt.n	800504e <_printf_float+0x442>
 800506c:	e6fa      	b.n	8004e64 <_printf_float+0x258>
 800506e:	f04f 0800 	mov.w	r8, #0
 8005072:	f104 0919 	add.w	r9, r4, #25
 8005076:	e7f4      	b.n	8005062 <_printf_float+0x456>

08005078 <_printf_common>:
 8005078:	e92d 47f0 	stmdb	sp!, {r4, r5, r6, r7, r8, r9, sl, lr}
 800507c:	4616      	mov	r6, r2
 800507e:	4699      	mov	r9, r3
 8005080:	688a      	ldr	r2, [r1, #8]
 8005082:	690b      	ldr	r3, [r1, #16]
 8005084:	f8dd 8020 	ldr.w	r8, [sp, #32]
 8005088:	4293      	cmp	r3, r2
 800508a:	bfb8      	it	lt
 800508c:	4613      	movlt	r3, r2
 800508e:	6033      	str	r3, [r6, #0]
 8005090:	f891 2043 	ldrb.w	r2, [r1, #67]	; 0x43
 8005094:	4607      	mov	r7, r0
 8005096:	460c      	mov	r4, r1
 8005098:	b10a      	cbz	r2, 800509e <_printf_common+0x26>
 800509a:	3301      	adds	r3, #1
 800509c:	6033      	str	r3, [r6, #0]
 800509e:	6823      	ldr	r3, [r4, #0]
 80050a0:	0699      	lsls	r1, r3, #26
 80050a2:	bf42      	ittt	mi
 80050a4:	6833      	ldrmi	r3, [r6, #0]
 80050a6:	3302      	addmi	r3, #2
 80050a8:	6033      	strmi	r3, [r6, #0]
 80050aa:	6825      	ldr	r5, [r4, #0]
 80050ac:	f015 0506 	ands.w	r5, r5, #6
 80050b0:	d106      	bne.n	80050c0 <_printf_common+0x48>
 80050b2:	f104 0a19 	add.w	sl, r4, #25
 80050b6:	68e3      	ldr	r3, [r4, #12]
 80050b8:	6832      	ldr	r2, [r6, #0]
 80050ba:	1a9b      	subs	r3, r3, r2
 80050bc:	42ab      	cmp	r3, r5
 80050be:	dc26      	bgt.n	800510e <_printf_common+0x96>
 80050c0:	f894 2043 	ldrb.w	r2, [r4, #67]	; 0x43
 80050c4:	1e13      	subs	r3, r2, #0
 80050c6:	6822      	ldr	r2, [r4, #0]
 80050c8:	bf18      	it	ne
 80050ca:	2301      	movne	r3, #1
 80050cc:	0692      	lsls	r2, r2, #26
 80050ce:	d42b      	bmi.n	8005128 <_printf_common+0xb0>
 80050d0:	f104 0243 	add.w	r2, r4, #67	; 0x43
 80050d4:	4649      	mov	r1, r9
 80050d6:	4638      	mov	r0, r7
 80050d8:	47c0      	blx	r8
 80050da:	3001      	adds	r0, #1
 80050dc:	d01e      	beq.n	800511c <_printf_common+0xa4>
 80050de:	6823      	ldr	r3, [r4, #0]
 80050e0:	68e5      	ldr	r5, [r4, #12]
 80050e2:	6832      	ldr	r2, [r6, #0]
 80050e4:	f003 0306 	and.w	r3, r3, #6
 80050e8:	2b04      	cmp	r3, #4
 80050ea:	bf08      	it	eq
 80050ec:	1aad      	subeq	r5, r5, r2
 80050ee:	68a3      	ldr	r3, [r4, #8]
 80050f0:	6922      	ldr	r2, [r4, #16]
 80050f2:	bf0c      	ite	eq
 80050f4:	ea25 75e5 	biceq.w	r5, r5, r5, asr #31
 80050f8:	2500      	movne	r5, #0
 80050fa:	4293      	cmp	r3, r2
 80050fc:	bfc4      	itt	gt
 80050fe:	1a9b      	subgt	r3, r3, r2
 8005100:	18ed      	addgt	r5, r5, r3
 8005102:	2600      	movs	r6, #0
 8005104:	341a      	adds	r4, #26
 8005106:	42b5      	cmp	r5, r6
 8005108:	d11a      	bne.n	8005140 <_printf_common+0xc8>
 800510a:	2000      	movs	r0, #0
 800510c:	e008      	b.n	8005120 <_printf_common+0xa8>
 800510e:	2301      	movs	r3, #1
 8005110:	4652      	mov	r2, sl
 8005112:	4649      	mov	r1, r9
 8005114:	4638      	mov	r0, r7
 8005116:	47c0      	blx	r8
 8005118:	3001      	adds	r0, #1
 800511a:	d103      	bne.n	8005124 <_printf_common+0xac>
 800511c:	f04f 30ff 	mov.w	r0, #4294967295
 8005120:	e8bd 87f0 	ldmia.w	sp!, {r4, r5, r6, r7, r8, r9, sl, pc}
 8005124:	3501      	adds	r5, #1
 8005126:	e7c6      	b.n	80050b6 <_printf_common+0x3e>
 8005128:	18e1      	adds	r1, r4, r3
 800512a:	1c5a      	adds	r2, r3, #1
 800512c:	2030      	movs	r0, #48	; 0x30
 800512e:	f881 0043 	strb.w	r0, [r1, #67]	; 0x43
 8005132:	4422      	add	r2, r4
 8005134:	f894 1045 	ldrb.w	r1, [r4, #69]	; 0x45
 8005138:	f882 1043 	strb.w	r1, [r2, #67]	; 0x43
 800513c:	3302      	adds	r3, #2
 800513e:	e7c7      	b.n	80050d0 <_printf_common+0x58>
 8005140:	2301      	movs	r3, #1
 8005142:	4622      	mov	r2, r4
 8005144:	4649      	mov	r1, r9
 8005146:	4638      	mov	r0, r7
 8005148:	47c0      	blx	r8
 800514a:	3001      	adds	r0, #1
 800514c:	d0e6      	beq.n	800511c <_printf_common+0xa4>
 800514e:	3601      	adds	r6, #1
 8005150:	e7d9      	b.n	8005106 <_printf_common+0x8e>
	...

08005154 <_printf_i>:
 8005154:	e92d 47ff 	stmdb	sp!, {r0, r1, r2, r3, r4, r5, r6, r7, r8, r9, sl, lr}
 8005158:	7e0f      	ldrb	r7, [r1, #24]
 800515a:	9d0c      	ldr	r5, [sp, #48]	; 0x30
 800515c:	2f78      	cmp	r7, #120	; 0x78
 800515e:	4691      	mov	r9, r2
 8005160:	4680      	mov	r8, r0
 8005162:	460c      	mov	r4, r1
 8005164:	469a      	mov	sl, r3
 8005166:	f101 0243 	add.w	r2, r1, #67	; 0x43
 800516a:	d807      	bhi.n	800517c <_printf_i+0x28>
 800516c:	2f62      	cmp	r7, #98	; 0x62
 800516e:	d80a      	bhi.n	8005186 <_printf_i+0x32>
 8005170:	2f00      	cmp	r7, #0
 8005172:	f000 80d8 	beq.w	8005326 <_printf_i+0x1d2>
 8005176:	2f58      	cmp	r7, #88	; 0x58
 8005178:	f000 80a3 	beq.w	80052c2 <_printf_i+0x16e>
 800517c:	f104 0542 	add.w	r5, r4, #66	; 0x42
 8005180:	f884 7042 	strb.w	r7, [r4, #66]	; 0x42
 8005184:	e03a      	b.n	80051fc <_printf_i+0xa8>
 8005186:	f1a7 0363 	sub.w	r3, r7, #99	; 0x63
 800518a:	2b15      	cmp	r3, #21
 800518c:	d8f6      	bhi.n	800517c <_printf_i+0x28>
 800518e:	a101      	add	r1, pc, #4	; (adr r1, 8005194 <_printf_i+0x40>)
 8005190:	f851 f023 	ldr.w	pc, [r1, r3, lsl #2]
 8005194:	080051ed 	.word	0x080051ed
 8005198:	08005201 	.word	0x08005201
 800519c:	0800517d 	.word	0x0800517d
 80051a0:	0800517d 	.word	0x0800517d
 80051a4:	0800517d 	.word	0x0800517d
 80051a8:	0800517d 	.word	0x0800517d
 80051ac:	08005201 	.word	0x08005201
 80051b0:	0800517d 	.word	0x0800517d
 80051b4:	0800517d 	.word	0x0800517d
 80051b8:	0800517d 	.word	0x0800517d
 80051bc:	0800517d 	.word	0x0800517d
 80051c0:	0800530d 	.word	0x0800530d
 80051c4:	08005231 	.word	0x08005231
 80051c8:	080052ef 	.word	0x080052ef
 80051cc:	0800517d 	.word	0x0800517d
 80051d0:	0800517d 	.word	0x0800517d
 80051d4:	0800532f 	.word	0x0800532f
 80051d8:	0800517d 	.word	0x0800517d
 80051dc:	08005231 	.word	0x08005231
 80051e0:	0800517d 	.word	0x0800517d
 80051e4:	0800517d 	.word	0x0800517d
 80051e8:	080052f7 	.word	0x080052f7
 80051ec:	682b      	ldr	r3, [r5, #0]
 80051ee:	1d1a      	adds	r2, r3, #4
 80051f0:	681b      	ldr	r3, [r3, #0]
 80051f2:	602a      	str	r2, [r5, #0]
 80051f4:	f104 0542 	add.w	r5, r4, #66	; 0x42
 80051f8:	f884 3042 	strb.w	r3, [r4, #66]	; 0x42
 80051fc:	2301      	movs	r3, #1
 80051fe:	e0a3      	b.n	8005348 <_printf_i+0x1f4>
 8005200:	6820      	ldr	r0, [r4, #0]
 8005202:	6829      	ldr	r1, [r5, #0]
 8005204:	0606      	lsls	r6, r0, #24
 8005206:	f101 0304 	add.w	r3, r1, #4
 800520a:	d50a      	bpl.n	8005222 <_printf_i+0xce>
 800520c:	680e      	ldr	r6, [r1, #0]
 800520e:	602b      	str	r3, [r5, #0]
 8005210:	2e00      	cmp	r6, #0
 8005212:	da03      	bge.n	800521c <_printf_i+0xc8>
 8005214:	232d      	movs	r3, #45	; 0x2d
 8005216:	4276      	negs	r6, r6
 8005218:	f884 3043 	strb.w	r3, [r4, #67]	; 0x43
 800521c:	485e      	ldr	r0, [pc, #376]	; (8005398 <_printf_i+0x244>)
 800521e:	230a      	movs	r3, #10
 8005220:	e019      	b.n	8005256 <_printf_i+0x102>
 8005222:	680e      	ldr	r6, [r1, #0]
 8005224:	602b      	str	r3, [r5, #0]
 8005226:	f010 0f40 	tst.w	r0, #64	; 0x40
 800522a:	bf18      	it	ne
 800522c:	b236      	sxthne	r6, r6
 800522e:	e7ef      	b.n	8005210 <_printf_i+0xbc>
 8005230:	682b      	ldr	r3, [r5, #0]
 8005232:	6820      	ldr	r0, [r4, #0]
 8005234:	1d19      	adds	r1, r3, #4
 8005236:	6029      	str	r1, [r5, #0]
 8005238:	0601      	lsls	r1, r0, #24
 800523a:	d501      	bpl.n	8005240 <_printf_i+0xec>
 800523c:	681e      	ldr	r6, [r3, #0]
 800523e:	e002      	b.n	8005246 <_printf_i+0xf2>
 8005240:	0646      	lsls	r6, r0, #25
 8005242:	d5fb      	bpl.n	800523c <_printf_i+0xe8>
 8005244:	881e      	ldrh	r6, [r3, #0]
 8005246:	4854      	ldr	r0, [pc, #336]	; (8005398 <_printf_i+0x244>)
 8005248:	2f6f      	cmp	r7, #111	; 0x6f
 800524a:	bf0c      	ite	eq
 800524c:	2308      	moveq	r3, #8
 800524e:	230a      	movne	r3, #10
 8005250:	2100      	movs	r1, #0
 8005252:	f884 1043 	strb.w	r1, [r4, #67]	; 0x43
 8005256:	6865      	ldr	r5, [r4, #4]
 8005258:	60a5      	str	r5, [r4, #8]
 800525a:	2d00      	cmp	r5, #0
 800525c:	bfa2      	ittt	ge
 800525e:	6821      	ldrge	r1, [r4, #0]
 8005260:	f021 0104 	bicge.w	r1, r1, #4
 8005264:	6021      	strge	r1, [r4, #0]
 8005266:	b90e      	cbnz	r6, 800526c <_printf_i+0x118>
 8005268:	2d00      	cmp	r5, #0
 800526a:	d04d      	beq.n	8005308 <_printf_i+0x1b4>
 800526c:	4615      	mov	r5, r2
 800526e:	fbb6 f1f3 	udiv	r1, r6, r3
 8005272:	fb03 6711 	mls	r7, r3, r1, r6
 8005276:	5dc7      	ldrb	r7, [r0, r7]
 8005278:	f805 7d01 	strb.w	r7, [r5, #-1]!
 800527c:	4637      	mov	r7, r6
 800527e:	42bb      	cmp	r3, r7
 8005280:	460e      	mov	r6, r1
 8005282:	d9f4      	bls.n	800526e <_printf_i+0x11a>
 8005284:	2b08      	cmp	r3, #8
 8005286:	d10b      	bne.n	80052a0 <_printf_i+0x14c>
 8005288:	6823      	ldr	r3, [r4, #0]
 800528a:	07de      	lsls	r6, r3, #31
 800528c:	d508      	bpl.n	80052a0 <_printf_i+0x14c>
 800528e:	6923      	ldr	r3, [r4, #16]
 8005290:	6861      	ldr	r1, [r4, #4]
 8005292:	4299      	cmp	r1, r3
 8005294:	bfde      	ittt	le
 8005296:	2330      	movle	r3, #48	; 0x30
 8005298:	f805 3c01 	strble.w	r3, [r5, #-1]
 800529c:	f105 35ff 	addle.w	r5, r5, #4294967295
 80052a0:	1b52      	subs	r2, r2, r5
 80052a2:	6122      	str	r2, [r4, #16]
 80052a4:	f8cd a000 	str.w	sl, [sp]
 80052a8:	464b      	mov	r3, r9
 80052aa:	aa03      	add	r2, sp, #12
 80052ac:	4621      	mov	r1, r4
 80052ae:	4640      	mov	r0, r8
 80052b0:	f7ff fee2 	bl	8005078 <_printf_common>
 80052b4:	3001      	adds	r0, #1
 80052b6:	d14c      	bne.n	8005352 <_printf_i+0x1fe>
 80052b8:	f04f 30ff 	mov.w	r0, #4294967295
 80052bc:	b004      	add	sp, #16
 80052be:	e8bd 87f0 	ldmia.w	sp!, {r4, r5, r6, r7, r8, r9, sl, pc}
 80052c2:	4835      	ldr	r0, [pc, #212]	; (8005398 <_printf_i+0x244>)
 80052c4:	f881 7045 	strb.w	r7, [r1, #69]	; 0x45
 80052c8:	6829      	ldr	r1, [r5, #0]
 80052ca:	6823      	ldr	r3, [r4, #0]
 80052cc:	f851 6b04 	ldr.w	r6, [r1], #4
 80052d0:	6029      	str	r1, [r5, #0]
 80052d2:	061d      	lsls	r5, r3, #24
 80052d4:	d514      	bpl.n	8005300 <_printf_i+0x1ac>
 80052d6:	07df      	lsls	r7, r3, #31
 80052d8:	bf44      	itt	mi
 80052da:	f043 0320 	orrmi.w	r3, r3, #32
 80052de:	6023      	strmi	r3, [r4, #0]
 80052e0:	b91e      	cbnz	r6, 80052ea <_printf_i+0x196>
 80052e2:	6823      	ldr	r3, [r4, #0]
 80052e4:	f023 0320 	bic.w	r3, r3, #32
 80052e8:	6023      	str	r3, [r4, #0]
 80052ea:	2310      	movs	r3, #16
 80052ec:	e7b0      	b.n	8005250 <_printf_i+0xfc>
 80052ee:	6823      	ldr	r3, [r4, #0]
 80052f0:	f043 0320 	orr.w	r3, r3, #32
 80052f4:	6023      	str	r3, [r4, #0]
 80052f6:	2378      	movs	r3, #120	; 0x78
 80052f8:	4828      	ldr	r0, [pc, #160]	; (800539c <_printf_i+0x248>)
 80052fa:	f884 3045 	strb.w	r3, [r4, #69]	; 0x45
 80052fe:	e7e3      	b.n	80052c8 <_printf_i+0x174>
 8005300:	0659      	lsls	r1, r3, #25
 8005302:	bf48      	it	mi
 8005304:	b2b6      	uxthmi	r6, r6
 8005306:	e7e6      	b.n	80052d6 <_printf_i+0x182>
 8005308:	4615      	mov	r5, r2
 800530a:	e7bb      	b.n	8005284 <_printf_i+0x130>
 800530c:	682b      	ldr	r3, [r5, #0]
 800530e:	6826      	ldr	r6, [r4, #0]
 8005310:	6961      	ldr	r1, [r4, #20]
 8005312:	1d18      	adds	r0, r3, #4
 8005314:	6028      	str	r0, [r5, #0]
 8005316:	0635      	lsls	r5, r6, #24
 8005318:	681b      	ldr	r3, [r3, #0]
 800531a:	d501      	bpl.n	8005320 <_printf_i+0x1cc>
 800531c:	6019      	str	r1, [r3, #0]
 800531e:	e002      	b.n	8005326 <_printf_i+0x1d2>
 8005320:	0670      	lsls	r0, r6, #25
 8005322:	d5fb      	bpl.n	800531c <_printf_i+0x1c8>
 8005324:	8019      	strh	r1, [r3, #0]
 8005326:	2300      	movs	r3, #0
 8005328:	6123      	str	r3, [r4, #16]
 800532a:	4615      	mov	r5, r2
 800532c:	e7ba      	b.n	80052a4 <_printf_i+0x150>
 800532e:	682b      	ldr	r3, [r5, #0]
 8005330:	1d1a      	adds	r2, r3, #4
 8005332:	602a      	str	r2, [r5, #0]
 8005334:	681d      	ldr	r5, [r3, #0]
 8005336:	6862      	ldr	r2, [r4, #4]
 8005338:	2100      	movs	r1, #0
 800533a:	4628      	mov	r0, r5
 800533c:	f7fa ff50 	bl	80001e0 <memchr>
 8005340:	b108      	cbz	r0, 8005346 <_printf_i+0x1f2>
 8005342:	1b40      	subs	r0, r0, r5
 8005344:	6060      	str	r0, [r4, #4]
 8005346:	6863      	ldr	r3, [r4, #4]
 8005348:	6123      	str	r3, [r4, #16]
 800534a:	2300      	movs	r3, #0
 800534c:	f884 3043 	strb.w	r3, [r4, #67]	; 0x43
 8005350:	e7a8      	b.n	80052a4 <_printf_i+0x150>
 8005352:	6923      	ldr	r3, [r4, #16]
 8005354:	462a      	mov	r2, r5
 8005356:	4649      	mov	r1, r9
 8005358:	4640      	mov	r0, r8
 800535a:	47d0      	blx	sl
 800535c:	3001      	adds	r0, #1
 800535e:	d0ab      	beq.n	80052b8 <_printf_i+0x164>
 8005360:	6823      	ldr	r3, [r4, #0]
 8005362:	079b      	lsls	r3, r3, #30
 8005364:	d413      	bmi.n	800538e <_printf_i+0x23a>
 8005366:	68e0      	ldr	r0, [r4, #12]
 8005368:	9b03      	ldr	r3, [sp, #12]
 800536a:	4298      	cmp	r0, r3
 800536c:	bfb8      	it	lt
 800536e:	4618      	movlt	r0, r3
 8005370:	e7a4      	b.n	80052bc <_printf_i+0x168>
 8005372:	2301      	movs	r3, #1
 8005374:	4632      	mov	r2, r6
 8005376:	4649      	mov	r1, r9
 8005378:	4640      	mov	r0, r8
 800537a:	47d0      	blx	sl
 800537c:	3001      	adds	r0, #1
 800537e:	d09b      	beq.n	80052b8 <_printf_i+0x164>
 8005380:	3501      	adds	r5, #1
 8005382:	68e3      	ldr	r3, [r4, #12]
 8005384:	9903      	ldr	r1, [sp, #12]
 8005386:	1a5b      	subs	r3, r3, r1
 8005388:	42ab      	cmp	r3, r5
 800538a:	dcf2      	bgt.n	8005372 <_printf_i+0x21e>
 800538c:	e7eb      	b.n	8005366 <_printf_i+0x212>
 800538e:	2500      	movs	r5, #0
 8005390:	f104 0619 	add.w	r6, r4, #25
 8005394:	e7f5      	b.n	8005382 <_printf_i+0x22e>
 8005396:	bf00      	nop
 8005398:	0800777e 	.word	0x0800777e
 800539c:	0800778f 	.word	0x0800778f

080053a0 <iprintf>:
 80053a0:	b40f      	push	{r0, r1, r2, r3}
 80053a2:	4b0a      	ldr	r3, [pc, #40]	; (80053cc <iprintf+0x2c>)
 80053a4:	b513      	push	{r0, r1, r4, lr}
 80053a6:	681c      	ldr	r4, [r3, #0]
 80053a8:	b124      	cbz	r4, 80053b4 <iprintf+0x14>
 80053aa:	69a3      	ldr	r3, [r4, #24]
 80053ac:	b913      	cbnz	r3, 80053b4 <iprintf+0x14>
 80053ae:	4620      	mov	r0, r4
 80053b0:	f001 f872 	bl	8006498 <__sinit>
 80053b4:	ab05      	add	r3, sp, #20
 80053b6:	9a04      	ldr	r2, [sp, #16]
 80053b8:	68a1      	ldr	r1, [r4, #8]
 80053ba:	9301      	str	r3, [sp, #4]
 80053bc:	4620      	mov	r0, r4
 80053be:	f001 fe2f 	bl	8007020 <_vfiprintf_r>
 80053c2:	b002      	add	sp, #8
 80053c4:	e8bd 4010 	ldmia.w	sp!, {r4, lr}
 80053c8:	b004      	add	sp, #16
 80053ca:	4770      	bx	lr
 80053cc:	2000000c 	.word	0x2000000c

080053d0 <setbuf>:
 80053d0:	2900      	cmp	r1, #0
 80053d2:	f44f 6380 	mov.w	r3, #1024	; 0x400
 80053d6:	bf0c      	ite	eq
 80053d8:	2202      	moveq	r2, #2
 80053da:	2200      	movne	r2, #0
 80053dc:	f000 b800 	b.w	80053e0 <setvbuf>

080053e0 <setvbuf>:
 80053e0:	e92d 43f7 	stmdb	sp!, {r0, r1, r2, r4, r5, r6, r7, r8, r9, lr}
 80053e4:	461d      	mov	r5, r3
 80053e6:	4b5d      	ldr	r3, [pc, #372]	; (800555c <setvbuf+0x17c>)
 80053e8:	681f      	ldr	r7, [r3, #0]
 80053ea:	4604      	mov	r4, r0
 80053ec:	460e      	mov	r6, r1
 80053ee:	4690      	mov	r8, r2
 80053f0:	b127      	cbz	r7, 80053fc <setvbuf+0x1c>
 80053f2:	69bb      	ldr	r3, [r7, #24]
 80053f4:	b913      	cbnz	r3, 80053fc <setvbuf+0x1c>
 80053f6:	4638      	mov	r0, r7
 80053f8:	f001 f84e 	bl	8006498 <__sinit>
 80053fc:	4b58      	ldr	r3, [pc, #352]	; (8005560 <setvbuf+0x180>)
 80053fe:	429c      	cmp	r4, r3
 8005400:	d167      	bne.n	80054d2 <setvbuf+0xf2>
 8005402:	687c      	ldr	r4, [r7, #4]
 8005404:	f1b8 0f02 	cmp.w	r8, #2
 8005408:	d006      	beq.n	8005418 <setvbuf+0x38>
 800540a:	f1b8 0f01 	cmp.w	r8, #1
 800540e:	f200 809f 	bhi.w	8005550 <setvbuf+0x170>
 8005412:	2d00      	cmp	r5, #0
 8005414:	f2c0 809c 	blt.w	8005550 <setvbuf+0x170>
 8005418:	6e63      	ldr	r3, [r4, #100]	; 0x64
 800541a:	07db      	lsls	r3, r3, #31
 800541c:	d405      	bmi.n	800542a <setvbuf+0x4a>
 800541e:	89a3      	ldrh	r3, [r4, #12]
 8005420:	0598      	lsls	r0, r3, #22
 8005422:	d402      	bmi.n	800542a <setvbuf+0x4a>
 8005424:	6da0      	ldr	r0, [r4, #88]	; 0x58
 8005426:	f001 f8da 	bl	80065de <__retarget_lock_acquire_recursive>
 800542a:	4621      	mov	r1, r4
 800542c:	4638      	mov	r0, r7
 800542e:	f000 ff9f 	bl	8006370 <_fflush_r>
 8005432:	6b61      	ldr	r1, [r4, #52]	; 0x34
 8005434:	b141      	cbz	r1, 8005448 <setvbuf+0x68>
 8005436:	f104 0344 	add.w	r3, r4, #68	; 0x44
 800543a:	4299      	cmp	r1, r3
 800543c:	d002      	beq.n	8005444 <setvbuf+0x64>
 800543e:	4638      	mov	r0, r7
 8005440:	f001 fce4 	bl	8006e0c <_free_r>
 8005444:	2300      	movs	r3, #0
 8005446:	6363      	str	r3, [r4, #52]	; 0x34
 8005448:	2300      	movs	r3, #0
 800544a:	61a3      	str	r3, [r4, #24]
 800544c:	6063      	str	r3, [r4, #4]
 800544e:	89a3      	ldrh	r3, [r4, #12]
 8005450:	0619      	lsls	r1, r3, #24
 8005452:	d503      	bpl.n	800545c <setvbuf+0x7c>
 8005454:	6921      	ldr	r1, [r4, #16]
 8005456:	4638      	mov	r0, r7
 8005458:	f001 fcd8 	bl	8006e0c <_free_r>
 800545c:	89a3      	ldrh	r3, [r4, #12]
 800545e:	f423 634a 	bic.w	r3, r3, #3232	; 0xca0
 8005462:	f023 0303 	bic.w	r3, r3, #3
 8005466:	f1b8 0f02 	cmp.w	r8, #2
 800546a:	81a3      	strh	r3, [r4, #12]
 800546c:	d06c      	beq.n	8005548 <setvbuf+0x168>
 800546e:	ab01      	add	r3, sp, #4
 8005470:	466a      	mov	r2, sp
 8005472:	4621      	mov	r1, r4
 8005474:	4638      	mov	r0, r7
 8005476:	f001 f8b4 	bl	80065e2 <__swhatbuf_r>
 800547a:	89a3      	ldrh	r3, [r4, #12]
 800547c:	4318      	orrs	r0, r3
 800547e:	81a0      	strh	r0, [r4, #12]
 8005480:	2d00      	cmp	r5, #0
 8005482:	d130      	bne.n	80054e6 <setvbuf+0x106>
 8005484:	9d00      	ldr	r5, [sp, #0]
 8005486:	4628      	mov	r0, r5
 8005488:	f001 f910 	bl	80066ac <malloc>
 800548c:	4606      	mov	r6, r0
 800548e:	2800      	cmp	r0, #0
 8005490:	d155      	bne.n	800553e <setvbuf+0x15e>
 8005492:	f8dd 9000 	ldr.w	r9, [sp]
 8005496:	45a9      	cmp	r9, r5
 8005498:	d14a      	bne.n	8005530 <setvbuf+0x150>
 800549a:	f04f 35ff 	mov.w	r5, #4294967295
 800549e:	2200      	movs	r2, #0
 80054a0:	60a2      	str	r2, [r4, #8]
 80054a2:	f104 0247 	add.w	r2, r4, #71	; 0x47
 80054a6:	6022      	str	r2, [r4, #0]
 80054a8:	6122      	str	r2, [r4, #16]
 80054aa:	2201      	movs	r2, #1
 80054ac:	f9b4 300c 	ldrsh.w	r3, [r4, #12]
 80054b0:	6162      	str	r2, [r4, #20]
 80054b2:	6e62      	ldr	r2, [r4, #100]	; 0x64
 80054b4:	f043 0302 	orr.w	r3, r3, #2
 80054b8:	07d2      	lsls	r2, r2, #31
 80054ba:	81a3      	strh	r3, [r4, #12]
 80054bc:	d405      	bmi.n	80054ca <setvbuf+0xea>
 80054be:	f413 7f00 	tst.w	r3, #512	; 0x200
 80054c2:	d102      	bne.n	80054ca <setvbuf+0xea>
 80054c4:	6da0      	ldr	r0, [r4, #88]	; 0x58
 80054c6:	f001 f88b 	bl	80065e0 <__retarget_lock_release_recursive>
 80054ca:	4628      	mov	r0, r5
 80054cc:	b003      	add	sp, #12
 80054ce:	e8bd 83f0 	ldmia.w	sp!, {r4, r5, r6, r7, r8, r9, pc}
 80054d2:	4b24      	ldr	r3, [pc, #144]	; (8005564 <setvbuf+0x184>)
 80054d4:	429c      	cmp	r4, r3
 80054d6:	d101      	bne.n	80054dc <setvbuf+0xfc>
 80054d8:	68bc      	ldr	r4, [r7, #8]
 80054da:	e793      	b.n	8005404 <setvbuf+0x24>
 80054dc:	4b22      	ldr	r3, [pc, #136]	; (8005568 <setvbuf+0x188>)
 80054de:	429c      	cmp	r4, r3
 80054e0:	bf08      	it	eq
 80054e2:	68fc      	ldreq	r4, [r7, #12]
 80054e4:	e78e      	b.n	8005404 <setvbuf+0x24>
 80054e6:	2e00      	cmp	r6, #0
 80054e8:	d0cd      	beq.n	8005486 <setvbuf+0xa6>
 80054ea:	69bb      	ldr	r3, [r7, #24]
 80054ec:	b913      	cbnz	r3, 80054f4 <setvbuf+0x114>
 80054ee:	4638      	mov	r0, r7
 80054f0:	f000 ffd2 	bl	8006498 <__sinit>
 80054f4:	f1b8 0f01 	cmp.w	r8, #1
 80054f8:	bf08      	it	eq
 80054fa:	89a3      	ldrheq	r3, [r4, #12]
 80054fc:	6026      	str	r6, [r4, #0]
 80054fe:	bf04      	itt	eq
 8005500:	f043 0301 	orreq.w	r3, r3, #1
 8005504:	81a3      	strheq	r3, [r4, #12]
 8005506:	89a2      	ldrh	r2, [r4, #12]
 8005508:	f012 0308 	ands.w	r3, r2, #8
 800550c:	e9c4 6504 	strd	r6, r5, [r4, #16]
 8005510:	d01c      	beq.n	800554c <setvbuf+0x16c>
 8005512:	07d3      	lsls	r3, r2, #31
 8005514:	bf41      	itttt	mi
 8005516:	2300      	movmi	r3, #0
 8005518:	426d      	negmi	r5, r5
 800551a:	60a3      	strmi	r3, [r4, #8]
 800551c:	61a5      	strmi	r5, [r4, #24]
 800551e:	bf58      	it	pl
 8005520:	60a5      	strpl	r5, [r4, #8]
 8005522:	6e65      	ldr	r5, [r4, #100]	; 0x64
 8005524:	f015 0501 	ands.w	r5, r5, #1
 8005528:	d115      	bne.n	8005556 <setvbuf+0x176>
 800552a:	f412 7f00 	tst.w	r2, #512	; 0x200
 800552e:	e7c8      	b.n	80054c2 <setvbuf+0xe2>
 8005530:	4648      	mov	r0, r9
 8005532:	f001 f8bb 	bl	80066ac <malloc>
 8005536:	4606      	mov	r6, r0
 8005538:	2800      	cmp	r0, #0
 800553a:	d0ae      	beq.n	800549a <setvbuf+0xba>
 800553c:	464d      	mov	r5, r9
 800553e:	89a3      	ldrh	r3, [r4, #12]
 8005540:	f043 0380 	orr.w	r3, r3, #128	; 0x80
 8005544:	81a3      	strh	r3, [r4, #12]
 8005546:	e7d0      	b.n	80054ea <setvbuf+0x10a>
 8005548:	2500      	movs	r5, #0
 800554a:	e7a8      	b.n	800549e <setvbuf+0xbe>
 800554c:	60a3      	str	r3, [r4, #8]
 800554e:	e7e8      	b.n	8005522 <setvbuf+0x142>
 8005550:	f04f 35ff 	mov.w	r5, #4294967295
 8005554:	e7b9      	b.n	80054ca <setvbuf+0xea>
 8005556:	2500      	movs	r5, #0
 8005558:	e7b7      	b.n	80054ca <setvbuf+0xea>
 800555a:	bf00      	nop
 800555c:	2000000c 	.word	0x2000000c
 8005560:	08007850 	.word	0x08007850
 8005564:	08007870 	.word	0x08007870
 8005568:	08007830 	.word	0x08007830

0800556c <quorem>:
 800556c:	e92d 4ff7 	stmdb	sp!, {r0, r1, r2, r4, r5, r6, r7, r8, r9, sl, fp, lr}
 8005570:	6903      	ldr	r3, [r0, #16]
 8005572:	690c      	ldr	r4, [r1, #16]
 8005574:	42a3      	cmp	r3, r4
 8005576:	4607      	mov	r7, r0
 8005578:	f2c0 8081 	blt.w	800567e <quorem+0x112>
 800557c:	3c01      	subs	r4, #1
 800557e:	f101 0814 	add.w	r8, r1, #20
 8005582:	f100 0514 	add.w	r5, r0, #20
 8005586:	eb05 0384 	add.w	r3, r5, r4, lsl #2
 800558a:	9301      	str	r3, [sp, #4]
 800558c:	f858 3024 	ldr.w	r3, [r8, r4, lsl #2]
 8005590:	f855 2024 	ldr.w	r2, [r5, r4, lsl #2]
 8005594:	3301      	adds	r3, #1
 8005596:	429a      	cmp	r2, r3
 8005598:	ea4f 0b84 	mov.w	fp, r4, lsl #2
 800559c:	eb08 0984 	add.w	r9, r8, r4, lsl #2
 80055a0:	fbb2 f6f3 	udiv	r6, r2, r3
 80055a4:	d331      	bcc.n	800560a <quorem+0x9e>
 80055a6:	f04f 0e00 	mov.w	lr, #0
 80055aa:	4640      	mov	r0, r8
 80055ac:	46ac      	mov	ip, r5
 80055ae:	46f2      	mov	sl, lr
 80055b0:	f850 2b04 	ldr.w	r2, [r0], #4
 80055b4:	b293      	uxth	r3, r2
 80055b6:	fb06 e303 	mla	r3, r6, r3, lr
 80055ba:	ea4f 4e13 	mov.w	lr, r3, lsr #16
 80055be:	b29b      	uxth	r3, r3
 80055c0:	ebaa 0303 	sub.w	r3, sl, r3
 80055c4:	f8dc a000 	ldr.w	sl, [ip]
 80055c8:	0c12      	lsrs	r2, r2, #16
 80055ca:	fa13 f38a 	uxtah	r3, r3, sl
 80055ce:	fb06 e202 	mla	r2, r6, r2, lr
 80055d2:	9300      	str	r3, [sp, #0]
 80055d4:	9b00      	ldr	r3, [sp, #0]
 80055d6:	ea4f 4e12 	mov.w	lr, r2, lsr #16
 80055da:	b292      	uxth	r2, r2
 80055dc:	ebc2 421a 	rsb	r2, r2, sl, lsr #16
 80055e0:	eb02 4223 	add.w	r2, r2, r3, asr #16
 80055e4:	f8bd 3000 	ldrh.w	r3, [sp]
 80055e8:	4581      	cmp	r9, r0
 80055ea:	ea43 4302 	orr.w	r3, r3, r2, lsl #16
 80055ee:	f84c 3b04 	str.w	r3, [ip], #4
 80055f2:	ea4f 4a22 	mov.w	sl, r2, asr #16
 80055f6:	d2db      	bcs.n	80055b0 <quorem+0x44>
 80055f8:	f855 300b 	ldr.w	r3, [r5, fp]
 80055fc:	b92b      	cbnz	r3, 800560a <quorem+0x9e>
 80055fe:	9b01      	ldr	r3, [sp, #4]
 8005600:	3b04      	subs	r3, #4
 8005602:	429d      	cmp	r5, r3
 8005604:	461a      	mov	r2, r3
 8005606:	d32e      	bcc.n	8005666 <quorem+0xfa>
 8005608:	613c      	str	r4, [r7, #16]
 800560a:	4638      	mov	r0, r7
 800560c:	f001 fae6 	bl	8006bdc <__mcmp>
 8005610:	2800      	cmp	r0, #0
 8005612:	db24      	blt.n	800565e <quorem+0xf2>
 8005614:	3601      	adds	r6, #1
 8005616:	4628      	mov	r0, r5
 8005618:	f04f 0c00 	mov.w	ip, #0
 800561c:	f858 2b04 	ldr.w	r2, [r8], #4
 8005620:	f8d0 e000 	ldr.w	lr, [r0]
 8005624:	b293      	uxth	r3, r2
 8005626:	ebac 0303 	sub.w	r3, ip, r3
 800562a:	0c12      	lsrs	r2, r2, #16
 800562c:	fa13 f38e 	uxtah	r3, r3, lr
 8005630:	ebc2 421e 	rsb	r2, r2, lr, lsr #16
 8005634:	eb02 4223 	add.w	r2, r2, r3, asr #16
 8005638:	b29b      	uxth	r3, r3
 800563a:	ea43 4302 	orr.w	r3, r3, r2, lsl #16
 800563e:	45c1      	cmp	r9, r8
 8005640:	f840 3b04 	str.w	r3, [r0], #4
 8005644:	ea4f 4c22 	mov.w	ip, r2, asr #16
 8005648:	d2e8      	bcs.n	800561c <quorem+0xb0>
 800564a:	f855 2024 	ldr.w	r2, [r5, r4, lsl #2]
 800564e:	eb05 0384 	add.w	r3, r5, r4, lsl #2
 8005652:	b922      	cbnz	r2, 800565e <quorem+0xf2>
 8005654:	3b04      	subs	r3, #4
 8005656:	429d      	cmp	r5, r3
 8005658:	461a      	mov	r2, r3
 800565a:	d30a      	bcc.n	8005672 <quorem+0x106>
 800565c:	613c      	str	r4, [r7, #16]
 800565e:	4630      	mov	r0, r6
 8005660:	b003      	add	sp, #12
 8005662:	e8bd 8ff0 	ldmia.w	sp!, {r4, r5, r6, r7, r8, r9, sl, fp, pc}
 8005666:	6812      	ldr	r2, [r2, #0]
 8005668:	3b04      	subs	r3, #4
 800566a:	2a00      	cmp	r2, #0
 800566c:	d1cc      	bne.n	8005608 <quorem+0x9c>
 800566e:	3c01      	subs	r4, #1
 8005670:	e7c7      	b.n	8005602 <quorem+0x96>
 8005672:	6812      	ldr	r2, [r2, #0]
 8005674:	3b04      	subs	r3, #4
 8005676:	2a00      	cmp	r2, #0
 8005678:	d1f0      	bne.n	800565c <quorem+0xf0>
 800567a:	3c01      	subs	r4, #1
 800567c:	e7eb      	b.n	8005656 <quorem+0xea>
 800567e:	2000      	movs	r0, #0
 8005680:	e7ee      	b.n	8005660 <quorem+0xf4>
 8005682:	0000      	movs	r0, r0
 8005684:	0000      	movs	r0, r0
	...

08005688 <_dtoa_r>:
 8005688:	e92d 4ff0 	stmdb	sp!, {r4, r5, r6, r7, r8, r9, sl, fp, lr}
 800568c:	ed2d 8b04 	vpush	{d8-d9}
 8005690:	ec57 6b10 	vmov	r6, r7, d0
 8005694:	b093      	sub	sp, #76	; 0x4c
 8005696:	6a45      	ldr	r5, [r0, #36]	; 0x24
 8005698:	f8dd 8080 	ldr.w	r8, [sp, #128]	; 0x80
 800569c:	9106      	str	r1, [sp, #24]
 800569e:	ee10 aa10 	vmov	sl, s0
 80056a2:	4604      	mov	r4, r0
 80056a4:	9209      	str	r2, [sp, #36]	; 0x24
 80056a6:	930c      	str	r3, [sp, #48]	; 0x30
 80056a8:	46bb      	mov	fp, r7
 80056aa:	b975      	cbnz	r5, 80056ca <_dtoa_r+0x42>
 80056ac:	2010      	movs	r0, #16
 80056ae:	f000 fffd 	bl	80066ac <malloc>
 80056b2:	4602      	mov	r2, r0
 80056b4:	6260      	str	r0, [r4, #36]	; 0x24
 80056b6:	b920      	cbnz	r0, 80056c2 <_dtoa_r+0x3a>
 80056b8:	4ba7      	ldr	r3, [pc, #668]	; (8005958 <_dtoa_r+0x2d0>)
 80056ba:	21ea      	movs	r1, #234	; 0xea
 80056bc:	48a7      	ldr	r0, [pc, #668]	; (800595c <_dtoa_r+0x2d4>)
 80056be:	f001 ff05 	bl	80074cc <__assert_func>
 80056c2:	e9c0 5501 	strd	r5, r5, [r0, #4]
 80056c6:	6005      	str	r5, [r0, #0]
 80056c8:	60c5      	str	r5, [r0, #12]
 80056ca:	6a63      	ldr	r3, [r4, #36]	; 0x24
 80056cc:	6819      	ldr	r1, [r3, #0]
 80056ce:	b151      	cbz	r1, 80056e6 <_dtoa_r+0x5e>
 80056d0:	685a      	ldr	r2, [r3, #4]
 80056d2:	604a      	str	r2, [r1, #4]
 80056d4:	2301      	movs	r3, #1
 80056d6:	4093      	lsls	r3, r2
 80056d8:	608b      	str	r3, [r1, #8]
 80056da:	4620      	mov	r0, r4
 80056dc:	f001 f83c 	bl	8006758 <_Bfree>
 80056e0:	6a63      	ldr	r3, [r4, #36]	; 0x24
 80056e2:	2200      	movs	r2, #0
 80056e4:	601a      	str	r2, [r3, #0]
 80056e6:	1e3b      	subs	r3, r7, #0
 80056e8:	bfaa      	itet	ge
 80056ea:	2300      	movge	r3, #0
 80056ec:	f023 4b00 	biclt.w	fp, r3, #2147483648	; 0x80000000
 80056f0:	f8c8 3000 	strge.w	r3, [r8]
 80056f4:	4b9a      	ldr	r3, [pc, #616]	; (8005960 <_dtoa_r+0x2d8>)
 80056f6:	bfbc      	itt	lt
 80056f8:	2201      	movlt	r2, #1
 80056fa:	f8c8 2000 	strlt.w	r2, [r8]
 80056fe:	ea33 030b 	bics.w	r3, r3, fp
 8005702:	d11b      	bne.n	800573c <_dtoa_r+0xb4>
 8005704:	9a0c      	ldr	r2, [sp, #48]	; 0x30
 8005706:	f242 730f 	movw	r3, #9999	; 0x270f
 800570a:	6013      	str	r3, [r2, #0]
 800570c:	f3cb 0313 	ubfx	r3, fp, #0, #20
 8005710:	4333      	orrs	r3, r6
 8005712:	f000 8592 	beq.w	800623a <_dtoa_r+0xbb2>
 8005716:	9b21      	ldr	r3, [sp, #132]	; 0x84
 8005718:	b963      	cbnz	r3, 8005734 <_dtoa_r+0xac>
 800571a:	4b92      	ldr	r3, [pc, #584]	; (8005964 <_dtoa_r+0x2dc>)
 800571c:	e022      	b.n	8005764 <_dtoa_r+0xdc>
 800571e:	4b92      	ldr	r3, [pc, #584]	; (8005968 <_dtoa_r+0x2e0>)
 8005720:	9301      	str	r3, [sp, #4]
 8005722:	3308      	adds	r3, #8
 8005724:	9a21      	ldr	r2, [sp, #132]	; 0x84
 8005726:	6013      	str	r3, [r2, #0]
 8005728:	9801      	ldr	r0, [sp, #4]
 800572a:	b013      	add	sp, #76	; 0x4c
 800572c:	ecbd 8b04 	vpop	{d8-d9}
 8005730:	e8bd 8ff0 	ldmia.w	sp!, {r4, r5, r6, r7, r8, r9, sl, fp, pc}
 8005734:	4b8b      	ldr	r3, [pc, #556]	; (8005964 <_dtoa_r+0x2dc>)
 8005736:	9301      	str	r3, [sp, #4]
 8005738:	3303      	adds	r3, #3
 800573a:	e7f3      	b.n	8005724 <_dtoa_r+0x9c>
 800573c:	2200      	movs	r2, #0
 800573e:	2300      	movs	r3, #0
 8005740:	4650      	mov	r0, sl
 8005742:	4659      	mov	r1, fp
 8005744:	f7fb f9c0 	bl	8000ac8 <__aeabi_dcmpeq>
 8005748:	ec4b ab19 	vmov	d9, sl, fp
 800574c:	4680      	mov	r8, r0
 800574e:	b158      	cbz	r0, 8005768 <_dtoa_r+0xe0>
 8005750:	9a0c      	ldr	r2, [sp, #48]	; 0x30
 8005752:	2301      	movs	r3, #1
 8005754:	6013      	str	r3, [r2, #0]
 8005756:	9b21      	ldr	r3, [sp, #132]	; 0x84
 8005758:	2b00      	cmp	r3, #0
 800575a:	f000 856b 	beq.w	8006234 <_dtoa_r+0xbac>
 800575e:	4883      	ldr	r0, [pc, #524]	; (800596c <_dtoa_r+0x2e4>)
 8005760:	6018      	str	r0, [r3, #0]
 8005762:	1e43      	subs	r3, r0, #1
 8005764:	9301      	str	r3, [sp, #4]
 8005766:	e7df      	b.n	8005728 <_dtoa_r+0xa0>
 8005768:	ec4b ab10 	vmov	d0, sl, fp
 800576c:	aa10      	add	r2, sp, #64	; 0x40
 800576e:	a911      	add	r1, sp, #68	; 0x44
 8005770:	4620      	mov	r0, r4
 8005772:	f001 fad9 	bl	8006d28 <__d2b>
 8005776:	f3cb 550a 	ubfx	r5, fp, #20, #11
 800577a:	ee08 0a10 	vmov	s16, r0
 800577e:	2d00      	cmp	r5, #0
 8005780:	f000 8084 	beq.w	800588c <_dtoa_r+0x204>
 8005784:	ee19 3a90 	vmov	r3, s19
 8005788:	f3c3 0313 	ubfx	r3, r3, #0, #20
 800578c:	f043 577f 	orr.w	r7, r3, #1069547520	; 0x3fc00000
 8005790:	4656      	mov	r6, sl
 8005792:	f447 1740 	orr.w	r7, r7, #3145728	; 0x300000
 8005796:	f2a5 35ff 	subw	r5, r5, #1023	; 0x3ff
 800579a:	f8cd 8038 	str.w	r8, [sp, #56]	; 0x38
 800579e:	4b74      	ldr	r3, [pc, #464]	; (8005970 <_dtoa_r+0x2e8>)
 80057a0:	2200      	movs	r2, #0
 80057a2:	4630      	mov	r0, r6
 80057a4:	4639      	mov	r1, r7
 80057a6:	f7fa fd6f 	bl	8000288 <__aeabi_dsub>
 80057aa:	a365      	add	r3, pc, #404	; (adr r3, 8005940 <_dtoa_r+0x2b8>)
 80057ac:	e9d3 2300 	ldrd	r2, r3, [r3]
 80057b0:	f7fa ff22 	bl	80005f8 <__aeabi_dmul>
 80057b4:	a364      	add	r3, pc, #400	; (adr r3, 8005948 <_dtoa_r+0x2c0>)
 80057b6:	e9d3 2300 	ldrd	r2, r3, [r3]
 80057ba:	f7fa fd67 	bl	800028c <__adddf3>
 80057be:	4606      	mov	r6, r0
 80057c0:	4628      	mov	r0, r5
 80057c2:	460f      	mov	r7, r1
 80057c4:	f7fa feae 	bl	8000524 <__aeabi_i2d>
 80057c8:	a361      	add	r3, pc, #388	; (adr r3, 8005950 <_dtoa_r+0x2c8>)
 80057ca:	e9d3 2300 	ldrd	r2, r3, [r3]
 80057ce:	f7fa ff13 	bl	80005f8 <__aeabi_dmul>
 80057d2:	4602      	mov	r2, r0
 80057d4:	460b      	mov	r3, r1
 80057d6:	4630      	mov	r0, r6
 80057d8:	4639      	mov	r1, r7
 80057da:	f7fa fd57 	bl	800028c <__adddf3>
 80057de:	4606      	mov	r6, r0
 80057e0:	460f      	mov	r7, r1
 80057e2:	f7fb f9b9 	bl	8000b58 <__aeabi_d2iz>
 80057e6:	2200      	movs	r2, #0
 80057e8:	9000      	str	r0, [sp, #0]
 80057ea:	2300      	movs	r3, #0
 80057ec:	4630      	mov	r0, r6
 80057ee:	4639      	mov	r1, r7
 80057f0:	f7fb f974 	bl	8000adc <__aeabi_dcmplt>
 80057f4:	b150      	cbz	r0, 800580c <_dtoa_r+0x184>
 80057f6:	9800      	ldr	r0, [sp, #0]
 80057f8:	f7fa fe94 	bl	8000524 <__aeabi_i2d>
 80057fc:	4632      	mov	r2, r6
 80057fe:	463b      	mov	r3, r7
 8005800:	f7fb f962 	bl	8000ac8 <__aeabi_dcmpeq>
 8005804:	b910      	cbnz	r0, 800580c <_dtoa_r+0x184>
 8005806:	9b00      	ldr	r3, [sp, #0]
 8005808:	3b01      	subs	r3, #1
 800580a:	9300      	str	r3, [sp, #0]
 800580c:	9b00      	ldr	r3, [sp, #0]
 800580e:	2b16      	cmp	r3, #22
 8005810:	d85a      	bhi.n	80058c8 <_dtoa_r+0x240>
 8005812:	9a00      	ldr	r2, [sp, #0]
 8005814:	4b57      	ldr	r3, [pc, #348]	; (8005974 <_dtoa_r+0x2ec>)
 8005816:	eb03 03c2 	add.w	r3, r3, r2, lsl #3
 800581a:	e9d3 2300 	ldrd	r2, r3, [r3]
 800581e:	ec51 0b19 	vmov	r0, r1, d9
 8005822:	f7fb f95b 	bl	8000adc <__aeabi_dcmplt>
 8005826:	2800      	cmp	r0, #0
 8005828:	d050      	beq.n	80058cc <_dtoa_r+0x244>
 800582a:	9b00      	ldr	r3, [sp, #0]
 800582c:	3b01      	subs	r3, #1
 800582e:	9300      	str	r3, [sp, #0]
 8005830:	2300      	movs	r3, #0
 8005832:	930b      	str	r3, [sp, #44]	; 0x2c
 8005834:	9b10      	ldr	r3, [sp, #64]	; 0x40
 8005836:	1b5d      	subs	r5, r3, r5
 8005838:	1e6b      	subs	r3, r5, #1
 800583a:	9305      	str	r3, [sp, #20]
 800583c:	bf45      	ittet	mi
 800583e:	f1c5 0301 	rsbmi	r3, r5, #1
 8005842:	9304      	strmi	r3, [sp, #16]
 8005844:	2300      	movpl	r3, #0
 8005846:	2300      	movmi	r3, #0
 8005848:	bf4c      	ite	mi
 800584a:	9305      	strmi	r3, [sp, #20]
 800584c:	9304      	strpl	r3, [sp, #16]
 800584e:	9b00      	ldr	r3, [sp, #0]
 8005850:	2b00      	cmp	r3, #0
 8005852:	db3d      	blt.n	80058d0 <_dtoa_r+0x248>
 8005854:	9b05      	ldr	r3, [sp, #20]
 8005856:	9a00      	ldr	r2, [sp, #0]
 8005858:	920a      	str	r2, [sp, #40]	; 0x28
 800585a:	4413      	add	r3, r2
 800585c:	9305      	str	r3, [sp, #20]
 800585e:	2300      	movs	r3, #0
 8005860:	9307      	str	r3, [sp, #28]
 8005862:	9b06      	ldr	r3, [sp, #24]
 8005864:	2b09      	cmp	r3, #9
 8005866:	f200 8089 	bhi.w	800597c <_dtoa_r+0x2f4>
 800586a:	2b05      	cmp	r3, #5
 800586c:	bfc4      	itt	gt
 800586e:	3b04      	subgt	r3, #4
 8005870:	9306      	strgt	r3, [sp, #24]
 8005872:	9b06      	ldr	r3, [sp, #24]
 8005874:	f1a3 0302 	sub.w	r3, r3, #2
 8005878:	bfcc      	ite	gt
 800587a:	2500      	movgt	r5, #0
 800587c:	2501      	movle	r5, #1
 800587e:	2b03      	cmp	r3, #3
 8005880:	f200 8087 	bhi.w	8005992 <_dtoa_r+0x30a>
 8005884:	e8df f003 	tbb	[pc, r3]
 8005888:	59383a2d 	.word	0x59383a2d
 800588c:	e9dd 5310 	ldrd	r5, r3, [sp, #64]	; 0x40
 8005890:	441d      	add	r5, r3
 8005892:	f205 4332 	addw	r3, r5, #1074	; 0x432
 8005896:	2b20      	cmp	r3, #32
 8005898:	bfc1      	itttt	gt
 800589a:	f1c3 0340 	rsbgt	r3, r3, #64	; 0x40
 800589e:	f205 4012 	addwgt	r0, r5, #1042	; 0x412
 80058a2:	fa0b f303 	lslgt.w	r3, fp, r3
 80058a6:	fa26 f000 	lsrgt.w	r0, r6, r0
 80058aa:	bfda      	itte	le
 80058ac:	f1c3 0320 	rsble	r3, r3, #32
 80058b0:	fa06 f003 	lslle.w	r0, r6, r3
 80058b4:	4318      	orrgt	r0, r3
 80058b6:	f7fa fe25 	bl	8000504 <__aeabi_ui2d>
 80058ba:	2301      	movs	r3, #1
 80058bc:	4606      	mov	r6, r0
 80058be:	f1a1 77f8 	sub.w	r7, r1, #32505856	; 0x1f00000
 80058c2:	3d01      	subs	r5, #1
 80058c4:	930e      	str	r3, [sp, #56]	; 0x38
 80058c6:	e76a      	b.n	800579e <_dtoa_r+0x116>
 80058c8:	2301      	movs	r3, #1
 80058ca:	e7b2      	b.n	8005832 <_dtoa_r+0x1aa>
 80058cc:	900b      	str	r0, [sp, #44]	; 0x2c
 80058ce:	e7b1      	b.n	8005834 <_dtoa_r+0x1ac>
 80058d0:	9b04      	ldr	r3, [sp, #16]
 80058d2:	9a00      	ldr	r2, [sp, #0]
 80058d4:	1a9b      	subs	r3, r3, r2
 80058d6:	9304      	str	r3, [sp, #16]
 80058d8:	4253      	negs	r3, r2
 80058da:	9307      	str	r3, [sp, #28]
 80058dc:	2300      	movs	r3, #0
 80058de:	930a      	str	r3, [sp, #40]	; 0x28
 80058e0:	e7bf      	b.n	8005862 <_dtoa_r+0x1da>
 80058e2:	2300      	movs	r3, #0
 80058e4:	9308      	str	r3, [sp, #32]
 80058e6:	9b09      	ldr	r3, [sp, #36]	; 0x24
 80058e8:	2b00      	cmp	r3, #0
 80058ea:	dc55      	bgt.n	8005998 <_dtoa_r+0x310>
 80058ec:	2301      	movs	r3, #1
 80058ee:	e9cd 3302 	strd	r3, r3, [sp, #8]
 80058f2:	461a      	mov	r2, r3
 80058f4:	9209      	str	r2, [sp, #36]	; 0x24
 80058f6:	e00c      	b.n	8005912 <_dtoa_r+0x28a>
 80058f8:	2301      	movs	r3, #1
 80058fa:	e7f3      	b.n	80058e4 <_dtoa_r+0x25c>
 80058fc:	2300      	movs	r3, #0
 80058fe:	9a09      	ldr	r2, [sp, #36]	; 0x24
 8005900:	9308      	str	r3, [sp, #32]
 8005902:	9b00      	ldr	r3, [sp, #0]
 8005904:	4413      	add	r3, r2
 8005906:	9302      	str	r3, [sp, #8]
 8005908:	3301      	adds	r3, #1
 800590a:	2b01      	cmp	r3, #1
 800590c:	9303      	str	r3, [sp, #12]
 800590e:	bfb8      	it	lt
 8005910:	2301      	movlt	r3, #1
 8005912:	6a60      	ldr	r0, [r4, #36]	; 0x24
 8005914:	2200      	movs	r2, #0
 8005916:	6042      	str	r2, [r0, #4]
 8005918:	2204      	movs	r2, #4
 800591a:	f102 0614 	add.w	r6, r2, #20
 800591e:	429e      	cmp	r6, r3
 8005920:	6841      	ldr	r1, [r0, #4]
 8005922:	d93d      	bls.n	80059a0 <_dtoa_r+0x318>
 8005924:	4620      	mov	r0, r4
 8005926:	f000 fed7 	bl	80066d8 <_Balloc>
 800592a:	9001      	str	r0, [sp, #4]
 800592c:	2800      	cmp	r0, #0
 800592e:	d13b      	bne.n	80059a8 <_dtoa_r+0x320>
 8005930:	4b11      	ldr	r3, [pc, #68]	; (8005978 <_dtoa_r+0x2f0>)
 8005932:	4602      	mov	r2, r0
 8005934:	f44f 71d5 	mov.w	r1, #426	; 0x1aa
 8005938:	e6c0      	b.n	80056bc <_dtoa_r+0x34>
 800593a:	2301      	movs	r3, #1
 800593c:	e7df      	b.n	80058fe <_dtoa_r+0x276>
 800593e:	bf00      	nop
 8005940:	636f4361 	.word	0x636f4361
 8005944:	3fd287a7 	.word	0x3fd287a7
 8005948:	8b60c8b3 	.word	0x8b60c8b3
 800594c:	3fc68a28 	.word	0x3fc68a28
 8005950:	509f79fb 	.word	0x509f79fb
 8005954:	3fd34413 	.word	0x3fd34413
 8005958:	080077ad 	.word	0x080077ad
 800595c:	080077c4 	.word	0x080077c4
 8005960:	7ff00000 	.word	0x7ff00000
 8005964:	080077a9 	.word	0x080077a9
 8005968:	080077a0 	.word	0x080077a0
 800596c:	0800777d 	.word	0x0800777d
 8005970:	3ff80000 	.word	0x3ff80000
 8005974:	08007918 	.word	0x08007918
 8005978:	0800781f 	.word	0x0800781f
 800597c:	2501      	movs	r5, #1
 800597e:	2300      	movs	r3, #0
 8005980:	9306      	str	r3, [sp, #24]
 8005982:	9508      	str	r5, [sp, #32]
 8005984:	f04f 33ff 	mov.w	r3, #4294967295
 8005988:	e9cd 3302 	strd	r3, r3, [sp, #8]
 800598c:	2200      	movs	r2, #0
 800598e:	2312      	movs	r3, #18
 8005990:	e7b0      	b.n	80058f4 <_dtoa_r+0x26c>
 8005992:	2301      	movs	r3, #1
 8005994:	9308      	str	r3, [sp, #32]
 8005996:	e7f5      	b.n	8005984 <_dtoa_r+0x2fc>
 8005998:	9b09      	ldr	r3, [sp, #36]	; 0x24
 800599a:	e9cd 3302 	strd	r3, r3, [sp, #8]
 800599e:	e7b8      	b.n	8005912 <_dtoa_r+0x28a>
 80059a0:	3101      	adds	r1, #1
 80059a2:	6041      	str	r1, [r0, #4]
 80059a4:	0052      	lsls	r2, r2, #1
 80059a6:	e7b8      	b.n	800591a <_dtoa_r+0x292>
 80059a8:	6a63      	ldr	r3, [r4, #36]	; 0x24
 80059aa:	9a01      	ldr	r2, [sp, #4]
 80059ac:	601a      	str	r2, [r3, #0]
 80059ae:	9b03      	ldr	r3, [sp, #12]
 80059b0:	2b0e      	cmp	r3, #14
 80059b2:	f200 809d 	bhi.w	8005af0 <_dtoa_r+0x468>
 80059b6:	2d00      	cmp	r5, #0
 80059b8:	f000 809a 	beq.w	8005af0 <_dtoa_r+0x468>
 80059bc:	9b00      	ldr	r3, [sp, #0]
 80059be:	2b00      	cmp	r3, #0
 80059c0:	dd32      	ble.n	8005a28 <_dtoa_r+0x3a0>
 80059c2:	4ab7      	ldr	r2, [pc, #732]	; (8005ca0 <_dtoa_r+0x618>)
 80059c4:	f003 030f 	and.w	r3, r3, #15
 80059c8:	eb02 03c3 	add.w	r3, r2, r3, lsl #3
 80059cc:	e9d3 8900 	ldrd	r8, r9, [r3]
 80059d0:	9b00      	ldr	r3, [sp, #0]
 80059d2:	05d8      	lsls	r0, r3, #23
 80059d4:	ea4f 1723 	mov.w	r7, r3, asr #4
 80059d8:	d516      	bpl.n	8005a08 <_dtoa_r+0x380>
 80059da:	4bb2      	ldr	r3, [pc, #712]	; (8005ca4 <_dtoa_r+0x61c>)
 80059dc:	ec51 0b19 	vmov	r0, r1, d9
 80059e0:	e9d3 2308 	ldrd	r2, r3, [r3, #32]
 80059e4:	f7fa ff32 	bl	800084c <__aeabi_ddiv>
 80059e8:	f007 070f 	and.w	r7, r7, #15
 80059ec:	4682      	mov	sl, r0
 80059ee:	468b      	mov	fp, r1
 80059f0:	2503      	movs	r5, #3
 80059f2:	4eac      	ldr	r6, [pc, #688]	; (8005ca4 <_dtoa_r+0x61c>)
 80059f4:	b957      	cbnz	r7, 8005a0c <_dtoa_r+0x384>
 80059f6:	4642      	mov	r2, r8
 80059f8:	464b      	mov	r3, r9
 80059fa:	4650      	mov	r0, sl
 80059fc:	4659      	mov	r1, fp
 80059fe:	f7fa ff25 	bl	800084c <__aeabi_ddiv>
 8005a02:	4682      	mov	sl, r0
 8005a04:	468b      	mov	fp, r1
 8005a06:	e028      	b.n	8005a5a <_dtoa_r+0x3d2>
 8005a08:	2502      	movs	r5, #2
 8005a0a:	e7f2      	b.n	80059f2 <_dtoa_r+0x36a>
 8005a0c:	07f9      	lsls	r1, r7, #31
 8005a0e:	d508      	bpl.n	8005a22 <_dtoa_r+0x39a>
 8005a10:	4640      	mov	r0, r8
 8005a12:	4649      	mov	r1, r9
 8005a14:	e9d6 2300 	ldrd	r2, r3, [r6]
 8005a18:	f7fa fdee 	bl	80005f8 <__aeabi_dmul>
 8005a1c:	3501      	adds	r5, #1
 8005a1e:	4680      	mov	r8, r0
 8005a20:	4689      	mov	r9, r1
 8005a22:	107f      	asrs	r7, r7, #1
 8005a24:	3608      	adds	r6, #8
 8005a26:	e7e5      	b.n	80059f4 <_dtoa_r+0x36c>
 8005a28:	f000 809b 	beq.w	8005b62 <_dtoa_r+0x4da>
 8005a2c:	9b00      	ldr	r3, [sp, #0]
 8005a2e:	4f9d      	ldr	r7, [pc, #628]	; (8005ca4 <_dtoa_r+0x61c>)
 8005a30:	425e      	negs	r6, r3
 8005a32:	4b9b      	ldr	r3, [pc, #620]	; (8005ca0 <_dtoa_r+0x618>)
 8005a34:	f006 020f 	and.w	r2, r6, #15
 8005a38:	eb03 03c2 	add.w	r3, r3, r2, lsl #3
 8005a3c:	e9d3 2300 	ldrd	r2, r3, [r3]
 8005a40:	ec51 0b19 	vmov	r0, r1, d9
 8005a44:	f7fa fdd8 	bl	80005f8 <__aeabi_dmul>
 8005a48:	1136      	asrs	r6, r6, #4
 8005a4a:	4682      	mov	sl, r0
 8005a4c:	468b      	mov	fp, r1
 8005a4e:	2300      	movs	r3, #0
 8005a50:	2502      	movs	r5, #2
 8005a52:	2e00      	cmp	r6, #0
 8005a54:	d17a      	bne.n	8005b4c <_dtoa_r+0x4c4>
 8005a56:	2b00      	cmp	r3, #0
 8005a58:	d1d3      	bne.n	8005a02 <_dtoa_r+0x37a>
 8005a5a:	9b0b      	ldr	r3, [sp, #44]	; 0x2c
 8005a5c:	2b00      	cmp	r3, #0
 8005a5e:	f000 8082 	beq.w	8005b66 <_dtoa_r+0x4de>
 8005a62:	4b91      	ldr	r3, [pc, #580]	; (8005ca8 <_dtoa_r+0x620>)
 8005a64:	2200      	movs	r2, #0
 8005a66:	4650      	mov	r0, sl
 8005a68:	4659      	mov	r1, fp
 8005a6a:	f7fb f837 	bl	8000adc <__aeabi_dcmplt>
 8005a6e:	2800      	cmp	r0, #0
 8005a70:	d079      	beq.n	8005b66 <_dtoa_r+0x4de>
 8005a72:	9b03      	ldr	r3, [sp, #12]
 8005a74:	2b00      	cmp	r3, #0
 8005a76:	d076      	beq.n	8005b66 <_dtoa_r+0x4de>
 8005a78:	9b02      	ldr	r3, [sp, #8]
 8005a7a:	2b00      	cmp	r3, #0
 8005a7c:	dd36      	ble.n	8005aec <_dtoa_r+0x464>
 8005a7e:	9b00      	ldr	r3, [sp, #0]
 8005a80:	4650      	mov	r0, sl
 8005a82:	4659      	mov	r1, fp
 8005a84:	1e5f      	subs	r7, r3, #1
 8005a86:	2200      	movs	r2, #0
 8005a88:	4b88      	ldr	r3, [pc, #544]	; (8005cac <_dtoa_r+0x624>)
 8005a8a:	f7fa fdb5 	bl	80005f8 <__aeabi_dmul>
 8005a8e:	9e02      	ldr	r6, [sp, #8]
 8005a90:	4682      	mov	sl, r0
 8005a92:	468b      	mov	fp, r1
 8005a94:	3501      	adds	r5, #1
 8005a96:	4628      	mov	r0, r5
 8005a98:	f7fa fd44 	bl	8000524 <__aeabi_i2d>
 8005a9c:	4652      	mov	r2, sl
 8005a9e:	465b      	mov	r3, fp
 8005aa0:	f7fa fdaa 	bl	80005f8 <__aeabi_dmul>
 8005aa4:	4b82      	ldr	r3, [pc, #520]	; (8005cb0 <_dtoa_r+0x628>)
 8005aa6:	2200      	movs	r2, #0
 8005aa8:	f7fa fbf0 	bl	800028c <__adddf3>
 8005aac:	46d0      	mov	r8, sl
 8005aae:	46d9      	mov	r9, fp
 8005ab0:	4682      	mov	sl, r0
 8005ab2:	f1a1 7b50 	sub.w	fp, r1, #54525952	; 0x3400000
 8005ab6:	2e00      	cmp	r6, #0
 8005ab8:	d158      	bne.n	8005b6c <_dtoa_r+0x4e4>
 8005aba:	4b7e      	ldr	r3, [pc, #504]	; (8005cb4 <_dtoa_r+0x62c>)
 8005abc:	2200      	movs	r2, #0
 8005abe:	4640      	mov	r0, r8
 8005ac0:	4649      	mov	r1, r9
 8005ac2:	f7fa fbe1 	bl	8000288 <__aeabi_dsub>
 8005ac6:	4652      	mov	r2, sl
 8005ac8:	465b      	mov	r3, fp
 8005aca:	4680      	mov	r8, r0
 8005acc:	4689      	mov	r9, r1
 8005ace:	f7fb f823 	bl	8000b18 <__aeabi_dcmpgt>
 8005ad2:	2800      	cmp	r0, #0
 8005ad4:	f040 8295 	bne.w	8006002 <_dtoa_r+0x97a>
 8005ad8:	4652      	mov	r2, sl
 8005ada:	f10b 4300 	add.w	r3, fp, #2147483648	; 0x80000000
 8005ade:	4640      	mov	r0, r8
 8005ae0:	4649      	mov	r1, r9
 8005ae2:	f7fa fffb 	bl	8000adc <__aeabi_dcmplt>
 8005ae6:	2800      	cmp	r0, #0
 8005ae8:	f040 8289 	bne.w	8005ffe <_dtoa_r+0x976>
 8005aec:	ec5b ab19 	vmov	sl, fp, d9
 8005af0:	9b11      	ldr	r3, [sp, #68]	; 0x44
 8005af2:	2b00      	cmp	r3, #0
 8005af4:	f2c0 8148 	blt.w	8005d88 <_dtoa_r+0x700>
 8005af8:	9a00      	ldr	r2, [sp, #0]
 8005afa:	2a0e      	cmp	r2, #14
 8005afc:	f300 8144 	bgt.w	8005d88 <_dtoa_r+0x700>
 8005b00:	4b67      	ldr	r3, [pc, #412]	; (8005ca0 <_dtoa_r+0x618>)
 8005b02:	eb03 03c2 	add.w	r3, r3, r2, lsl #3
 8005b06:	e9d3 8900 	ldrd	r8, r9, [r3]
 8005b0a:	9b09      	ldr	r3, [sp, #36]	; 0x24
 8005b0c:	2b00      	cmp	r3, #0
 8005b0e:	f280 80d5 	bge.w	8005cbc <_dtoa_r+0x634>
 8005b12:	9b03      	ldr	r3, [sp, #12]
 8005b14:	2b00      	cmp	r3, #0
 8005b16:	f300 80d1 	bgt.w	8005cbc <_dtoa_r+0x634>
 8005b1a:	f040 826f 	bne.w	8005ffc <_dtoa_r+0x974>
 8005b1e:	4b65      	ldr	r3, [pc, #404]	; (8005cb4 <_dtoa_r+0x62c>)
 8005b20:	2200      	movs	r2, #0
 8005b22:	4640      	mov	r0, r8
 8005b24:	4649      	mov	r1, r9
 8005b26:	f7fa fd67 	bl	80005f8 <__aeabi_dmul>
 8005b2a:	4652      	mov	r2, sl
 8005b2c:	465b      	mov	r3, fp
 8005b2e:	f7fa ffe9 	bl	8000b04 <__aeabi_dcmpge>
 8005b32:	9e03      	ldr	r6, [sp, #12]
 8005b34:	4637      	mov	r7, r6
 8005b36:	2800      	cmp	r0, #0
 8005b38:	f040 8245 	bne.w	8005fc6 <_dtoa_r+0x93e>
 8005b3c:	9d01      	ldr	r5, [sp, #4]
 8005b3e:	2331      	movs	r3, #49	; 0x31
 8005b40:	f805 3b01 	strb.w	r3, [r5], #1
 8005b44:	9b00      	ldr	r3, [sp, #0]
 8005b46:	3301      	adds	r3, #1
 8005b48:	9300      	str	r3, [sp, #0]
 8005b4a:	e240      	b.n	8005fce <_dtoa_r+0x946>
 8005b4c:	07f2      	lsls	r2, r6, #31
 8005b4e:	d505      	bpl.n	8005b5c <_dtoa_r+0x4d4>
 8005b50:	e9d7 2300 	ldrd	r2, r3, [r7]
 8005b54:	f7fa fd50 	bl	80005f8 <__aeabi_dmul>
 8005b58:	3501      	adds	r5, #1
 8005b5a:	2301      	movs	r3, #1
 8005b5c:	1076      	asrs	r6, r6, #1
 8005b5e:	3708      	adds	r7, #8
 8005b60:	e777      	b.n	8005a52 <_dtoa_r+0x3ca>
 8005b62:	2502      	movs	r5, #2
 8005b64:	e779      	b.n	8005a5a <_dtoa_r+0x3d2>
 8005b66:	9f00      	ldr	r7, [sp, #0]
 8005b68:	9e03      	ldr	r6, [sp, #12]
 8005b6a:	e794      	b.n	8005a96 <_dtoa_r+0x40e>
 8005b6c:	9901      	ldr	r1, [sp, #4]
 8005b6e:	4b4c      	ldr	r3, [pc, #304]	; (8005ca0 <_dtoa_r+0x618>)
 8005b70:	4431      	add	r1, r6
 8005b72:	910d      	str	r1, [sp, #52]	; 0x34
 8005b74:	9908      	ldr	r1, [sp, #32]
 8005b76:	eb03 03c6 	add.w	r3, r3, r6, lsl #3
 8005b7a:	e953 2302 	ldrd	r2, r3, [r3, #-8]
 8005b7e:	2900      	cmp	r1, #0
 8005b80:	d043      	beq.n	8005c0a <_dtoa_r+0x582>
 8005b82:	494d      	ldr	r1, [pc, #308]	; (8005cb8 <_dtoa_r+0x630>)
 8005b84:	2000      	movs	r0, #0
 8005b86:	f7fa fe61 	bl	800084c <__aeabi_ddiv>
 8005b8a:	4652      	mov	r2, sl
 8005b8c:	465b      	mov	r3, fp
 8005b8e:	f7fa fb7b 	bl	8000288 <__aeabi_dsub>
 8005b92:	9d01      	ldr	r5, [sp, #4]
 8005b94:	4682      	mov	sl, r0
 8005b96:	468b      	mov	fp, r1
 8005b98:	4649      	mov	r1, r9
 8005b9a:	4640      	mov	r0, r8
 8005b9c:	f7fa ffdc 	bl	8000b58 <__aeabi_d2iz>
 8005ba0:	4606      	mov	r6, r0
 8005ba2:	f7fa fcbf 	bl	8000524 <__aeabi_i2d>
 8005ba6:	4602      	mov	r2, r0
 8005ba8:	460b      	mov	r3, r1
 8005baa:	4640      	mov	r0, r8
 8005bac:	4649      	mov	r1, r9
 8005bae:	f7fa fb6b 	bl	8000288 <__aeabi_dsub>
 8005bb2:	3630      	adds	r6, #48	; 0x30
 8005bb4:	f805 6b01 	strb.w	r6, [r5], #1
 8005bb8:	4652      	mov	r2, sl
 8005bba:	465b      	mov	r3, fp
 8005bbc:	4680      	mov	r8, r0
 8005bbe:	4689      	mov	r9, r1
 8005bc0:	f7fa ff8c 	bl	8000adc <__aeabi_dcmplt>
 8005bc4:	2800      	cmp	r0, #0
 8005bc6:	d163      	bne.n	8005c90 <_dtoa_r+0x608>
 8005bc8:	4642      	mov	r2, r8
 8005bca:	464b      	mov	r3, r9
 8005bcc:	4936      	ldr	r1, [pc, #216]	; (8005ca8 <_dtoa_r+0x620>)
 8005bce:	2000      	movs	r0, #0
 8005bd0:	f7fa fb5a 	bl	8000288 <__aeabi_dsub>
 8005bd4:	4652      	mov	r2, sl
 8005bd6:	465b      	mov	r3, fp
 8005bd8:	f7fa ff80 	bl	8000adc <__aeabi_dcmplt>
 8005bdc:	2800      	cmp	r0, #0
 8005bde:	f040 80b5 	bne.w	8005d4c <_dtoa_r+0x6c4>
 8005be2:	9b0d      	ldr	r3, [sp, #52]	; 0x34
 8005be4:	429d      	cmp	r5, r3
 8005be6:	d081      	beq.n	8005aec <_dtoa_r+0x464>
 8005be8:	4b30      	ldr	r3, [pc, #192]	; (8005cac <_dtoa_r+0x624>)
 8005bea:	2200      	movs	r2, #0
 8005bec:	4650      	mov	r0, sl
 8005bee:	4659      	mov	r1, fp
 8005bf0:	f7fa fd02 	bl	80005f8 <__aeabi_dmul>
 8005bf4:	4b2d      	ldr	r3, [pc, #180]	; (8005cac <_dtoa_r+0x624>)
 8005bf6:	4682      	mov	sl, r0
 8005bf8:	468b      	mov	fp, r1
 8005bfa:	4640      	mov	r0, r8
 8005bfc:	4649      	mov	r1, r9
 8005bfe:	2200      	movs	r2, #0
 8005c00:	f7fa fcfa 	bl	80005f8 <__aeabi_dmul>
 8005c04:	4680      	mov	r8, r0
 8005c06:	4689      	mov	r9, r1
 8005c08:	e7c6      	b.n	8005b98 <_dtoa_r+0x510>
 8005c0a:	4650      	mov	r0, sl
 8005c0c:	4659      	mov	r1, fp
 8005c0e:	f7fa fcf3 	bl	80005f8 <__aeabi_dmul>
 8005c12:	9b0d      	ldr	r3, [sp, #52]	; 0x34
 8005c14:	9d01      	ldr	r5, [sp, #4]
 8005c16:	930f      	str	r3, [sp, #60]	; 0x3c
 8005c18:	4682      	mov	sl, r0
 8005c1a:	468b      	mov	fp, r1
 8005c1c:	4649      	mov	r1, r9
 8005c1e:	4640      	mov	r0, r8
 8005c20:	f7fa ff9a 	bl	8000b58 <__aeabi_d2iz>
 8005c24:	4606      	mov	r6, r0
 8005c26:	f7fa fc7d 	bl	8000524 <__aeabi_i2d>
 8005c2a:	3630      	adds	r6, #48	; 0x30
 8005c2c:	4602      	mov	r2, r0
 8005c2e:	460b      	mov	r3, r1
 8005c30:	4640      	mov	r0, r8
 8005c32:	4649      	mov	r1, r9
 8005c34:	f7fa fb28 	bl	8000288 <__aeabi_dsub>
 8005c38:	f805 6b01 	strb.w	r6, [r5], #1
 8005c3c:	9b0d      	ldr	r3, [sp, #52]	; 0x34
 8005c3e:	429d      	cmp	r5, r3
 8005c40:	4680      	mov	r8, r0
 8005c42:	4689      	mov	r9, r1
 8005c44:	f04f 0200 	mov.w	r2, #0
 8005c48:	d124      	bne.n	8005c94 <_dtoa_r+0x60c>
 8005c4a:	4b1b      	ldr	r3, [pc, #108]	; (8005cb8 <_dtoa_r+0x630>)
 8005c4c:	4650      	mov	r0, sl
 8005c4e:	4659      	mov	r1, fp
 8005c50:	f7fa fb1c 	bl	800028c <__adddf3>
 8005c54:	4602      	mov	r2, r0
 8005c56:	460b      	mov	r3, r1
 8005c58:	4640      	mov	r0, r8
 8005c5a:	4649      	mov	r1, r9
 8005c5c:	f7fa ff5c 	bl	8000b18 <__aeabi_dcmpgt>
 8005c60:	2800      	cmp	r0, #0
 8005c62:	d173      	bne.n	8005d4c <_dtoa_r+0x6c4>
 8005c64:	4652      	mov	r2, sl
 8005c66:	465b      	mov	r3, fp
 8005c68:	4913      	ldr	r1, [pc, #76]	; (8005cb8 <_dtoa_r+0x630>)
 8005c6a:	2000      	movs	r0, #0
 8005c6c:	f7fa fb0c 	bl	8000288 <__aeabi_dsub>
 8005c70:	4602      	mov	r2, r0
 8005c72:	460b      	mov	r3, r1
 8005c74:	4640      	mov	r0, r8
 8005c76:	4649      	mov	r1, r9
 8005c78:	f7fa ff30 	bl	8000adc <__aeabi_dcmplt>
 8005c7c:	2800      	cmp	r0, #0
 8005c7e:	f43f af35 	beq.w	8005aec <_dtoa_r+0x464>
 8005c82:	9d0f      	ldr	r5, [sp, #60]	; 0x3c
 8005c84:	1e6b      	subs	r3, r5, #1
 8005c86:	930f      	str	r3, [sp, #60]	; 0x3c
 8005c88:	f815 3c01 	ldrb.w	r3, [r5, #-1]
 8005c8c:	2b30      	cmp	r3, #48	; 0x30
 8005c8e:	d0f8      	beq.n	8005c82 <_dtoa_r+0x5fa>
 8005c90:	9700      	str	r7, [sp, #0]
 8005c92:	e049      	b.n	8005d28 <_dtoa_r+0x6a0>
 8005c94:	4b05      	ldr	r3, [pc, #20]	; (8005cac <_dtoa_r+0x624>)
 8005c96:	f7fa fcaf 	bl	80005f8 <__aeabi_dmul>
 8005c9a:	4680      	mov	r8, r0
 8005c9c:	4689      	mov	r9, r1
 8005c9e:	e7bd      	b.n	8005c1c <_dtoa_r+0x594>
 8005ca0:	08007918 	.word	0x08007918
 8005ca4:	080078f0 	.word	0x080078f0
 8005ca8:	3ff00000 	.word	0x3ff00000
 8005cac:	40240000 	.word	0x40240000
 8005cb0:	401c0000 	.word	0x401c0000
 8005cb4:	40140000 	.word	0x40140000
 8005cb8:	3fe00000 	.word	0x3fe00000
 8005cbc:	9d01      	ldr	r5, [sp, #4]
 8005cbe:	4656      	mov	r6, sl
 8005cc0:	465f      	mov	r7, fp
 8005cc2:	4642      	mov	r2, r8
 8005cc4:	464b      	mov	r3, r9
 8005cc6:	4630      	mov	r0, r6
 8005cc8:	4639      	mov	r1, r7
 8005cca:	f7fa fdbf 	bl	800084c <__aeabi_ddiv>
 8005cce:	f7fa ff43 	bl	8000b58 <__aeabi_d2iz>
 8005cd2:	4682      	mov	sl, r0
 8005cd4:	f7fa fc26 	bl	8000524 <__aeabi_i2d>
 8005cd8:	4642      	mov	r2, r8
 8005cda:	464b      	mov	r3, r9
 8005cdc:	f7fa fc8c 	bl	80005f8 <__aeabi_dmul>
 8005ce0:	4602      	mov	r2, r0
 8005ce2:	460b      	mov	r3, r1
 8005ce4:	4630      	mov	r0, r6
 8005ce6:	4639      	mov	r1, r7
 8005ce8:	f10a 0630 	add.w	r6, sl, #48	; 0x30
 8005cec:	f7fa facc 	bl	8000288 <__aeabi_dsub>
 8005cf0:	f805 6b01 	strb.w	r6, [r5], #1
 8005cf4:	9e01      	ldr	r6, [sp, #4]
 8005cf6:	9f03      	ldr	r7, [sp, #12]
 8005cf8:	1bae      	subs	r6, r5, r6
 8005cfa:	42b7      	cmp	r7, r6
 8005cfc:	4602      	mov	r2, r0
 8005cfe:	460b      	mov	r3, r1
 8005d00:	d135      	bne.n	8005d6e <_dtoa_r+0x6e6>
 8005d02:	f7fa fac3 	bl	800028c <__adddf3>
 8005d06:	4642      	mov	r2, r8
 8005d08:	464b      	mov	r3, r9
 8005d0a:	4606      	mov	r6, r0
 8005d0c:	460f      	mov	r7, r1
 8005d0e:	f7fa ff03 	bl	8000b18 <__aeabi_dcmpgt>
 8005d12:	b9d0      	cbnz	r0, 8005d4a <_dtoa_r+0x6c2>
 8005d14:	4642      	mov	r2, r8
 8005d16:	464b      	mov	r3, r9
 8005d18:	4630      	mov	r0, r6
 8005d1a:	4639      	mov	r1, r7
 8005d1c:	f7fa fed4 	bl	8000ac8 <__aeabi_dcmpeq>
 8005d20:	b110      	cbz	r0, 8005d28 <_dtoa_r+0x6a0>
 8005d22:	f01a 0f01 	tst.w	sl, #1
 8005d26:	d110      	bne.n	8005d4a <_dtoa_r+0x6c2>
 8005d28:	4620      	mov	r0, r4
 8005d2a:	ee18 1a10 	vmov	r1, s16
 8005d2e:	f000 fd13 	bl	8006758 <_Bfree>
 8005d32:	2300      	movs	r3, #0
 8005d34:	9800      	ldr	r0, [sp, #0]
 8005d36:	702b      	strb	r3, [r5, #0]
 8005d38:	9b0c      	ldr	r3, [sp, #48]	; 0x30
 8005d3a:	3001      	adds	r0, #1
 8005d3c:	6018      	str	r0, [r3, #0]
 8005d3e:	9b21      	ldr	r3, [sp, #132]	; 0x84
 8005d40:	2b00      	cmp	r3, #0
 8005d42:	f43f acf1 	beq.w	8005728 <_dtoa_r+0xa0>
 8005d46:	601d      	str	r5, [r3, #0]
 8005d48:	e4ee      	b.n	8005728 <_dtoa_r+0xa0>
 8005d4a:	9f00      	ldr	r7, [sp, #0]
 8005d4c:	462b      	mov	r3, r5
 8005d4e:	461d      	mov	r5, r3
 8005d50:	f813 2d01 	ldrb.w	r2, [r3, #-1]!
 8005d54:	2a39      	cmp	r2, #57	; 0x39
 8005d56:	d106      	bne.n	8005d66 <_dtoa_r+0x6de>
 8005d58:	9a01      	ldr	r2, [sp, #4]
 8005d5a:	429a      	cmp	r2, r3
 8005d5c:	d1f7      	bne.n	8005d4e <_dtoa_r+0x6c6>
 8005d5e:	9901      	ldr	r1, [sp, #4]
 8005d60:	2230      	movs	r2, #48	; 0x30
 8005d62:	3701      	adds	r7, #1
 8005d64:	700a      	strb	r2, [r1, #0]
 8005d66:	781a      	ldrb	r2, [r3, #0]
 8005d68:	3201      	adds	r2, #1
 8005d6a:	701a      	strb	r2, [r3, #0]
 8005d6c:	e790      	b.n	8005c90 <_dtoa_r+0x608>
 8005d6e:	4ba6      	ldr	r3, [pc, #664]	; (8006008 <_dtoa_r+0x980>)
 8005d70:	2200      	movs	r2, #0
 8005d72:	f7fa fc41 	bl	80005f8 <__aeabi_dmul>
 8005d76:	2200      	movs	r2, #0
 8005d78:	2300      	movs	r3, #0
 8005d7a:	4606      	mov	r6, r0
 8005d7c:	460f      	mov	r7, r1
 8005d7e:	f7fa fea3 	bl	8000ac8 <__aeabi_dcmpeq>
 8005d82:	2800      	cmp	r0, #0
 8005d84:	d09d      	beq.n	8005cc2 <_dtoa_r+0x63a>
 8005d86:	e7cf      	b.n	8005d28 <_dtoa_r+0x6a0>
 8005d88:	9a08      	ldr	r2, [sp, #32]
 8005d8a:	2a00      	cmp	r2, #0
 8005d8c:	f000 80d7 	beq.w	8005f3e <_dtoa_r+0x8b6>
 8005d90:	9a06      	ldr	r2, [sp, #24]
 8005d92:	2a01      	cmp	r2, #1
 8005d94:	f300 80ba 	bgt.w	8005f0c <_dtoa_r+0x884>
 8005d98:	9a0e      	ldr	r2, [sp, #56]	; 0x38
 8005d9a:	2a00      	cmp	r2, #0
 8005d9c:	f000 80b2 	beq.w	8005f04 <_dtoa_r+0x87c>
 8005da0:	f203 4333 	addw	r3, r3, #1075	; 0x433
 8005da4:	9e07      	ldr	r6, [sp, #28]
 8005da6:	9d04      	ldr	r5, [sp, #16]
 8005da8:	9a04      	ldr	r2, [sp, #16]
 8005daa:	441a      	add	r2, r3
 8005dac:	9204      	str	r2, [sp, #16]
 8005dae:	9a05      	ldr	r2, [sp, #20]
 8005db0:	2101      	movs	r1, #1
 8005db2:	441a      	add	r2, r3
 8005db4:	4620      	mov	r0, r4
 8005db6:	9205      	str	r2, [sp, #20]
 8005db8:	f000 fd86 	bl	80068c8 <__i2b>
 8005dbc:	4607      	mov	r7, r0
 8005dbe:	2d00      	cmp	r5, #0
 8005dc0:	dd0c      	ble.n	8005ddc <_dtoa_r+0x754>
 8005dc2:	9b05      	ldr	r3, [sp, #20]
 8005dc4:	2b00      	cmp	r3, #0
 8005dc6:	dd09      	ble.n	8005ddc <_dtoa_r+0x754>
 8005dc8:	42ab      	cmp	r3, r5
 8005dca:	9a04      	ldr	r2, [sp, #16]
 8005dcc:	bfa8      	it	ge
 8005dce:	462b      	movge	r3, r5
 8005dd0:	1ad2      	subs	r2, r2, r3
 8005dd2:	9204      	str	r2, [sp, #16]
 8005dd4:	9a05      	ldr	r2, [sp, #20]
 8005dd6:	1aed      	subs	r5, r5, r3
 8005dd8:	1ad3      	subs	r3, r2, r3
 8005dda:	9305      	str	r3, [sp, #20]
 8005ddc:	9b07      	ldr	r3, [sp, #28]
 8005dde:	b31b      	cbz	r3, 8005e28 <_dtoa_r+0x7a0>
 8005de0:	9b08      	ldr	r3, [sp, #32]
 8005de2:	2b00      	cmp	r3, #0
 8005de4:	f000 80af 	beq.w	8005f46 <_dtoa_r+0x8be>
 8005de8:	2e00      	cmp	r6, #0
 8005dea:	dd13      	ble.n	8005e14 <_dtoa_r+0x78c>
 8005dec:	4639      	mov	r1, r7
 8005dee:	4632      	mov	r2, r6
 8005df0:	4620      	mov	r0, r4
 8005df2:	f000 fe29 	bl	8006a48 <__pow5mult>
 8005df6:	ee18 2a10 	vmov	r2, s16
 8005dfa:	4601      	mov	r1, r0
 8005dfc:	4607      	mov	r7, r0
 8005dfe:	4620      	mov	r0, r4
 8005e00:	f000 fd78 	bl	80068f4 <__multiply>
 8005e04:	ee18 1a10 	vmov	r1, s16
 8005e08:	4680      	mov	r8, r0
 8005e0a:	4620      	mov	r0, r4
 8005e0c:	f000 fca4 	bl	8006758 <_Bfree>
 8005e10:	ee08 8a10 	vmov	s16, r8
 8005e14:	9b07      	ldr	r3, [sp, #28]
 8005e16:	1b9a      	subs	r2, r3, r6
 8005e18:	d006      	beq.n	8005e28 <_dtoa_r+0x7a0>
 8005e1a:	ee18 1a10 	vmov	r1, s16
 8005e1e:	4620      	mov	r0, r4
 8005e20:	f000 fe12 	bl	8006a48 <__pow5mult>
 8005e24:	ee08 0a10 	vmov	s16, r0
 8005e28:	2101      	movs	r1, #1
 8005e2a:	4620      	mov	r0, r4
 8005e2c:	f000 fd4c 	bl	80068c8 <__i2b>
 8005e30:	9b0a      	ldr	r3, [sp, #40]	; 0x28
 8005e32:	2b00      	cmp	r3, #0
 8005e34:	4606      	mov	r6, r0
 8005e36:	f340 8088 	ble.w	8005f4a <_dtoa_r+0x8c2>
 8005e3a:	461a      	mov	r2, r3
 8005e3c:	4601      	mov	r1, r0
 8005e3e:	4620      	mov	r0, r4
 8005e40:	f000 fe02 	bl	8006a48 <__pow5mult>
 8005e44:	9b06      	ldr	r3, [sp, #24]
 8005e46:	2b01      	cmp	r3, #1
 8005e48:	4606      	mov	r6, r0
 8005e4a:	f340 8081 	ble.w	8005f50 <_dtoa_r+0x8c8>
 8005e4e:	f04f 0800 	mov.w	r8, #0
 8005e52:	6933      	ldr	r3, [r6, #16]
 8005e54:	eb06 0383 	add.w	r3, r6, r3, lsl #2
 8005e58:	6918      	ldr	r0, [r3, #16]
 8005e5a:	f000 fce5 	bl	8006828 <__hi0bits>
 8005e5e:	f1c0 0020 	rsb	r0, r0, #32
 8005e62:	9b05      	ldr	r3, [sp, #20]
 8005e64:	4418      	add	r0, r3
 8005e66:	f010 001f 	ands.w	r0, r0, #31
 8005e6a:	f000 8092 	beq.w	8005f92 <_dtoa_r+0x90a>
 8005e6e:	f1c0 0320 	rsb	r3, r0, #32
 8005e72:	2b04      	cmp	r3, #4
 8005e74:	f340 808a 	ble.w	8005f8c <_dtoa_r+0x904>
 8005e78:	f1c0 001c 	rsb	r0, r0, #28
 8005e7c:	9b04      	ldr	r3, [sp, #16]
 8005e7e:	4403      	add	r3, r0
 8005e80:	9304      	str	r3, [sp, #16]
 8005e82:	9b05      	ldr	r3, [sp, #20]
 8005e84:	4403      	add	r3, r0
 8005e86:	4405      	add	r5, r0
 8005e88:	9305      	str	r3, [sp, #20]
 8005e8a:	9b04      	ldr	r3, [sp, #16]
 8005e8c:	2b00      	cmp	r3, #0
 8005e8e:	dd07      	ble.n	8005ea0 <_dtoa_r+0x818>
 8005e90:	ee18 1a10 	vmov	r1, s16
 8005e94:	461a      	mov	r2, r3
 8005e96:	4620      	mov	r0, r4
 8005e98:	f000 fe30 	bl	8006afc <__lshift>
 8005e9c:	ee08 0a10 	vmov	s16, r0
 8005ea0:	9b05      	ldr	r3, [sp, #20]
 8005ea2:	2b00      	cmp	r3, #0
 8005ea4:	dd05      	ble.n	8005eb2 <_dtoa_r+0x82a>
 8005ea6:	4631      	mov	r1, r6
 8005ea8:	461a      	mov	r2, r3
 8005eaa:	4620      	mov	r0, r4
 8005eac:	f000 fe26 	bl	8006afc <__lshift>
 8005eb0:	4606      	mov	r6, r0
 8005eb2:	9b0b      	ldr	r3, [sp, #44]	; 0x2c
 8005eb4:	2b00      	cmp	r3, #0
 8005eb6:	d06e      	beq.n	8005f96 <_dtoa_r+0x90e>
 8005eb8:	ee18 0a10 	vmov	r0, s16
 8005ebc:	4631      	mov	r1, r6
 8005ebe:	f000 fe8d 	bl	8006bdc <__mcmp>
 8005ec2:	2800      	cmp	r0, #0
 8005ec4:	da67      	bge.n	8005f96 <_dtoa_r+0x90e>
 8005ec6:	9b00      	ldr	r3, [sp, #0]
 8005ec8:	3b01      	subs	r3, #1
 8005eca:	ee18 1a10 	vmov	r1, s16
 8005ece:	9300      	str	r3, [sp, #0]
 8005ed0:	220a      	movs	r2, #10
 8005ed2:	2300      	movs	r3, #0
 8005ed4:	4620      	mov	r0, r4
 8005ed6:	f000 fc61 	bl	800679c <__multadd>
 8005eda:	9b08      	ldr	r3, [sp, #32]
 8005edc:	ee08 0a10 	vmov	s16, r0
 8005ee0:	2b00      	cmp	r3, #0
 8005ee2:	f000 81b1 	beq.w	8006248 <_dtoa_r+0xbc0>
 8005ee6:	2300      	movs	r3, #0
 8005ee8:	4639      	mov	r1, r7
 8005eea:	220a      	movs	r2, #10
 8005eec:	4620      	mov	r0, r4
 8005eee:	f000 fc55 	bl	800679c <__multadd>
 8005ef2:	9b02      	ldr	r3, [sp, #8]
 8005ef4:	2b00      	cmp	r3, #0
 8005ef6:	4607      	mov	r7, r0
 8005ef8:	f300 808e 	bgt.w	8006018 <_dtoa_r+0x990>
 8005efc:	9b06      	ldr	r3, [sp, #24]
 8005efe:	2b02      	cmp	r3, #2
 8005f00:	dc51      	bgt.n	8005fa6 <_dtoa_r+0x91e>
 8005f02:	e089      	b.n	8006018 <_dtoa_r+0x990>
 8005f04:	9b10      	ldr	r3, [sp, #64]	; 0x40
 8005f06:	f1c3 0336 	rsb	r3, r3, #54	; 0x36
 8005f0a:	e74b      	b.n	8005da4 <_dtoa_r+0x71c>
 8005f0c:	9b03      	ldr	r3, [sp, #12]
 8005f0e:	1e5e      	subs	r6, r3, #1
 8005f10:	9b07      	ldr	r3, [sp, #28]
 8005f12:	42b3      	cmp	r3, r6
 8005f14:	bfbf      	itttt	lt
 8005f16:	9b07      	ldrlt	r3, [sp, #28]
 8005f18:	9607      	strlt	r6, [sp, #28]
 8005f1a:	1af2      	sublt	r2, r6, r3
 8005f1c:	9b0a      	ldrlt	r3, [sp, #40]	; 0x28
 8005f1e:	bfb6      	itet	lt
 8005f20:	189b      	addlt	r3, r3, r2
 8005f22:	1b9e      	subge	r6, r3, r6
 8005f24:	930a      	strlt	r3, [sp, #40]	; 0x28
 8005f26:	9b03      	ldr	r3, [sp, #12]
 8005f28:	bfb8      	it	lt
 8005f2a:	2600      	movlt	r6, #0
 8005f2c:	2b00      	cmp	r3, #0
 8005f2e:	bfb7      	itett	lt
 8005f30:	e9dd 2303 	ldrdlt	r2, r3, [sp, #12]
 8005f34:	e9dd 3503 	ldrdge	r3, r5, [sp, #12]
 8005f38:	1a9d      	sublt	r5, r3, r2
 8005f3a:	2300      	movlt	r3, #0
 8005f3c:	e734      	b.n	8005da8 <_dtoa_r+0x720>
 8005f3e:	9e07      	ldr	r6, [sp, #28]
 8005f40:	9d04      	ldr	r5, [sp, #16]
 8005f42:	9f08      	ldr	r7, [sp, #32]
 8005f44:	e73b      	b.n	8005dbe <_dtoa_r+0x736>
 8005f46:	9a07      	ldr	r2, [sp, #28]
 8005f48:	e767      	b.n	8005e1a <_dtoa_r+0x792>
 8005f4a:	9b06      	ldr	r3, [sp, #24]
 8005f4c:	2b01      	cmp	r3, #1
 8005f4e:	dc18      	bgt.n	8005f82 <_dtoa_r+0x8fa>
 8005f50:	f1ba 0f00 	cmp.w	sl, #0
 8005f54:	d115      	bne.n	8005f82 <_dtoa_r+0x8fa>
 8005f56:	f3cb 0313 	ubfx	r3, fp, #0, #20
 8005f5a:	b993      	cbnz	r3, 8005f82 <_dtoa_r+0x8fa>
 8005f5c:	f02b 4300 	bic.w	r3, fp, #2147483648	; 0x80000000
 8005f60:	0d1b      	lsrs	r3, r3, #20
 8005f62:	051b      	lsls	r3, r3, #20
 8005f64:	b183      	cbz	r3, 8005f88 <_dtoa_r+0x900>
 8005f66:	9b04      	ldr	r3, [sp, #16]
 8005f68:	3301      	adds	r3, #1
 8005f6a:	9304      	str	r3, [sp, #16]
 8005f6c:	9b05      	ldr	r3, [sp, #20]
 8005f6e:	3301      	adds	r3, #1
 8005f70:	9305      	str	r3, [sp, #20]
 8005f72:	f04f 0801 	mov.w	r8, #1
 8005f76:	9b0a      	ldr	r3, [sp, #40]	; 0x28
 8005f78:	2b00      	cmp	r3, #0
 8005f7a:	f47f af6a 	bne.w	8005e52 <_dtoa_r+0x7ca>
 8005f7e:	2001      	movs	r0, #1
 8005f80:	e76f      	b.n	8005e62 <_dtoa_r+0x7da>
 8005f82:	f04f 0800 	mov.w	r8, #0
 8005f86:	e7f6      	b.n	8005f76 <_dtoa_r+0x8ee>
 8005f88:	4698      	mov	r8, r3
 8005f8a:	e7f4      	b.n	8005f76 <_dtoa_r+0x8ee>
 8005f8c:	f43f af7d 	beq.w	8005e8a <_dtoa_r+0x802>
 8005f90:	4618      	mov	r0, r3
 8005f92:	301c      	adds	r0, #28
 8005f94:	e772      	b.n	8005e7c <_dtoa_r+0x7f4>
 8005f96:	9b03      	ldr	r3, [sp, #12]
 8005f98:	2b00      	cmp	r3, #0
 8005f9a:	dc37      	bgt.n	800600c <_dtoa_r+0x984>
 8005f9c:	9b06      	ldr	r3, [sp, #24]
 8005f9e:	2b02      	cmp	r3, #2
 8005fa0:	dd34      	ble.n	800600c <_dtoa_r+0x984>
 8005fa2:	9b03      	ldr	r3, [sp, #12]
 8005fa4:	9302      	str	r3, [sp, #8]
 8005fa6:	9b02      	ldr	r3, [sp, #8]
 8005fa8:	b96b      	cbnz	r3, 8005fc6 <_dtoa_r+0x93e>
 8005faa:	4631      	mov	r1, r6
 8005fac:	2205      	movs	r2, #5
 8005fae:	4620      	mov	r0, r4
 8005fb0:	f000 fbf4 	bl	800679c <__multadd>
 8005fb4:	4601      	mov	r1, r0
 8005fb6:	4606      	mov	r6, r0
 8005fb8:	ee18 0a10 	vmov	r0, s16
 8005fbc:	f000 fe0e 	bl	8006bdc <__mcmp>
 8005fc0:	2800      	cmp	r0, #0
 8005fc2:	f73f adbb 	bgt.w	8005b3c <_dtoa_r+0x4b4>
 8005fc6:	9b09      	ldr	r3, [sp, #36]	; 0x24
 8005fc8:	9d01      	ldr	r5, [sp, #4]
 8005fca:	43db      	mvns	r3, r3
 8005fcc:	9300      	str	r3, [sp, #0]
 8005fce:	f04f 0800 	mov.w	r8, #0
 8005fd2:	4631      	mov	r1, r6
 8005fd4:	4620      	mov	r0, r4
 8005fd6:	f000 fbbf 	bl	8006758 <_Bfree>
 8005fda:	2f00      	cmp	r7, #0
 8005fdc:	f43f aea4 	beq.w	8005d28 <_dtoa_r+0x6a0>
 8005fe0:	f1b8 0f00 	cmp.w	r8, #0
 8005fe4:	d005      	beq.n	8005ff2 <_dtoa_r+0x96a>
 8005fe6:	45b8      	cmp	r8, r7
 8005fe8:	d003      	beq.n	8005ff2 <_dtoa_r+0x96a>
 8005fea:	4641      	mov	r1, r8
 8005fec:	4620      	mov	r0, r4
 8005fee:	f000 fbb3 	bl	8006758 <_Bfree>
 8005ff2:	4639      	mov	r1, r7
 8005ff4:	4620      	mov	r0, r4
 8005ff6:	f000 fbaf 	bl	8006758 <_Bfree>
 8005ffa:	e695      	b.n	8005d28 <_dtoa_r+0x6a0>
 8005ffc:	2600      	movs	r6, #0
 8005ffe:	4637      	mov	r7, r6
 8006000:	e7e1      	b.n	8005fc6 <_dtoa_r+0x93e>
 8006002:	9700      	str	r7, [sp, #0]
 8006004:	4637      	mov	r7, r6
 8006006:	e599      	b.n	8005b3c <_dtoa_r+0x4b4>
 8006008:	40240000 	.word	0x40240000
 800600c:	9b08      	ldr	r3, [sp, #32]
 800600e:	2b00      	cmp	r3, #0
 8006010:	f000 80ca 	beq.w	80061a8 <_dtoa_r+0xb20>
 8006014:	9b03      	ldr	r3, [sp, #12]
 8006016:	9302      	str	r3, [sp, #8]
 8006018:	2d00      	cmp	r5, #0
 800601a:	dd05      	ble.n	8006028 <_dtoa_r+0x9a0>
 800601c:	4639      	mov	r1, r7
 800601e:	462a      	mov	r2, r5
 8006020:	4620      	mov	r0, r4
 8006022:	f000 fd6b 	bl	8006afc <__lshift>
 8006026:	4607      	mov	r7, r0
 8006028:	f1b8 0f00 	cmp.w	r8, #0
 800602c:	d05b      	beq.n	80060e6 <_dtoa_r+0xa5e>
 800602e:	6879      	ldr	r1, [r7, #4]
 8006030:	4620      	mov	r0, r4
 8006032:	f000 fb51 	bl	80066d8 <_Balloc>
 8006036:	4605      	mov	r5, r0
 8006038:	b928      	cbnz	r0, 8006046 <_dtoa_r+0x9be>
 800603a:	4b87      	ldr	r3, [pc, #540]	; (8006258 <_dtoa_r+0xbd0>)
 800603c:	4602      	mov	r2, r0
 800603e:	f240 21ea 	movw	r1, #746	; 0x2ea
 8006042:	f7ff bb3b 	b.w	80056bc <_dtoa_r+0x34>
 8006046:	693a      	ldr	r2, [r7, #16]
 8006048:	3202      	adds	r2, #2
 800604a:	0092      	lsls	r2, r2, #2
 800604c:	f107 010c 	add.w	r1, r7, #12
 8006050:	300c      	adds	r0, #12
 8006052:	f000 fb33 	bl	80066bc <memcpy>
 8006056:	2201      	movs	r2, #1
 8006058:	4629      	mov	r1, r5
 800605a:	4620      	mov	r0, r4
 800605c:	f000 fd4e 	bl	8006afc <__lshift>
 8006060:	9b01      	ldr	r3, [sp, #4]
 8006062:	f103 0901 	add.w	r9, r3, #1
 8006066:	e9dd 2301 	ldrd	r2, r3, [sp, #4]
 800606a:	4413      	add	r3, r2
 800606c:	9305      	str	r3, [sp, #20]
 800606e:	f00a 0301 	and.w	r3, sl, #1
 8006072:	46b8      	mov	r8, r7
 8006074:	9304      	str	r3, [sp, #16]
 8006076:	4607      	mov	r7, r0
 8006078:	4631      	mov	r1, r6
 800607a:	ee18 0a10 	vmov	r0, s16
 800607e:	f7ff fa75 	bl	800556c <quorem>
 8006082:	4641      	mov	r1, r8
 8006084:	9002      	str	r0, [sp, #8]
 8006086:	f100 0a30 	add.w	sl, r0, #48	; 0x30
 800608a:	ee18 0a10 	vmov	r0, s16
 800608e:	f000 fda5 	bl	8006bdc <__mcmp>
 8006092:	463a      	mov	r2, r7
 8006094:	9003      	str	r0, [sp, #12]
 8006096:	4631      	mov	r1, r6
 8006098:	4620      	mov	r0, r4
 800609a:	f000 fdbb 	bl	8006c14 <__mdiff>
 800609e:	68c2      	ldr	r2, [r0, #12]
 80060a0:	f109 3bff 	add.w	fp, r9, #4294967295
 80060a4:	4605      	mov	r5, r0
 80060a6:	bb02      	cbnz	r2, 80060ea <_dtoa_r+0xa62>
 80060a8:	4601      	mov	r1, r0
 80060aa:	ee18 0a10 	vmov	r0, s16
 80060ae:	f000 fd95 	bl	8006bdc <__mcmp>
 80060b2:	4602      	mov	r2, r0
 80060b4:	4629      	mov	r1, r5
 80060b6:	4620      	mov	r0, r4
 80060b8:	9207      	str	r2, [sp, #28]
 80060ba:	f000 fb4d 	bl	8006758 <_Bfree>
 80060be:	e9dd 3206 	ldrd	r3, r2, [sp, #24]
 80060c2:	ea43 0102 	orr.w	r1, r3, r2
 80060c6:	9b04      	ldr	r3, [sp, #16]
 80060c8:	430b      	orrs	r3, r1
 80060ca:	464d      	mov	r5, r9
 80060cc:	d10f      	bne.n	80060ee <_dtoa_r+0xa66>
 80060ce:	f1ba 0f39 	cmp.w	sl, #57	; 0x39
 80060d2:	d02a      	beq.n	800612a <_dtoa_r+0xaa2>
 80060d4:	9b03      	ldr	r3, [sp, #12]
 80060d6:	2b00      	cmp	r3, #0
 80060d8:	dd02      	ble.n	80060e0 <_dtoa_r+0xa58>
 80060da:	9b02      	ldr	r3, [sp, #8]
 80060dc:	f103 0a31 	add.w	sl, r3, #49	; 0x31
 80060e0:	f88b a000 	strb.w	sl, [fp]
 80060e4:	e775      	b.n	8005fd2 <_dtoa_r+0x94a>
 80060e6:	4638      	mov	r0, r7
 80060e8:	e7ba      	b.n	8006060 <_dtoa_r+0x9d8>
 80060ea:	2201      	movs	r2, #1
 80060ec:	e7e2      	b.n	80060b4 <_dtoa_r+0xa2c>
 80060ee:	9b03      	ldr	r3, [sp, #12]
 80060f0:	2b00      	cmp	r3, #0
 80060f2:	db04      	blt.n	80060fe <_dtoa_r+0xa76>
 80060f4:	9906      	ldr	r1, [sp, #24]
 80060f6:	430b      	orrs	r3, r1
 80060f8:	9904      	ldr	r1, [sp, #16]
 80060fa:	430b      	orrs	r3, r1
 80060fc:	d122      	bne.n	8006144 <_dtoa_r+0xabc>
 80060fe:	2a00      	cmp	r2, #0
 8006100:	ddee      	ble.n	80060e0 <_dtoa_r+0xa58>
 8006102:	ee18 1a10 	vmov	r1, s16
 8006106:	2201      	movs	r2, #1
 8006108:	4620      	mov	r0, r4
 800610a:	f000 fcf7 	bl	8006afc <__lshift>
 800610e:	4631      	mov	r1, r6
 8006110:	ee08 0a10 	vmov	s16, r0
 8006114:	f000 fd62 	bl	8006bdc <__mcmp>
 8006118:	2800      	cmp	r0, #0
 800611a:	dc03      	bgt.n	8006124 <_dtoa_r+0xa9c>
 800611c:	d1e0      	bne.n	80060e0 <_dtoa_r+0xa58>
 800611e:	f01a 0f01 	tst.w	sl, #1
 8006122:	d0dd      	beq.n	80060e0 <_dtoa_r+0xa58>
 8006124:	f1ba 0f39 	cmp.w	sl, #57	; 0x39
 8006128:	d1d7      	bne.n	80060da <_dtoa_r+0xa52>
 800612a:	2339      	movs	r3, #57	; 0x39
 800612c:	f88b 3000 	strb.w	r3, [fp]
 8006130:	462b      	mov	r3, r5
 8006132:	461d      	mov	r5, r3
 8006134:	3b01      	subs	r3, #1
 8006136:	f815 2c01 	ldrb.w	r2, [r5, #-1]
 800613a:	2a39      	cmp	r2, #57	; 0x39
 800613c:	d071      	beq.n	8006222 <_dtoa_r+0xb9a>
 800613e:	3201      	adds	r2, #1
 8006140:	701a      	strb	r2, [r3, #0]
 8006142:	e746      	b.n	8005fd2 <_dtoa_r+0x94a>
 8006144:	2a00      	cmp	r2, #0
 8006146:	dd07      	ble.n	8006158 <_dtoa_r+0xad0>
 8006148:	f1ba 0f39 	cmp.w	sl, #57	; 0x39
 800614c:	d0ed      	beq.n	800612a <_dtoa_r+0xaa2>
 800614e:	f10a 0301 	add.w	r3, sl, #1
 8006152:	f88b 3000 	strb.w	r3, [fp]
 8006156:	e73c      	b.n	8005fd2 <_dtoa_r+0x94a>
 8006158:	9b05      	ldr	r3, [sp, #20]
 800615a:	f809 ac01 	strb.w	sl, [r9, #-1]
 800615e:	4599      	cmp	r9, r3
 8006160:	d047      	beq.n	80061f2 <_dtoa_r+0xb6a>
 8006162:	ee18 1a10 	vmov	r1, s16
 8006166:	2300      	movs	r3, #0
 8006168:	220a      	movs	r2, #10
 800616a:	4620      	mov	r0, r4
 800616c:	f000 fb16 	bl	800679c <__multadd>
 8006170:	45b8      	cmp	r8, r7
 8006172:	ee08 0a10 	vmov	s16, r0
 8006176:	f04f 0300 	mov.w	r3, #0
 800617a:	f04f 020a 	mov.w	r2, #10
 800617e:	4641      	mov	r1, r8
 8006180:	4620      	mov	r0, r4
 8006182:	d106      	bne.n	8006192 <_dtoa_r+0xb0a>
 8006184:	f000 fb0a 	bl	800679c <__multadd>
 8006188:	4680      	mov	r8, r0
 800618a:	4607      	mov	r7, r0
 800618c:	f109 0901 	add.w	r9, r9, #1
 8006190:	e772      	b.n	8006078 <_dtoa_r+0x9f0>
 8006192:	f000 fb03 	bl	800679c <__multadd>
 8006196:	4639      	mov	r1, r7
 8006198:	4680      	mov	r8, r0
 800619a:	2300      	movs	r3, #0
 800619c:	220a      	movs	r2, #10
 800619e:	4620      	mov	r0, r4
 80061a0:	f000 fafc 	bl	800679c <__multadd>
 80061a4:	4607      	mov	r7, r0
 80061a6:	e7f1      	b.n	800618c <_dtoa_r+0xb04>
 80061a8:	9b03      	ldr	r3, [sp, #12]
 80061aa:	9302      	str	r3, [sp, #8]
 80061ac:	9d01      	ldr	r5, [sp, #4]
 80061ae:	ee18 0a10 	vmov	r0, s16
 80061b2:	4631      	mov	r1, r6
 80061b4:	f7ff f9da 	bl	800556c <quorem>
 80061b8:	f100 0a30 	add.w	sl, r0, #48	; 0x30
 80061bc:	9b01      	ldr	r3, [sp, #4]
 80061be:	f805 ab01 	strb.w	sl, [r5], #1
 80061c2:	1aea      	subs	r2, r5, r3
 80061c4:	9b02      	ldr	r3, [sp, #8]
 80061c6:	4293      	cmp	r3, r2
 80061c8:	dd09      	ble.n	80061de <_dtoa_r+0xb56>
 80061ca:	ee18 1a10 	vmov	r1, s16
 80061ce:	2300      	movs	r3, #0
 80061d0:	220a      	movs	r2, #10
 80061d2:	4620      	mov	r0, r4
 80061d4:	f000 fae2 	bl	800679c <__multadd>
 80061d8:	ee08 0a10 	vmov	s16, r0
 80061dc:	e7e7      	b.n	80061ae <_dtoa_r+0xb26>
 80061de:	9b02      	ldr	r3, [sp, #8]
 80061e0:	2b00      	cmp	r3, #0
 80061e2:	bfc8      	it	gt
 80061e4:	461d      	movgt	r5, r3
 80061e6:	9b01      	ldr	r3, [sp, #4]
 80061e8:	bfd8      	it	le
 80061ea:	2501      	movle	r5, #1
 80061ec:	441d      	add	r5, r3
 80061ee:	f04f 0800 	mov.w	r8, #0
 80061f2:	ee18 1a10 	vmov	r1, s16
 80061f6:	2201      	movs	r2, #1
 80061f8:	4620      	mov	r0, r4
 80061fa:	f000 fc7f 	bl	8006afc <__lshift>
 80061fe:	4631      	mov	r1, r6
 8006200:	ee08 0a10 	vmov	s16, r0
 8006204:	f000 fcea 	bl	8006bdc <__mcmp>
 8006208:	2800      	cmp	r0, #0
 800620a:	dc91      	bgt.n	8006130 <_dtoa_r+0xaa8>
 800620c:	d102      	bne.n	8006214 <_dtoa_r+0xb8c>
 800620e:	f01a 0f01 	tst.w	sl, #1
 8006212:	d18d      	bne.n	8006130 <_dtoa_r+0xaa8>
 8006214:	462b      	mov	r3, r5
 8006216:	461d      	mov	r5, r3
 8006218:	f813 2d01 	ldrb.w	r2, [r3, #-1]!
 800621c:	2a30      	cmp	r2, #48	; 0x30
 800621e:	d0fa      	beq.n	8006216 <_dtoa_r+0xb8e>
 8006220:	e6d7      	b.n	8005fd2 <_dtoa_r+0x94a>
 8006222:	9a01      	ldr	r2, [sp, #4]
 8006224:	429a      	cmp	r2, r3
 8006226:	d184      	bne.n	8006132 <_dtoa_r+0xaaa>
 8006228:	9b00      	ldr	r3, [sp, #0]
 800622a:	3301      	adds	r3, #1
 800622c:	9300      	str	r3, [sp, #0]
 800622e:	2331      	movs	r3, #49	; 0x31
 8006230:	7013      	strb	r3, [r2, #0]
 8006232:	e6ce      	b.n	8005fd2 <_dtoa_r+0x94a>
 8006234:	4b09      	ldr	r3, [pc, #36]	; (800625c <_dtoa_r+0xbd4>)
 8006236:	f7ff ba95 	b.w	8005764 <_dtoa_r+0xdc>
 800623a:	9b21      	ldr	r3, [sp, #132]	; 0x84
 800623c:	2b00      	cmp	r3, #0
 800623e:	f47f aa6e 	bne.w	800571e <_dtoa_r+0x96>
 8006242:	4b07      	ldr	r3, [pc, #28]	; (8006260 <_dtoa_r+0xbd8>)
 8006244:	f7ff ba8e 	b.w	8005764 <_dtoa_r+0xdc>
 8006248:	9b02      	ldr	r3, [sp, #8]
 800624a:	2b00      	cmp	r3, #0
 800624c:	dcae      	bgt.n	80061ac <_dtoa_r+0xb24>
 800624e:	9b06      	ldr	r3, [sp, #24]
 8006250:	2b02      	cmp	r3, #2
 8006252:	f73f aea8 	bgt.w	8005fa6 <_dtoa_r+0x91e>
 8006256:	e7a9      	b.n	80061ac <_dtoa_r+0xb24>
 8006258:	0800781f 	.word	0x0800781f
 800625c:	0800777c 	.word	0x0800777c
 8006260:	080077a0 	.word	0x080077a0

08006264 <__sflush_r>:
 8006264:	898a      	ldrh	r2, [r1, #12]
 8006266:	e92d 41f0 	stmdb	sp!, {r4, r5, r6, r7, r8, lr}
 800626a:	4605      	mov	r5, r0
 800626c:	0710      	lsls	r0, r2, #28
 800626e:	460c      	mov	r4, r1
 8006270:	d458      	bmi.n	8006324 <__sflush_r+0xc0>
 8006272:	684b      	ldr	r3, [r1, #4]
 8006274:	2b00      	cmp	r3, #0
 8006276:	dc05      	bgt.n	8006284 <__sflush_r+0x20>
 8006278:	6c0b      	ldr	r3, [r1, #64]	; 0x40
 800627a:	2b00      	cmp	r3, #0
 800627c:	dc02      	bgt.n	8006284 <__sflush_r+0x20>
 800627e:	2000      	movs	r0, #0
 8006280:	e8bd 81f0 	ldmia.w	sp!, {r4, r5, r6, r7, r8, pc}
 8006284:	6ae6      	ldr	r6, [r4, #44]	; 0x2c
 8006286:	2e00      	cmp	r6, #0
 8006288:	d0f9      	beq.n	800627e <__sflush_r+0x1a>
 800628a:	2300      	movs	r3, #0
 800628c:	f412 5280 	ands.w	r2, r2, #4096	; 0x1000
 8006290:	682f      	ldr	r7, [r5, #0]
 8006292:	602b      	str	r3, [r5, #0]
 8006294:	d032      	beq.n	80062fc <__sflush_r+0x98>
 8006296:	6d60      	ldr	r0, [r4, #84]	; 0x54
 8006298:	89a3      	ldrh	r3, [r4, #12]
 800629a:	075a      	lsls	r2, r3, #29
 800629c:	d505      	bpl.n	80062aa <__sflush_r+0x46>
 800629e:	6863      	ldr	r3, [r4, #4]
 80062a0:	1ac0      	subs	r0, r0, r3
 80062a2:	6b63      	ldr	r3, [r4, #52]	; 0x34
 80062a4:	b10b      	cbz	r3, 80062aa <__sflush_r+0x46>
 80062a6:	6c23      	ldr	r3, [r4, #64]	; 0x40
 80062a8:	1ac0      	subs	r0, r0, r3
 80062aa:	2300      	movs	r3, #0
 80062ac:	4602      	mov	r2, r0
 80062ae:	6ae6      	ldr	r6, [r4, #44]	; 0x2c
 80062b0:	6a21      	ldr	r1, [r4, #32]
 80062b2:	4628      	mov	r0, r5
 80062b4:	47b0      	blx	r6
 80062b6:	1c43      	adds	r3, r0, #1
 80062b8:	89a3      	ldrh	r3, [r4, #12]
 80062ba:	d106      	bne.n	80062ca <__sflush_r+0x66>
 80062bc:	6829      	ldr	r1, [r5, #0]
 80062be:	291d      	cmp	r1, #29
 80062c0:	d82c      	bhi.n	800631c <__sflush_r+0xb8>
 80062c2:	4a2a      	ldr	r2, [pc, #168]	; (800636c <__sflush_r+0x108>)
 80062c4:	40ca      	lsrs	r2, r1
 80062c6:	07d6      	lsls	r6, r2, #31
 80062c8:	d528      	bpl.n	800631c <__sflush_r+0xb8>
 80062ca:	2200      	movs	r2, #0
 80062cc:	6062      	str	r2, [r4, #4]
 80062ce:	04d9      	lsls	r1, r3, #19
 80062d0:	6922      	ldr	r2, [r4, #16]
 80062d2:	6022      	str	r2, [r4, #0]
 80062d4:	d504      	bpl.n	80062e0 <__sflush_r+0x7c>
 80062d6:	1c42      	adds	r2, r0, #1
 80062d8:	d101      	bne.n	80062de <__sflush_r+0x7a>
 80062da:	682b      	ldr	r3, [r5, #0]
 80062dc:	b903      	cbnz	r3, 80062e0 <__sflush_r+0x7c>
 80062de:	6560      	str	r0, [r4, #84]	; 0x54
 80062e0:	6b61      	ldr	r1, [r4, #52]	; 0x34
 80062e2:	602f      	str	r7, [r5, #0]
 80062e4:	2900      	cmp	r1, #0
 80062e6:	d0ca      	beq.n	800627e <__sflush_r+0x1a>
 80062e8:	f104 0344 	add.w	r3, r4, #68	; 0x44
 80062ec:	4299      	cmp	r1, r3
 80062ee:	d002      	beq.n	80062f6 <__sflush_r+0x92>
 80062f0:	4628      	mov	r0, r5
 80062f2:	f000 fd8b 	bl	8006e0c <_free_r>
 80062f6:	2000      	movs	r0, #0
 80062f8:	6360      	str	r0, [r4, #52]	; 0x34
 80062fa:	e7c1      	b.n	8006280 <__sflush_r+0x1c>
 80062fc:	6a21      	ldr	r1, [r4, #32]
 80062fe:	2301      	movs	r3, #1
 8006300:	4628      	mov	r0, r5
 8006302:	47b0      	blx	r6
 8006304:	1c41      	adds	r1, r0, #1
 8006306:	d1c7      	bne.n	8006298 <__sflush_r+0x34>
 8006308:	682b      	ldr	r3, [r5, #0]
 800630a:	2b00      	cmp	r3, #0
 800630c:	d0c4      	beq.n	8006298 <__sflush_r+0x34>
 800630e:	2b1d      	cmp	r3, #29
 8006310:	d001      	beq.n	8006316 <__sflush_r+0xb2>
 8006312:	2b16      	cmp	r3, #22
 8006314:	d101      	bne.n	800631a <__sflush_r+0xb6>
 8006316:	602f      	str	r7, [r5, #0]
 8006318:	e7b1      	b.n	800627e <__sflush_r+0x1a>
 800631a:	89a3      	ldrh	r3, [r4, #12]
 800631c:	f043 0340 	orr.w	r3, r3, #64	; 0x40
 8006320:	81a3      	strh	r3, [r4, #12]
 8006322:	e7ad      	b.n	8006280 <__sflush_r+0x1c>
 8006324:	690f      	ldr	r7, [r1, #16]
 8006326:	2f00      	cmp	r7, #0
 8006328:	d0a9      	beq.n	800627e <__sflush_r+0x1a>
 800632a:	0793      	lsls	r3, r2, #30
 800632c:	680e      	ldr	r6, [r1, #0]
 800632e:	bf08      	it	eq
 8006330:	694b      	ldreq	r3, [r1, #20]
 8006332:	600f      	str	r7, [r1, #0]
 8006334:	bf18      	it	ne
 8006336:	2300      	movne	r3, #0
 8006338:	eba6 0807 	sub.w	r8, r6, r7
 800633c:	608b      	str	r3, [r1, #8]
 800633e:	f1b8 0f00 	cmp.w	r8, #0
 8006342:	dd9c      	ble.n	800627e <__sflush_r+0x1a>
 8006344:	6a21      	ldr	r1, [r4, #32]
 8006346:	6aa6      	ldr	r6, [r4, #40]	; 0x28
 8006348:	4643      	mov	r3, r8
 800634a:	463a      	mov	r2, r7
 800634c:	4628      	mov	r0, r5
 800634e:	47b0      	blx	r6
 8006350:	2800      	cmp	r0, #0
 8006352:	dc06      	bgt.n	8006362 <__sflush_r+0xfe>
 8006354:	89a3      	ldrh	r3, [r4, #12]
 8006356:	f043 0340 	orr.w	r3, r3, #64	; 0x40
 800635a:	81a3      	strh	r3, [r4, #12]
 800635c:	f04f 30ff 	mov.w	r0, #4294967295
 8006360:	e78e      	b.n	8006280 <__sflush_r+0x1c>
 8006362:	4407      	add	r7, r0
 8006364:	eba8 0800 	sub.w	r8, r8, r0
 8006368:	e7e9      	b.n	800633e <__sflush_r+0xda>
 800636a:	bf00      	nop
 800636c:	20400001 	.word	0x20400001

08006370 <_fflush_r>:
 8006370:	b538      	push	{r3, r4, r5, lr}
 8006372:	690b      	ldr	r3, [r1, #16]
 8006374:	4605      	mov	r5, r0
 8006376:	460c      	mov	r4, r1
 8006378:	b913      	cbnz	r3, 8006380 <_fflush_r+0x10>
 800637a:	2500      	movs	r5, #0
 800637c:	4628      	mov	r0, r5
 800637e:	bd38      	pop	{r3, r4, r5, pc}
 8006380:	b118      	cbz	r0, 800638a <_fflush_r+0x1a>
 8006382:	6983      	ldr	r3, [r0, #24]
 8006384:	b90b      	cbnz	r3, 800638a <_fflush_r+0x1a>
 8006386:	f000 f887 	bl	8006498 <__sinit>
 800638a:	4b14      	ldr	r3, [pc, #80]	; (80063dc <_fflush_r+0x6c>)
 800638c:	429c      	cmp	r4, r3
 800638e:	d11b      	bne.n	80063c8 <_fflush_r+0x58>
 8006390:	686c      	ldr	r4, [r5, #4]
 8006392:	f9b4 300c 	ldrsh.w	r3, [r4, #12]
 8006396:	2b00      	cmp	r3, #0
 8006398:	d0ef      	beq.n	800637a <_fflush_r+0xa>
 800639a:	6e62      	ldr	r2, [r4, #100]	; 0x64
 800639c:	07d0      	lsls	r0, r2, #31
 800639e:	d404      	bmi.n	80063aa <_fflush_r+0x3a>
 80063a0:	0599      	lsls	r1, r3, #22
 80063a2:	d402      	bmi.n	80063aa <_fflush_r+0x3a>
 80063a4:	6da0      	ldr	r0, [r4, #88]	; 0x58
 80063a6:	f000 f91a 	bl	80065de <__retarget_lock_acquire_recursive>
 80063aa:	4628      	mov	r0, r5
 80063ac:	4621      	mov	r1, r4
 80063ae:	f7ff ff59 	bl	8006264 <__sflush_r>
 80063b2:	6e63      	ldr	r3, [r4, #100]	; 0x64
 80063b4:	07da      	lsls	r2, r3, #31
 80063b6:	4605      	mov	r5, r0
 80063b8:	d4e0      	bmi.n	800637c <_fflush_r+0xc>
 80063ba:	89a3      	ldrh	r3, [r4, #12]
 80063bc:	059b      	lsls	r3, r3, #22
 80063be:	d4dd      	bmi.n	800637c <_fflush_r+0xc>
 80063c0:	6da0      	ldr	r0, [r4, #88]	; 0x58
 80063c2:	f000 f90d 	bl	80065e0 <__retarget_lock_release_recursive>
 80063c6:	e7d9      	b.n	800637c <_fflush_r+0xc>
 80063c8:	4b05      	ldr	r3, [pc, #20]	; (80063e0 <_fflush_r+0x70>)
 80063ca:	429c      	cmp	r4, r3
 80063cc:	d101      	bne.n	80063d2 <_fflush_r+0x62>
 80063ce:	68ac      	ldr	r4, [r5, #8]
 80063d0:	e7df      	b.n	8006392 <_fflush_r+0x22>
 80063d2:	4b04      	ldr	r3, [pc, #16]	; (80063e4 <_fflush_r+0x74>)
 80063d4:	429c      	cmp	r4, r3
 80063d6:	bf08      	it	eq
 80063d8:	68ec      	ldreq	r4, [r5, #12]
 80063da:	e7da      	b.n	8006392 <_fflush_r+0x22>
 80063dc:	08007850 	.word	0x08007850
 80063e0:	08007870 	.word	0x08007870
 80063e4:	08007830 	.word	0x08007830

080063e8 <std>:
 80063e8:	2300      	movs	r3, #0
 80063ea:	b510      	push	{r4, lr}
 80063ec:	4604      	mov	r4, r0
 80063ee:	e9c0 3300 	strd	r3, r3, [r0]
 80063f2:	e9c0 3304 	strd	r3, r3, [r0, #16]
 80063f6:	6083      	str	r3, [r0, #8]
 80063f8:	8181      	strh	r1, [r0, #12]
 80063fa:	6643      	str	r3, [r0, #100]	; 0x64
 80063fc:	81c2      	strh	r2, [r0, #14]
 80063fe:	6183      	str	r3, [r0, #24]
 8006400:	4619      	mov	r1, r3
 8006402:	2208      	movs	r2, #8
 8006404:	305c      	adds	r0, #92	; 0x5c
 8006406:	f7fe fb59 	bl	8004abc <memset>
 800640a:	4b05      	ldr	r3, [pc, #20]	; (8006420 <std+0x38>)
 800640c:	6263      	str	r3, [r4, #36]	; 0x24
 800640e:	4b05      	ldr	r3, [pc, #20]	; (8006424 <std+0x3c>)
 8006410:	62a3      	str	r3, [r4, #40]	; 0x28
 8006412:	4b05      	ldr	r3, [pc, #20]	; (8006428 <std+0x40>)
 8006414:	62e3      	str	r3, [r4, #44]	; 0x2c
 8006416:	4b05      	ldr	r3, [pc, #20]	; (800642c <std+0x44>)
 8006418:	6224      	str	r4, [r4, #32]
 800641a:	6323      	str	r3, [r4, #48]	; 0x30
 800641c:	bd10      	pop	{r4, pc}
 800641e:	bf00      	nop
 8006420:	080072a1 	.word	0x080072a1
 8006424:	080072c3 	.word	0x080072c3
 8006428:	080072fb 	.word	0x080072fb
 800642c:	0800731f 	.word	0x0800731f

08006430 <_cleanup_r>:
 8006430:	4901      	ldr	r1, [pc, #4]	; (8006438 <_cleanup_r+0x8>)
 8006432:	f000 b8af 	b.w	8006594 <_fwalk_reent>
 8006436:	bf00      	nop
 8006438:	08006371 	.word	0x08006371

0800643c <__sfmoreglue>:
 800643c:	b570      	push	{r4, r5, r6, lr}
 800643e:	2268      	movs	r2, #104	; 0x68
 8006440:	1e4d      	subs	r5, r1, #1
 8006442:	4355      	muls	r5, r2
 8006444:	460e      	mov	r6, r1
 8006446:	f105 0174 	add.w	r1, r5, #116	; 0x74
 800644a:	f000 fd4b 	bl	8006ee4 <_malloc_r>
 800644e:	4604      	mov	r4, r0
 8006450:	b140      	cbz	r0, 8006464 <__sfmoreglue+0x28>
 8006452:	2100      	movs	r1, #0
 8006454:	e9c0 1600 	strd	r1, r6, [r0]
 8006458:	300c      	adds	r0, #12
 800645a:	60a0      	str	r0, [r4, #8]
 800645c:	f105 0268 	add.w	r2, r5, #104	; 0x68
 8006460:	f7fe fb2c 	bl	8004abc <memset>
 8006464:	4620      	mov	r0, r4
 8006466:	bd70      	pop	{r4, r5, r6, pc}

08006468 <__sfp_lock_acquire>:
 8006468:	4801      	ldr	r0, [pc, #4]	; (8006470 <__sfp_lock_acquire+0x8>)
 800646a:	f000 b8b8 	b.w	80065de <__retarget_lock_acquire_recursive>
 800646e:	bf00      	nop
 8006470:	200005b5 	.word	0x200005b5

08006474 <__sfp_lock_release>:
 8006474:	4801      	ldr	r0, [pc, #4]	; (800647c <__sfp_lock_release+0x8>)
 8006476:	f000 b8b3 	b.w	80065e0 <__retarget_lock_release_recursive>
 800647a:	bf00      	nop
 800647c:	200005b5 	.word	0x200005b5

08006480 <__sinit_lock_acquire>:
 8006480:	4801      	ldr	r0, [pc, #4]	; (8006488 <__sinit_lock_acquire+0x8>)
 8006482:	f000 b8ac 	b.w	80065de <__retarget_lock_acquire_recursive>
 8006486:	bf00      	nop
 8006488:	200005b6 	.word	0x200005b6

0800648c <__sinit_lock_release>:
 800648c:	4801      	ldr	r0, [pc, #4]	; (8006494 <__sinit_lock_release+0x8>)
 800648e:	f000 b8a7 	b.w	80065e0 <__retarget_lock_release_recursive>
 8006492:	bf00      	nop
 8006494:	200005b6 	.word	0x200005b6

08006498 <__sinit>:
 8006498:	b510      	push	{r4, lr}
 800649a:	4604      	mov	r4, r0
 800649c:	f7ff fff0 	bl	8006480 <__sinit_lock_acquire>
 80064a0:	69a3      	ldr	r3, [r4, #24]
 80064a2:	b11b      	cbz	r3, 80064ac <__sinit+0x14>
 80064a4:	e8bd 4010 	ldmia.w	sp!, {r4, lr}
 80064a8:	f7ff bff0 	b.w	800648c <__sinit_lock_release>
 80064ac:	e9c4 3312 	strd	r3, r3, [r4, #72]	; 0x48
 80064b0:	6523      	str	r3, [r4, #80]	; 0x50
 80064b2:	4b13      	ldr	r3, [pc, #76]	; (8006500 <__sinit+0x68>)
 80064b4:	4a13      	ldr	r2, [pc, #76]	; (8006504 <__sinit+0x6c>)
 80064b6:	681b      	ldr	r3, [r3, #0]
 80064b8:	62a2      	str	r2, [r4, #40]	; 0x28
 80064ba:	42a3      	cmp	r3, r4
 80064bc:	bf04      	itt	eq
 80064be:	2301      	moveq	r3, #1
 80064c0:	61a3      	streq	r3, [r4, #24]
 80064c2:	4620      	mov	r0, r4
 80064c4:	f000 f820 	bl	8006508 <__sfp>
 80064c8:	6060      	str	r0, [r4, #4]
 80064ca:	4620      	mov	r0, r4
 80064cc:	f000 f81c 	bl	8006508 <__sfp>
 80064d0:	60a0      	str	r0, [r4, #8]
 80064d2:	4620      	mov	r0, r4
 80064d4:	f000 f818 	bl	8006508 <__sfp>
 80064d8:	2200      	movs	r2, #0
 80064da:	60e0      	str	r0, [r4, #12]
 80064dc:	2104      	movs	r1, #4
 80064de:	6860      	ldr	r0, [r4, #4]
 80064e0:	f7ff ff82 	bl	80063e8 <std>
 80064e4:	68a0      	ldr	r0, [r4, #8]
 80064e6:	2201      	movs	r2, #1
 80064e8:	2109      	movs	r1, #9
 80064ea:	f7ff ff7d 	bl	80063e8 <std>
 80064ee:	68e0      	ldr	r0, [r4, #12]
 80064f0:	2202      	movs	r2, #2
 80064f2:	2112      	movs	r1, #18
 80064f4:	f7ff ff78 	bl	80063e8 <std>
 80064f8:	2301      	movs	r3, #1
 80064fa:	61a3      	str	r3, [r4, #24]
 80064fc:	e7d2      	b.n	80064a4 <__sinit+0xc>
 80064fe:	bf00      	nop
 8006500:	08007768 	.word	0x08007768
 8006504:	08006431 	.word	0x08006431

08006508 <__sfp>:
 8006508:	b5f8      	push	{r3, r4, r5, r6, r7, lr}
 800650a:	4607      	mov	r7, r0
 800650c:	f7ff ffac 	bl	8006468 <__sfp_lock_acquire>
 8006510:	4b1e      	ldr	r3, [pc, #120]	; (800658c <__sfp+0x84>)
 8006512:	681e      	ldr	r6, [r3, #0]
 8006514:	69b3      	ldr	r3, [r6, #24]
 8006516:	b913      	cbnz	r3, 800651e <__sfp+0x16>
 8006518:	4630      	mov	r0, r6
 800651a:	f7ff ffbd 	bl	8006498 <__sinit>
 800651e:	3648      	adds	r6, #72	; 0x48
 8006520:	e9d6 3401 	ldrd	r3, r4, [r6, #4]
 8006524:	3b01      	subs	r3, #1
 8006526:	d503      	bpl.n	8006530 <__sfp+0x28>
 8006528:	6833      	ldr	r3, [r6, #0]
 800652a:	b30b      	cbz	r3, 8006570 <__sfp+0x68>
 800652c:	6836      	ldr	r6, [r6, #0]
 800652e:	e7f7      	b.n	8006520 <__sfp+0x18>
 8006530:	f9b4 500c 	ldrsh.w	r5, [r4, #12]
 8006534:	b9d5      	cbnz	r5, 800656c <__sfp+0x64>
 8006536:	4b16      	ldr	r3, [pc, #88]	; (8006590 <__sfp+0x88>)
 8006538:	60e3      	str	r3, [r4, #12]
 800653a:	f104 0058 	add.w	r0, r4, #88	; 0x58
 800653e:	6665      	str	r5, [r4, #100]	; 0x64
 8006540:	f000 f84c 	bl	80065dc <__retarget_lock_init_recursive>
 8006544:	f7ff ff96 	bl	8006474 <__sfp_lock_release>
 8006548:	e9c4 5501 	strd	r5, r5, [r4, #4]
 800654c:	e9c4 5504 	strd	r5, r5, [r4, #16]
 8006550:	6025      	str	r5, [r4, #0]
 8006552:	61a5      	str	r5, [r4, #24]
 8006554:	2208      	movs	r2, #8
 8006556:	4629      	mov	r1, r5
 8006558:	f104 005c 	add.w	r0, r4, #92	; 0x5c
 800655c:	f7fe faae 	bl	8004abc <memset>
 8006560:	e9c4 550d 	strd	r5, r5, [r4, #52]	; 0x34
 8006564:	e9c4 5512 	strd	r5, r5, [r4, #72]	; 0x48
 8006568:	4620      	mov	r0, r4
 800656a:	bdf8      	pop	{r3, r4, r5, r6, r7, pc}
 800656c:	3468      	adds	r4, #104	; 0x68
 800656e:	e7d9      	b.n	8006524 <__sfp+0x1c>
 8006570:	2104      	movs	r1, #4
 8006572:	4638      	mov	r0, r7
 8006574:	f7ff ff62 	bl	800643c <__sfmoreglue>
 8006578:	4604      	mov	r4, r0
 800657a:	6030      	str	r0, [r6, #0]
 800657c:	2800      	cmp	r0, #0
 800657e:	d1d5      	bne.n	800652c <__sfp+0x24>
 8006580:	f7ff ff78 	bl	8006474 <__sfp_lock_release>
 8006584:	230c      	movs	r3, #12
 8006586:	603b      	str	r3, [r7, #0]
 8006588:	e7ee      	b.n	8006568 <__sfp+0x60>
 800658a:	bf00      	nop
 800658c:	08007768 	.word	0x08007768
 8006590:	ffff0001 	.word	0xffff0001

08006594 <_fwalk_reent>:
 8006594:	e92d 43f8 	stmdb	sp!, {r3, r4, r5, r6, r7, r8, r9, lr}
 8006598:	4606      	mov	r6, r0
 800659a:	4688      	mov	r8, r1
 800659c:	f100 0448 	add.w	r4, r0, #72	; 0x48
 80065a0:	2700      	movs	r7, #0
 80065a2:	e9d4 9501 	ldrd	r9, r5, [r4, #4]
 80065a6:	f1b9 0901 	subs.w	r9, r9, #1
 80065aa:	d505      	bpl.n	80065b8 <_fwalk_reent+0x24>
 80065ac:	6824      	ldr	r4, [r4, #0]
 80065ae:	2c00      	cmp	r4, #0
 80065b0:	d1f7      	bne.n	80065a2 <_fwalk_reent+0xe>
 80065b2:	4638      	mov	r0, r7
 80065b4:	e8bd 83f8 	ldmia.w	sp!, {r3, r4, r5, r6, r7, r8, r9, pc}
 80065b8:	89ab      	ldrh	r3, [r5, #12]
 80065ba:	2b01      	cmp	r3, #1
 80065bc:	d907      	bls.n	80065ce <_fwalk_reent+0x3a>
 80065be:	f9b5 300e 	ldrsh.w	r3, [r5, #14]
 80065c2:	3301      	adds	r3, #1
 80065c4:	d003      	beq.n	80065ce <_fwalk_reent+0x3a>
 80065c6:	4629      	mov	r1, r5
 80065c8:	4630      	mov	r0, r6
 80065ca:	47c0      	blx	r8
 80065cc:	4307      	orrs	r7, r0
 80065ce:	3568      	adds	r5, #104	; 0x68
 80065d0:	e7e9      	b.n	80065a6 <_fwalk_reent+0x12>
	...

080065d4 <_localeconv_r>:
 80065d4:	4800      	ldr	r0, [pc, #0]	; (80065d8 <_localeconv_r+0x4>)
 80065d6:	4770      	bx	lr
 80065d8:	20000160 	.word	0x20000160

080065dc <__retarget_lock_init_recursive>:
 80065dc:	4770      	bx	lr

080065de <__retarget_lock_acquire_recursive>:
 80065de:	4770      	bx	lr

080065e0 <__retarget_lock_release_recursive>:
 80065e0:	4770      	bx	lr

080065e2 <__swhatbuf_r>:
 80065e2:	b570      	push	{r4, r5, r6, lr}
 80065e4:	460e      	mov	r6, r1
 80065e6:	f9b1 100e 	ldrsh.w	r1, [r1, #14]
 80065ea:	2900      	cmp	r1, #0
 80065ec:	b096      	sub	sp, #88	; 0x58
 80065ee:	4614      	mov	r4, r2
 80065f0:	461d      	mov	r5, r3
 80065f2:	da08      	bge.n	8006606 <__swhatbuf_r+0x24>
 80065f4:	f9b6 300c 	ldrsh.w	r3, [r6, #12]
 80065f8:	2200      	movs	r2, #0
 80065fa:	602a      	str	r2, [r5, #0]
 80065fc:	061a      	lsls	r2, r3, #24
 80065fe:	d410      	bmi.n	8006622 <__swhatbuf_r+0x40>
 8006600:	f44f 6380 	mov.w	r3, #1024	; 0x400
 8006604:	e00e      	b.n	8006624 <__swhatbuf_r+0x42>
 8006606:	466a      	mov	r2, sp
 8006608:	f000 ffa0 	bl	800754c <_fstat_r>
 800660c:	2800      	cmp	r0, #0
 800660e:	dbf1      	blt.n	80065f4 <__swhatbuf_r+0x12>
 8006610:	9a01      	ldr	r2, [sp, #4]
 8006612:	f402 4270 	and.w	r2, r2, #61440	; 0xf000
 8006616:	f5a2 5300 	sub.w	r3, r2, #8192	; 0x2000
 800661a:	425a      	negs	r2, r3
 800661c:	415a      	adcs	r2, r3
 800661e:	602a      	str	r2, [r5, #0]
 8006620:	e7ee      	b.n	8006600 <__swhatbuf_r+0x1e>
 8006622:	2340      	movs	r3, #64	; 0x40
 8006624:	2000      	movs	r0, #0
 8006626:	6023      	str	r3, [r4, #0]
 8006628:	b016      	add	sp, #88	; 0x58
 800662a:	bd70      	pop	{r4, r5, r6, pc}

0800662c <__smakebuf_r>:
 800662c:	898b      	ldrh	r3, [r1, #12]
 800662e:	b573      	push	{r0, r1, r4, r5, r6, lr}
 8006630:	079d      	lsls	r5, r3, #30
 8006632:	4606      	mov	r6, r0
 8006634:	460c      	mov	r4, r1
 8006636:	d507      	bpl.n	8006648 <__smakebuf_r+0x1c>
 8006638:	f104 0347 	add.w	r3, r4, #71	; 0x47
 800663c:	6023      	str	r3, [r4, #0]
 800663e:	6123      	str	r3, [r4, #16]
 8006640:	2301      	movs	r3, #1
 8006642:	6163      	str	r3, [r4, #20]
 8006644:	b002      	add	sp, #8
 8006646:	bd70      	pop	{r4, r5, r6, pc}
 8006648:	ab01      	add	r3, sp, #4
 800664a:	466a      	mov	r2, sp
 800664c:	f7ff ffc9 	bl	80065e2 <__swhatbuf_r>
 8006650:	9900      	ldr	r1, [sp, #0]
 8006652:	4605      	mov	r5, r0
 8006654:	4630      	mov	r0, r6
 8006656:	f000 fc45 	bl	8006ee4 <_malloc_r>
 800665a:	b948      	cbnz	r0, 8006670 <__smakebuf_r+0x44>
 800665c:	f9b4 300c 	ldrsh.w	r3, [r4, #12]
 8006660:	059a      	lsls	r2, r3, #22
 8006662:	d4ef      	bmi.n	8006644 <__smakebuf_r+0x18>
 8006664:	f023 0303 	bic.w	r3, r3, #3
 8006668:	f043 0302 	orr.w	r3, r3, #2
 800666c:	81a3      	strh	r3, [r4, #12]
 800666e:	e7e3      	b.n	8006638 <__smakebuf_r+0xc>
 8006670:	4b0d      	ldr	r3, [pc, #52]	; (80066a8 <__smakebuf_r+0x7c>)
 8006672:	62b3      	str	r3, [r6, #40]	; 0x28
 8006674:	89a3      	ldrh	r3, [r4, #12]
 8006676:	6020      	str	r0, [r4, #0]
 8006678:	f043 0380 	orr.w	r3, r3, #128	; 0x80
 800667c:	81a3      	strh	r3, [r4, #12]
 800667e:	9b00      	ldr	r3, [sp, #0]
 8006680:	6163      	str	r3, [r4, #20]
 8006682:	9b01      	ldr	r3, [sp, #4]
 8006684:	6120      	str	r0, [r4, #16]
 8006686:	b15b      	cbz	r3, 80066a0 <__smakebuf_r+0x74>
 8006688:	f9b4 100e 	ldrsh.w	r1, [r4, #14]
 800668c:	4630      	mov	r0, r6
 800668e:	f000 ff6f 	bl	8007570 <_isatty_r>
 8006692:	b128      	cbz	r0, 80066a0 <__smakebuf_r+0x74>
 8006694:	89a3      	ldrh	r3, [r4, #12]
 8006696:	f023 0303 	bic.w	r3, r3, #3
 800669a:	f043 0301 	orr.w	r3, r3, #1
 800669e:	81a3      	strh	r3, [r4, #12]
 80066a0:	89a0      	ldrh	r0, [r4, #12]
 80066a2:	4305      	orrs	r5, r0
 80066a4:	81a5      	strh	r5, [r4, #12]
 80066a6:	e7cd      	b.n	8006644 <__smakebuf_r+0x18>
 80066a8:	08006431 	.word	0x08006431

080066ac <malloc>:
 80066ac:	4b02      	ldr	r3, [pc, #8]	; (80066b8 <malloc+0xc>)
 80066ae:	4601      	mov	r1, r0
 80066b0:	6818      	ldr	r0, [r3, #0]
 80066b2:	f000 bc17 	b.w	8006ee4 <_malloc_r>
 80066b6:	bf00      	nop
 80066b8:	2000000c 	.word	0x2000000c

080066bc <memcpy>:
 80066bc:	440a      	add	r2, r1
 80066be:	4291      	cmp	r1, r2
 80066c0:	f100 33ff 	add.w	r3, r0, #4294967295
 80066c4:	d100      	bne.n	80066c8 <memcpy+0xc>
 80066c6:	4770      	bx	lr
 80066c8:	b510      	push	{r4, lr}
 80066ca:	f811 4b01 	ldrb.w	r4, [r1], #1
 80066ce:	f803 4f01 	strb.w	r4, [r3, #1]!
 80066d2:	4291      	cmp	r1, r2
 80066d4:	d1f9      	bne.n	80066ca <memcpy+0xe>
 80066d6:	bd10      	pop	{r4, pc}

080066d8 <_Balloc>:
 80066d8:	b570      	push	{r4, r5, r6, lr}
 80066da:	6a46      	ldr	r6, [r0, #36]	; 0x24
 80066dc:	4604      	mov	r4, r0
 80066de:	460d      	mov	r5, r1
 80066e0:	b976      	cbnz	r6, 8006700 <_Balloc+0x28>
 80066e2:	2010      	movs	r0, #16
 80066e4:	f7ff ffe2 	bl	80066ac <malloc>
 80066e8:	4602      	mov	r2, r0
 80066ea:	6260      	str	r0, [r4, #36]	; 0x24
 80066ec:	b920      	cbnz	r0, 80066f8 <_Balloc+0x20>
 80066ee:	4b18      	ldr	r3, [pc, #96]	; (8006750 <_Balloc+0x78>)
 80066f0:	4818      	ldr	r0, [pc, #96]	; (8006754 <_Balloc+0x7c>)
 80066f2:	2166      	movs	r1, #102	; 0x66
 80066f4:	f000 feea 	bl	80074cc <__assert_func>
 80066f8:	e9c0 6601 	strd	r6, r6, [r0, #4]
 80066fc:	6006      	str	r6, [r0, #0]
 80066fe:	60c6      	str	r6, [r0, #12]
 8006700:	6a66      	ldr	r6, [r4, #36]	; 0x24
 8006702:	68f3      	ldr	r3, [r6, #12]
 8006704:	b183      	cbz	r3, 8006728 <_Balloc+0x50>
 8006706:	6a63      	ldr	r3, [r4, #36]	; 0x24
 8006708:	68db      	ldr	r3, [r3, #12]
 800670a:	f853 0025 	ldr.w	r0, [r3, r5, lsl #2]
 800670e:	b9b8      	cbnz	r0, 8006740 <_Balloc+0x68>
 8006710:	2101      	movs	r1, #1
 8006712:	fa01 f605 	lsl.w	r6, r1, r5
 8006716:	1d72      	adds	r2, r6, #5
 8006718:	0092      	lsls	r2, r2, #2
 800671a:	4620      	mov	r0, r4
 800671c:	f000 fb60 	bl	8006de0 <_calloc_r>
 8006720:	b160      	cbz	r0, 800673c <_Balloc+0x64>
 8006722:	e9c0 5601 	strd	r5, r6, [r0, #4]
 8006726:	e00e      	b.n	8006746 <_Balloc+0x6e>
 8006728:	2221      	movs	r2, #33	; 0x21
 800672a:	2104      	movs	r1, #4
 800672c:	4620      	mov	r0, r4
 800672e:	f000 fb57 	bl	8006de0 <_calloc_r>
 8006732:	6a63      	ldr	r3, [r4, #36]	; 0x24
 8006734:	60f0      	str	r0, [r6, #12]
 8006736:	68db      	ldr	r3, [r3, #12]
 8006738:	2b00      	cmp	r3, #0
 800673a:	d1e4      	bne.n	8006706 <_Balloc+0x2e>
 800673c:	2000      	movs	r0, #0
 800673e:	bd70      	pop	{r4, r5, r6, pc}
 8006740:	6802      	ldr	r2, [r0, #0]
 8006742:	f843 2025 	str.w	r2, [r3, r5, lsl #2]
 8006746:	2300      	movs	r3, #0
 8006748:	e9c0 3303 	strd	r3, r3, [r0, #12]
 800674c:	e7f7      	b.n	800673e <_Balloc+0x66>
 800674e:	bf00      	nop
 8006750:	080077ad 	.word	0x080077ad
 8006754:	08007890 	.word	0x08007890

08006758 <_Bfree>:
 8006758:	b570      	push	{r4, r5, r6, lr}
 800675a:	6a46      	ldr	r6, [r0, #36]	; 0x24
 800675c:	4605      	mov	r5, r0
 800675e:	460c      	mov	r4, r1
 8006760:	b976      	cbnz	r6, 8006780 <_Bfree+0x28>
 8006762:	2010      	movs	r0, #16
 8006764:	f7ff ffa2 	bl	80066ac <malloc>
 8006768:	4602      	mov	r2, r0
 800676a:	6268      	str	r0, [r5, #36]	; 0x24
 800676c:	b920      	cbnz	r0, 8006778 <_Bfree+0x20>
 800676e:	4b09      	ldr	r3, [pc, #36]	; (8006794 <_Bfree+0x3c>)
 8006770:	4809      	ldr	r0, [pc, #36]	; (8006798 <_Bfree+0x40>)
 8006772:	218a      	movs	r1, #138	; 0x8a
 8006774:	f000 feaa 	bl	80074cc <__assert_func>
 8006778:	e9c0 6601 	strd	r6, r6, [r0, #4]
 800677c:	6006      	str	r6, [r0, #0]
 800677e:	60c6      	str	r6, [r0, #12]
 8006780:	b13c      	cbz	r4, 8006792 <_Bfree+0x3a>
 8006782:	6a6b      	ldr	r3, [r5, #36]	; 0x24
 8006784:	6862      	ldr	r2, [r4, #4]
 8006786:	68db      	ldr	r3, [r3, #12]
 8006788:	f853 1022 	ldr.w	r1, [r3, r2, lsl #2]
 800678c:	6021      	str	r1, [r4, #0]
 800678e:	f843 4022 	str.w	r4, [r3, r2, lsl #2]
 8006792:	bd70      	pop	{r4, r5, r6, pc}
 8006794:	080077ad 	.word	0x080077ad
 8006798:	08007890 	.word	0x08007890

0800679c <__multadd>:
 800679c:	e92d 41f0 	stmdb	sp!, {r4, r5, r6, r7, r8, lr}
 80067a0:	690d      	ldr	r5, [r1, #16]
 80067a2:	4607      	mov	r7, r0
 80067a4:	460c      	mov	r4, r1
 80067a6:	461e      	mov	r6, r3
 80067a8:	f101 0c14 	add.w	ip, r1, #20
 80067ac:	2000      	movs	r0, #0
 80067ae:	f8dc 3000 	ldr.w	r3, [ip]
 80067b2:	b299      	uxth	r1, r3
 80067b4:	fb02 6101 	mla	r1, r2, r1, r6
 80067b8:	0c1e      	lsrs	r6, r3, #16
 80067ba:	0c0b      	lsrs	r3, r1, #16
 80067bc:	fb02 3306 	mla	r3, r2, r6, r3
 80067c0:	b289      	uxth	r1, r1
 80067c2:	3001      	adds	r0, #1
 80067c4:	eb01 4103 	add.w	r1, r1, r3, lsl #16
 80067c8:	4285      	cmp	r5, r0
 80067ca:	f84c 1b04 	str.w	r1, [ip], #4
 80067ce:	ea4f 4613 	mov.w	r6, r3, lsr #16
 80067d2:	dcec      	bgt.n	80067ae <__multadd+0x12>
 80067d4:	b30e      	cbz	r6, 800681a <__multadd+0x7e>
 80067d6:	68a3      	ldr	r3, [r4, #8]
 80067d8:	42ab      	cmp	r3, r5
 80067da:	dc19      	bgt.n	8006810 <__multadd+0x74>
 80067dc:	6861      	ldr	r1, [r4, #4]
 80067de:	4638      	mov	r0, r7
 80067e0:	3101      	adds	r1, #1
 80067e2:	f7ff ff79 	bl	80066d8 <_Balloc>
 80067e6:	4680      	mov	r8, r0
 80067e8:	b928      	cbnz	r0, 80067f6 <__multadd+0x5a>
 80067ea:	4602      	mov	r2, r0
 80067ec:	4b0c      	ldr	r3, [pc, #48]	; (8006820 <__multadd+0x84>)
 80067ee:	480d      	ldr	r0, [pc, #52]	; (8006824 <__multadd+0x88>)
 80067f0:	21b5      	movs	r1, #181	; 0xb5
 80067f2:	f000 fe6b 	bl	80074cc <__assert_func>
 80067f6:	6922      	ldr	r2, [r4, #16]
 80067f8:	3202      	adds	r2, #2
 80067fa:	f104 010c 	add.w	r1, r4, #12
 80067fe:	0092      	lsls	r2, r2, #2
 8006800:	300c      	adds	r0, #12
 8006802:	f7ff ff5b 	bl	80066bc <memcpy>
 8006806:	4621      	mov	r1, r4
 8006808:	4638      	mov	r0, r7
 800680a:	f7ff ffa5 	bl	8006758 <_Bfree>
 800680e:	4644      	mov	r4, r8
 8006810:	eb04 0385 	add.w	r3, r4, r5, lsl #2
 8006814:	3501      	adds	r5, #1
 8006816:	615e      	str	r6, [r3, #20]
 8006818:	6125      	str	r5, [r4, #16]
 800681a:	4620      	mov	r0, r4
 800681c:	e8bd 81f0 	ldmia.w	sp!, {r4, r5, r6, r7, r8, pc}
 8006820:	0800781f 	.word	0x0800781f
 8006824:	08007890 	.word	0x08007890

08006828 <__hi0bits>:
 8006828:	0c03      	lsrs	r3, r0, #16
 800682a:	041b      	lsls	r3, r3, #16
 800682c:	b9d3      	cbnz	r3, 8006864 <__hi0bits+0x3c>
 800682e:	0400      	lsls	r0, r0, #16
 8006830:	2310      	movs	r3, #16
 8006832:	f010 4f7f 	tst.w	r0, #4278190080	; 0xff000000
 8006836:	bf04      	itt	eq
 8006838:	0200      	lsleq	r0, r0, #8
 800683a:	3308      	addeq	r3, #8
 800683c:	f010 4f70 	tst.w	r0, #4026531840	; 0xf0000000
 8006840:	bf04      	itt	eq
 8006842:	0100      	lsleq	r0, r0, #4
 8006844:	3304      	addeq	r3, #4
 8006846:	f010 4f40 	tst.w	r0, #3221225472	; 0xc0000000
 800684a:	bf04      	itt	eq
 800684c:	0080      	lsleq	r0, r0, #2
 800684e:	3302      	addeq	r3, #2
 8006850:	2800      	cmp	r0, #0
 8006852:	db05      	blt.n	8006860 <__hi0bits+0x38>
 8006854:	f010 4f80 	tst.w	r0, #1073741824	; 0x40000000
 8006858:	f103 0301 	add.w	r3, r3, #1
 800685c:	bf08      	it	eq
 800685e:	2320      	moveq	r3, #32
 8006860:	4618      	mov	r0, r3
 8006862:	4770      	bx	lr
 8006864:	2300      	movs	r3, #0
 8006866:	e7e4      	b.n	8006832 <__hi0bits+0xa>

08006868 <__lo0bits>:
 8006868:	6803      	ldr	r3, [r0, #0]
 800686a:	f013 0207 	ands.w	r2, r3, #7
 800686e:	4601      	mov	r1, r0
 8006870:	d00b      	beq.n	800688a <__lo0bits+0x22>
 8006872:	07da      	lsls	r2, r3, #31
 8006874:	d423      	bmi.n	80068be <__lo0bits+0x56>
 8006876:	0798      	lsls	r0, r3, #30
 8006878:	bf49      	itett	mi
 800687a:	085b      	lsrmi	r3, r3, #1
 800687c:	089b      	lsrpl	r3, r3, #2
 800687e:	2001      	movmi	r0, #1
 8006880:	600b      	strmi	r3, [r1, #0]
 8006882:	bf5c      	itt	pl
 8006884:	600b      	strpl	r3, [r1, #0]
 8006886:	2002      	movpl	r0, #2
 8006888:	4770      	bx	lr
 800688a:	b298      	uxth	r0, r3
 800688c:	b9a8      	cbnz	r0, 80068ba <__lo0bits+0x52>
 800688e:	0c1b      	lsrs	r3, r3, #16
 8006890:	2010      	movs	r0, #16
 8006892:	b2da      	uxtb	r2, r3
 8006894:	b90a      	cbnz	r2, 800689a <__lo0bits+0x32>
 8006896:	3008      	adds	r0, #8
 8006898:	0a1b      	lsrs	r3, r3, #8
 800689a:	071a      	lsls	r2, r3, #28
 800689c:	bf04      	itt	eq
 800689e:	091b      	lsreq	r3, r3, #4
 80068a0:	3004      	addeq	r0, #4
 80068a2:	079a      	lsls	r2, r3, #30
 80068a4:	bf04      	itt	eq
 80068a6:	089b      	lsreq	r3, r3, #2
 80068a8:	3002      	addeq	r0, #2
 80068aa:	07da      	lsls	r2, r3, #31
 80068ac:	d403      	bmi.n	80068b6 <__lo0bits+0x4e>
 80068ae:	085b      	lsrs	r3, r3, #1
 80068b0:	f100 0001 	add.w	r0, r0, #1
 80068b4:	d005      	beq.n	80068c2 <__lo0bits+0x5a>
 80068b6:	600b      	str	r3, [r1, #0]
 80068b8:	4770      	bx	lr
 80068ba:	4610      	mov	r0, r2
 80068bc:	e7e9      	b.n	8006892 <__lo0bits+0x2a>
 80068be:	2000      	movs	r0, #0
 80068c0:	4770      	bx	lr
 80068c2:	2020      	movs	r0, #32
 80068c4:	4770      	bx	lr
	...

080068c8 <__i2b>:
 80068c8:	b510      	push	{r4, lr}
 80068ca:	460c      	mov	r4, r1
 80068cc:	2101      	movs	r1, #1
 80068ce:	f7ff ff03 	bl	80066d8 <_Balloc>
 80068d2:	4602      	mov	r2, r0
 80068d4:	b928      	cbnz	r0, 80068e2 <__i2b+0x1a>
 80068d6:	4b05      	ldr	r3, [pc, #20]	; (80068ec <__i2b+0x24>)
 80068d8:	4805      	ldr	r0, [pc, #20]	; (80068f0 <__i2b+0x28>)
 80068da:	f44f 71a0 	mov.w	r1, #320	; 0x140
 80068de:	f000 fdf5 	bl	80074cc <__assert_func>
 80068e2:	2301      	movs	r3, #1
 80068e4:	6144      	str	r4, [r0, #20]
 80068e6:	6103      	str	r3, [r0, #16]
 80068e8:	bd10      	pop	{r4, pc}
 80068ea:	bf00      	nop
 80068ec:	0800781f 	.word	0x0800781f
 80068f0:	08007890 	.word	0x08007890

080068f4 <__multiply>:
 80068f4:	e92d 4ff0 	stmdb	sp!, {r4, r5, r6, r7, r8, r9, sl, fp, lr}
 80068f8:	4691      	mov	r9, r2
 80068fa:	690a      	ldr	r2, [r1, #16]
 80068fc:	f8d9 3010 	ldr.w	r3, [r9, #16]
 8006900:	429a      	cmp	r2, r3
 8006902:	bfb8      	it	lt
 8006904:	460b      	movlt	r3, r1
 8006906:	460c      	mov	r4, r1
 8006908:	bfbc      	itt	lt
 800690a:	464c      	movlt	r4, r9
 800690c:	4699      	movlt	r9, r3
 800690e:	6927      	ldr	r7, [r4, #16]
 8006910:	f8d9 a010 	ldr.w	sl, [r9, #16]
 8006914:	68a3      	ldr	r3, [r4, #8]
 8006916:	6861      	ldr	r1, [r4, #4]
 8006918:	eb07 060a 	add.w	r6, r7, sl
 800691c:	42b3      	cmp	r3, r6
 800691e:	b085      	sub	sp, #20
 8006920:	bfb8      	it	lt
 8006922:	3101      	addlt	r1, #1
 8006924:	f7ff fed8 	bl	80066d8 <_Balloc>
 8006928:	b930      	cbnz	r0, 8006938 <__multiply+0x44>
 800692a:	4602      	mov	r2, r0
 800692c:	4b44      	ldr	r3, [pc, #272]	; (8006a40 <__multiply+0x14c>)
 800692e:	4845      	ldr	r0, [pc, #276]	; (8006a44 <__multiply+0x150>)
 8006930:	f240 115d 	movw	r1, #349	; 0x15d
 8006934:	f000 fdca 	bl	80074cc <__assert_func>
 8006938:	f100 0514 	add.w	r5, r0, #20
 800693c:	eb05 0886 	add.w	r8, r5, r6, lsl #2
 8006940:	462b      	mov	r3, r5
 8006942:	2200      	movs	r2, #0
 8006944:	4543      	cmp	r3, r8
 8006946:	d321      	bcc.n	800698c <__multiply+0x98>
 8006948:	f104 0314 	add.w	r3, r4, #20
 800694c:	eb03 0787 	add.w	r7, r3, r7, lsl #2
 8006950:	f109 0314 	add.w	r3, r9, #20
 8006954:	eb03 028a 	add.w	r2, r3, sl, lsl #2
 8006958:	9202      	str	r2, [sp, #8]
 800695a:	1b3a      	subs	r2, r7, r4
 800695c:	3a15      	subs	r2, #21
 800695e:	f022 0203 	bic.w	r2, r2, #3
 8006962:	3204      	adds	r2, #4
 8006964:	f104 0115 	add.w	r1, r4, #21
 8006968:	428f      	cmp	r7, r1
 800696a:	bf38      	it	cc
 800696c:	2204      	movcc	r2, #4
 800696e:	9201      	str	r2, [sp, #4]
 8006970:	9a02      	ldr	r2, [sp, #8]
 8006972:	9303      	str	r3, [sp, #12]
 8006974:	429a      	cmp	r2, r3
 8006976:	d80c      	bhi.n	8006992 <__multiply+0x9e>
 8006978:	2e00      	cmp	r6, #0
 800697a:	dd03      	ble.n	8006984 <__multiply+0x90>
 800697c:	f858 3d04 	ldr.w	r3, [r8, #-4]!
 8006980:	2b00      	cmp	r3, #0
 8006982:	d05a      	beq.n	8006a3a <__multiply+0x146>
 8006984:	6106      	str	r6, [r0, #16]
 8006986:	b005      	add	sp, #20
 8006988:	e8bd 8ff0 	ldmia.w	sp!, {r4, r5, r6, r7, r8, r9, sl, fp, pc}
 800698c:	f843 2b04 	str.w	r2, [r3], #4
 8006990:	e7d8      	b.n	8006944 <__multiply+0x50>
 8006992:	f8b3 a000 	ldrh.w	sl, [r3]
 8006996:	f1ba 0f00 	cmp.w	sl, #0
 800699a:	d024      	beq.n	80069e6 <__multiply+0xf2>
 800699c:	f104 0e14 	add.w	lr, r4, #20
 80069a0:	46a9      	mov	r9, r5
 80069a2:	f04f 0c00 	mov.w	ip, #0
 80069a6:	f85e 2b04 	ldr.w	r2, [lr], #4
 80069aa:	f8d9 1000 	ldr.w	r1, [r9]
 80069ae:	fa1f fb82 	uxth.w	fp, r2
 80069b2:	b289      	uxth	r1, r1
 80069b4:	fb0a 110b 	mla	r1, sl, fp, r1
 80069b8:	ea4f 4b12 	mov.w	fp, r2, lsr #16
 80069bc:	f8d9 2000 	ldr.w	r2, [r9]
 80069c0:	4461      	add	r1, ip
 80069c2:	ea4f 4c12 	mov.w	ip, r2, lsr #16
 80069c6:	fb0a c20b 	mla	r2, sl, fp, ip
 80069ca:	eb02 4211 	add.w	r2, r2, r1, lsr #16
 80069ce:	b289      	uxth	r1, r1
 80069d0:	ea41 4102 	orr.w	r1, r1, r2, lsl #16
 80069d4:	4577      	cmp	r7, lr
 80069d6:	f849 1b04 	str.w	r1, [r9], #4
 80069da:	ea4f 4c12 	mov.w	ip, r2, lsr #16
 80069de:	d8e2      	bhi.n	80069a6 <__multiply+0xb2>
 80069e0:	9a01      	ldr	r2, [sp, #4]
 80069e2:	f845 c002 	str.w	ip, [r5, r2]
 80069e6:	9a03      	ldr	r2, [sp, #12]
 80069e8:	f8b2 9002 	ldrh.w	r9, [r2, #2]
 80069ec:	3304      	adds	r3, #4
 80069ee:	f1b9 0f00 	cmp.w	r9, #0
 80069f2:	d020      	beq.n	8006a36 <__multiply+0x142>
 80069f4:	6829      	ldr	r1, [r5, #0]
 80069f6:	f104 0c14 	add.w	ip, r4, #20
 80069fa:	46ae      	mov	lr, r5
 80069fc:	f04f 0a00 	mov.w	sl, #0
 8006a00:	f8bc b000 	ldrh.w	fp, [ip]
 8006a04:	f8be 2002 	ldrh.w	r2, [lr, #2]
 8006a08:	fb09 220b 	mla	r2, r9, fp, r2
 8006a0c:	4492      	add	sl, r2
 8006a0e:	b289      	uxth	r1, r1
 8006a10:	ea41 410a 	orr.w	r1, r1, sl, lsl #16
 8006a14:	f84e 1b04 	str.w	r1, [lr], #4
 8006a18:	f85c 2b04 	ldr.w	r2, [ip], #4
 8006a1c:	f8be 1000 	ldrh.w	r1, [lr]
 8006a20:	0c12      	lsrs	r2, r2, #16
 8006a22:	fb09 1102 	mla	r1, r9, r2, r1
 8006a26:	eb01 411a 	add.w	r1, r1, sl, lsr #16
 8006a2a:	4567      	cmp	r7, ip
 8006a2c:	ea4f 4a11 	mov.w	sl, r1, lsr #16
 8006a30:	d8e6      	bhi.n	8006a00 <__multiply+0x10c>
 8006a32:	9a01      	ldr	r2, [sp, #4]
 8006a34:	50a9      	str	r1, [r5, r2]
 8006a36:	3504      	adds	r5, #4
 8006a38:	e79a      	b.n	8006970 <__multiply+0x7c>
 8006a3a:	3e01      	subs	r6, #1
 8006a3c:	e79c      	b.n	8006978 <__multiply+0x84>
 8006a3e:	bf00      	nop
 8006a40:	0800781f 	.word	0x0800781f
 8006a44:	08007890 	.word	0x08007890

08006a48 <__pow5mult>:
 8006a48:	e92d 43f8 	stmdb	sp!, {r3, r4, r5, r6, r7, r8, r9, lr}
 8006a4c:	4615      	mov	r5, r2
 8006a4e:	f012 0203 	ands.w	r2, r2, #3
 8006a52:	4606      	mov	r6, r0
 8006a54:	460f      	mov	r7, r1
 8006a56:	d007      	beq.n	8006a68 <__pow5mult+0x20>
 8006a58:	4c25      	ldr	r4, [pc, #148]	; (8006af0 <__pow5mult+0xa8>)
 8006a5a:	3a01      	subs	r2, #1
 8006a5c:	2300      	movs	r3, #0
 8006a5e:	f854 2022 	ldr.w	r2, [r4, r2, lsl #2]
 8006a62:	f7ff fe9b 	bl	800679c <__multadd>
 8006a66:	4607      	mov	r7, r0
 8006a68:	10ad      	asrs	r5, r5, #2
 8006a6a:	d03d      	beq.n	8006ae8 <__pow5mult+0xa0>
 8006a6c:	6a74      	ldr	r4, [r6, #36]	; 0x24
 8006a6e:	b97c      	cbnz	r4, 8006a90 <__pow5mult+0x48>
 8006a70:	2010      	movs	r0, #16
 8006a72:	f7ff fe1b 	bl	80066ac <malloc>
 8006a76:	4602      	mov	r2, r0
 8006a78:	6270      	str	r0, [r6, #36]	; 0x24
 8006a7a:	b928      	cbnz	r0, 8006a88 <__pow5mult+0x40>
 8006a7c:	4b1d      	ldr	r3, [pc, #116]	; (8006af4 <__pow5mult+0xac>)
 8006a7e:	481e      	ldr	r0, [pc, #120]	; (8006af8 <__pow5mult+0xb0>)
 8006a80:	f44f 71d7 	mov.w	r1, #430	; 0x1ae
 8006a84:	f000 fd22 	bl	80074cc <__assert_func>
 8006a88:	e9c0 4401 	strd	r4, r4, [r0, #4]
 8006a8c:	6004      	str	r4, [r0, #0]
 8006a8e:	60c4      	str	r4, [r0, #12]
 8006a90:	f8d6 8024 	ldr.w	r8, [r6, #36]	; 0x24
 8006a94:	f8d8 4008 	ldr.w	r4, [r8, #8]
 8006a98:	b94c      	cbnz	r4, 8006aae <__pow5mult+0x66>
 8006a9a:	f240 2171 	movw	r1, #625	; 0x271
 8006a9e:	4630      	mov	r0, r6
 8006aa0:	f7ff ff12 	bl	80068c8 <__i2b>
 8006aa4:	2300      	movs	r3, #0
 8006aa6:	f8c8 0008 	str.w	r0, [r8, #8]
 8006aaa:	4604      	mov	r4, r0
 8006aac:	6003      	str	r3, [r0, #0]
 8006aae:	f04f 0900 	mov.w	r9, #0
 8006ab2:	07eb      	lsls	r3, r5, #31
 8006ab4:	d50a      	bpl.n	8006acc <__pow5mult+0x84>
 8006ab6:	4639      	mov	r1, r7
 8006ab8:	4622      	mov	r2, r4
 8006aba:	4630      	mov	r0, r6
 8006abc:	f7ff ff1a 	bl	80068f4 <__multiply>
 8006ac0:	4639      	mov	r1, r7
 8006ac2:	4680      	mov	r8, r0
 8006ac4:	4630      	mov	r0, r6
 8006ac6:	f7ff fe47 	bl	8006758 <_Bfree>
 8006aca:	4647      	mov	r7, r8
 8006acc:	106d      	asrs	r5, r5, #1
 8006ace:	d00b      	beq.n	8006ae8 <__pow5mult+0xa0>
 8006ad0:	6820      	ldr	r0, [r4, #0]
 8006ad2:	b938      	cbnz	r0, 8006ae4 <__pow5mult+0x9c>
 8006ad4:	4622      	mov	r2, r4
 8006ad6:	4621      	mov	r1, r4
 8006ad8:	4630      	mov	r0, r6
 8006ada:	f7ff ff0b 	bl	80068f4 <__multiply>
 8006ade:	6020      	str	r0, [r4, #0]
 8006ae0:	f8c0 9000 	str.w	r9, [r0]
 8006ae4:	4604      	mov	r4, r0
 8006ae6:	e7e4      	b.n	8006ab2 <__pow5mult+0x6a>
 8006ae8:	4638      	mov	r0, r7
 8006aea:	e8bd 83f8 	ldmia.w	sp!, {r3, r4, r5, r6, r7, r8, r9, pc}
 8006aee:	bf00      	nop
 8006af0:	080079e0 	.word	0x080079e0
 8006af4:	080077ad 	.word	0x080077ad
 8006af8:	08007890 	.word	0x08007890

08006afc <__lshift>:
 8006afc:	e92d 47f0 	stmdb	sp!, {r4, r5, r6, r7, r8, r9, sl, lr}
 8006b00:	460c      	mov	r4, r1
 8006b02:	6849      	ldr	r1, [r1, #4]
 8006b04:	6923      	ldr	r3, [r4, #16]
 8006b06:	eb03 1862 	add.w	r8, r3, r2, asr #5
 8006b0a:	68a3      	ldr	r3, [r4, #8]
 8006b0c:	4607      	mov	r7, r0
 8006b0e:	4691      	mov	r9, r2
 8006b10:	ea4f 1a62 	mov.w	sl, r2, asr #5
 8006b14:	f108 0601 	add.w	r6, r8, #1
 8006b18:	42b3      	cmp	r3, r6
 8006b1a:	db0b      	blt.n	8006b34 <__lshift+0x38>
 8006b1c:	4638      	mov	r0, r7
 8006b1e:	f7ff fddb 	bl	80066d8 <_Balloc>
 8006b22:	4605      	mov	r5, r0
 8006b24:	b948      	cbnz	r0, 8006b3a <__lshift+0x3e>
 8006b26:	4602      	mov	r2, r0
 8006b28:	4b2a      	ldr	r3, [pc, #168]	; (8006bd4 <__lshift+0xd8>)
 8006b2a:	482b      	ldr	r0, [pc, #172]	; (8006bd8 <__lshift+0xdc>)
 8006b2c:	f240 11d9 	movw	r1, #473	; 0x1d9
 8006b30:	f000 fccc 	bl	80074cc <__assert_func>
 8006b34:	3101      	adds	r1, #1
 8006b36:	005b      	lsls	r3, r3, #1
 8006b38:	e7ee      	b.n	8006b18 <__lshift+0x1c>
 8006b3a:	2300      	movs	r3, #0
 8006b3c:	f100 0114 	add.w	r1, r0, #20
 8006b40:	f100 0210 	add.w	r2, r0, #16
 8006b44:	4618      	mov	r0, r3
 8006b46:	4553      	cmp	r3, sl
 8006b48:	db37      	blt.n	8006bba <__lshift+0xbe>
 8006b4a:	6920      	ldr	r0, [r4, #16]
 8006b4c:	ea2a 7aea 	bic.w	sl, sl, sl, asr #31
 8006b50:	f104 0314 	add.w	r3, r4, #20
 8006b54:	f019 091f 	ands.w	r9, r9, #31
 8006b58:	eb01 018a 	add.w	r1, r1, sl, lsl #2
 8006b5c:	eb03 0080 	add.w	r0, r3, r0, lsl #2
 8006b60:	d02f      	beq.n	8006bc2 <__lshift+0xc6>
 8006b62:	f1c9 0e20 	rsb	lr, r9, #32
 8006b66:	468a      	mov	sl, r1
 8006b68:	f04f 0c00 	mov.w	ip, #0
 8006b6c:	681a      	ldr	r2, [r3, #0]
 8006b6e:	fa02 f209 	lsl.w	r2, r2, r9
 8006b72:	ea42 020c 	orr.w	r2, r2, ip
 8006b76:	f84a 2b04 	str.w	r2, [sl], #4
 8006b7a:	f853 2b04 	ldr.w	r2, [r3], #4
 8006b7e:	4298      	cmp	r0, r3
 8006b80:	fa22 fc0e 	lsr.w	ip, r2, lr
 8006b84:	d8f2      	bhi.n	8006b6c <__lshift+0x70>
 8006b86:	1b03      	subs	r3, r0, r4
 8006b88:	3b15      	subs	r3, #21
 8006b8a:	f023 0303 	bic.w	r3, r3, #3
 8006b8e:	3304      	adds	r3, #4
 8006b90:	f104 0215 	add.w	r2, r4, #21
 8006b94:	4290      	cmp	r0, r2
 8006b96:	bf38      	it	cc
 8006b98:	2304      	movcc	r3, #4
 8006b9a:	f841 c003 	str.w	ip, [r1, r3]
 8006b9e:	f1bc 0f00 	cmp.w	ip, #0
 8006ba2:	d001      	beq.n	8006ba8 <__lshift+0xac>
 8006ba4:	f108 0602 	add.w	r6, r8, #2
 8006ba8:	3e01      	subs	r6, #1
 8006baa:	4638      	mov	r0, r7
 8006bac:	612e      	str	r6, [r5, #16]
 8006bae:	4621      	mov	r1, r4
 8006bb0:	f7ff fdd2 	bl	8006758 <_Bfree>
 8006bb4:	4628      	mov	r0, r5
 8006bb6:	e8bd 87f0 	ldmia.w	sp!, {r4, r5, r6, r7, r8, r9, sl, pc}
 8006bba:	f842 0f04 	str.w	r0, [r2, #4]!
 8006bbe:	3301      	adds	r3, #1
 8006bc0:	e7c1      	b.n	8006b46 <__lshift+0x4a>
 8006bc2:	3904      	subs	r1, #4
 8006bc4:	f853 2b04 	ldr.w	r2, [r3], #4
 8006bc8:	f841 2f04 	str.w	r2, [r1, #4]!
 8006bcc:	4298      	cmp	r0, r3
 8006bce:	d8f9      	bhi.n	8006bc4 <__lshift+0xc8>
 8006bd0:	e7ea      	b.n	8006ba8 <__lshift+0xac>
 8006bd2:	bf00      	nop
 8006bd4:	0800781f 	.word	0x0800781f
 8006bd8:	08007890 	.word	0x08007890

08006bdc <__mcmp>:
 8006bdc:	b530      	push	{r4, r5, lr}
 8006bde:	6902      	ldr	r2, [r0, #16]
 8006be0:	690c      	ldr	r4, [r1, #16]
 8006be2:	1b12      	subs	r2, r2, r4
 8006be4:	d10e      	bne.n	8006c04 <__mcmp+0x28>
 8006be6:	f100 0314 	add.w	r3, r0, #20
 8006bea:	3114      	adds	r1, #20
 8006bec:	eb03 0084 	add.w	r0, r3, r4, lsl #2
 8006bf0:	eb01 0184 	add.w	r1, r1, r4, lsl #2
 8006bf4:	f850 5d04 	ldr.w	r5, [r0, #-4]!
 8006bf8:	f851 4d04 	ldr.w	r4, [r1, #-4]!
 8006bfc:	42a5      	cmp	r5, r4
 8006bfe:	d003      	beq.n	8006c08 <__mcmp+0x2c>
 8006c00:	d305      	bcc.n	8006c0e <__mcmp+0x32>
 8006c02:	2201      	movs	r2, #1
 8006c04:	4610      	mov	r0, r2
 8006c06:	bd30      	pop	{r4, r5, pc}
 8006c08:	4283      	cmp	r3, r0
 8006c0a:	d3f3      	bcc.n	8006bf4 <__mcmp+0x18>
 8006c0c:	e7fa      	b.n	8006c04 <__mcmp+0x28>
 8006c0e:	f04f 32ff 	mov.w	r2, #4294967295
 8006c12:	e7f7      	b.n	8006c04 <__mcmp+0x28>

08006c14 <__mdiff>:
 8006c14:	e92d 4ff8 	stmdb	sp!, {r3, r4, r5, r6, r7, r8, r9, sl, fp, lr}
 8006c18:	460c      	mov	r4, r1
 8006c1a:	4606      	mov	r6, r0
 8006c1c:	4611      	mov	r1, r2
 8006c1e:	4620      	mov	r0, r4
 8006c20:	4690      	mov	r8, r2
 8006c22:	f7ff ffdb 	bl	8006bdc <__mcmp>
 8006c26:	1e05      	subs	r5, r0, #0
 8006c28:	d110      	bne.n	8006c4c <__mdiff+0x38>
 8006c2a:	4629      	mov	r1, r5
 8006c2c:	4630      	mov	r0, r6
 8006c2e:	f7ff fd53 	bl	80066d8 <_Balloc>
 8006c32:	b930      	cbnz	r0, 8006c42 <__mdiff+0x2e>
 8006c34:	4b3a      	ldr	r3, [pc, #232]	; (8006d20 <__mdiff+0x10c>)
 8006c36:	4602      	mov	r2, r0
 8006c38:	f240 2132 	movw	r1, #562	; 0x232
 8006c3c:	4839      	ldr	r0, [pc, #228]	; (8006d24 <__mdiff+0x110>)
 8006c3e:	f000 fc45 	bl	80074cc <__assert_func>
 8006c42:	2301      	movs	r3, #1
 8006c44:	e9c0 3504 	strd	r3, r5, [r0, #16]
 8006c48:	e8bd 8ff8 	ldmia.w	sp!, {r3, r4, r5, r6, r7, r8, r9, sl, fp, pc}
 8006c4c:	bfa4      	itt	ge
 8006c4e:	4643      	movge	r3, r8
 8006c50:	46a0      	movge	r8, r4
 8006c52:	4630      	mov	r0, r6
 8006c54:	f8d8 1004 	ldr.w	r1, [r8, #4]
 8006c58:	bfa6      	itte	ge
 8006c5a:	461c      	movge	r4, r3
 8006c5c:	2500      	movge	r5, #0
 8006c5e:	2501      	movlt	r5, #1
 8006c60:	f7ff fd3a 	bl	80066d8 <_Balloc>
 8006c64:	b920      	cbnz	r0, 8006c70 <__mdiff+0x5c>
 8006c66:	4b2e      	ldr	r3, [pc, #184]	; (8006d20 <__mdiff+0x10c>)
 8006c68:	4602      	mov	r2, r0
 8006c6a:	f44f 7110 	mov.w	r1, #576	; 0x240
 8006c6e:	e7e5      	b.n	8006c3c <__mdiff+0x28>
 8006c70:	f8d8 7010 	ldr.w	r7, [r8, #16]
 8006c74:	6926      	ldr	r6, [r4, #16]
 8006c76:	60c5      	str	r5, [r0, #12]
 8006c78:	f104 0914 	add.w	r9, r4, #20
 8006c7c:	f108 0514 	add.w	r5, r8, #20
 8006c80:	f100 0e14 	add.w	lr, r0, #20
 8006c84:	eb05 0c87 	add.w	ip, r5, r7, lsl #2
 8006c88:	eb09 0686 	add.w	r6, r9, r6, lsl #2
 8006c8c:	f108 0210 	add.w	r2, r8, #16
 8006c90:	46f2      	mov	sl, lr
 8006c92:	2100      	movs	r1, #0
 8006c94:	f859 3b04 	ldr.w	r3, [r9], #4
 8006c98:	f852 bf04 	ldr.w	fp, [r2, #4]!
 8006c9c:	fa1f f883 	uxth.w	r8, r3
 8006ca0:	fa11 f18b 	uxtah	r1, r1, fp
 8006ca4:	0c1b      	lsrs	r3, r3, #16
 8006ca6:	eba1 0808 	sub.w	r8, r1, r8
 8006caa:	ebc3 431b 	rsb	r3, r3, fp, lsr #16
 8006cae:	eb03 4328 	add.w	r3, r3, r8, asr #16
 8006cb2:	fa1f f888 	uxth.w	r8, r8
 8006cb6:	1419      	asrs	r1, r3, #16
 8006cb8:	454e      	cmp	r6, r9
 8006cba:	ea48 4303 	orr.w	r3, r8, r3, lsl #16
 8006cbe:	f84a 3b04 	str.w	r3, [sl], #4
 8006cc2:	d8e7      	bhi.n	8006c94 <__mdiff+0x80>
 8006cc4:	1b33      	subs	r3, r6, r4
 8006cc6:	3b15      	subs	r3, #21
 8006cc8:	f023 0303 	bic.w	r3, r3, #3
 8006ccc:	3304      	adds	r3, #4
 8006cce:	3415      	adds	r4, #21
 8006cd0:	42a6      	cmp	r6, r4
 8006cd2:	bf38      	it	cc
 8006cd4:	2304      	movcc	r3, #4
 8006cd6:	441d      	add	r5, r3
 8006cd8:	4473      	add	r3, lr
 8006cda:	469e      	mov	lr, r3
 8006cdc:	462e      	mov	r6, r5
 8006cde:	4566      	cmp	r6, ip
 8006ce0:	d30e      	bcc.n	8006d00 <__mdiff+0xec>
 8006ce2:	f10c 0203 	add.w	r2, ip, #3
 8006ce6:	1b52      	subs	r2, r2, r5
 8006ce8:	f022 0203 	bic.w	r2, r2, #3
 8006cec:	3d03      	subs	r5, #3
 8006cee:	45ac      	cmp	ip, r5
 8006cf0:	bf38      	it	cc
 8006cf2:	2200      	movcc	r2, #0
 8006cf4:	441a      	add	r2, r3
 8006cf6:	f852 3d04 	ldr.w	r3, [r2, #-4]!
 8006cfa:	b17b      	cbz	r3, 8006d1c <__mdiff+0x108>
 8006cfc:	6107      	str	r7, [r0, #16]
 8006cfe:	e7a3      	b.n	8006c48 <__mdiff+0x34>
 8006d00:	f856 8b04 	ldr.w	r8, [r6], #4
 8006d04:	fa11 f288 	uxtah	r2, r1, r8
 8006d08:	1414      	asrs	r4, r2, #16
 8006d0a:	eb04 4418 	add.w	r4, r4, r8, lsr #16
 8006d0e:	b292      	uxth	r2, r2
 8006d10:	ea42 4204 	orr.w	r2, r2, r4, lsl #16
 8006d14:	f84e 2b04 	str.w	r2, [lr], #4
 8006d18:	1421      	asrs	r1, r4, #16
 8006d1a:	e7e0      	b.n	8006cde <__mdiff+0xca>
 8006d1c:	3f01      	subs	r7, #1
 8006d1e:	e7ea      	b.n	8006cf6 <__mdiff+0xe2>
 8006d20:	0800781f 	.word	0x0800781f
 8006d24:	08007890 	.word	0x08007890

08006d28 <__d2b>:
 8006d28:	e92d 43f7 	stmdb	sp!, {r0, r1, r2, r4, r5, r6, r7, r8, r9, lr}
 8006d2c:	4689      	mov	r9, r1
 8006d2e:	2101      	movs	r1, #1
 8006d30:	ec57 6b10 	vmov	r6, r7, d0
 8006d34:	4690      	mov	r8, r2
 8006d36:	f7ff fccf 	bl	80066d8 <_Balloc>
 8006d3a:	4604      	mov	r4, r0
 8006d3c:	b930      	cbnz	r0, 8006d4c <__d2b+0x24>
 8006d3e:	4602      	mov	r2, r0
 8006d40:	4b25      	ldr	r3, [pc, #148]	; (8006dd8 <__d2b+0xb0>)
 8006d42:	4826      	ldr	r0, [pc, #152]	; (8006ddc <__d2b+0xb4>)
 8006d44:	f240 310a 	movw	r1, #778	; 0x30a
 8006d48:	f000 fbc0 	bl	80074cc <__assert_func>
 8006d4c:	f3c7 550a 	ubfx	r5, r7, #20, #11
 8006d50:	f3c7 0313 	ubfx	r3, r7, #0, #20
 8006d54:	bb35      	cbnz	r5, 8006da4 <__d2b+0x7c>
 8006d56:	2e00      	cmp	r6, #0
 8006d58:	9301      	str	r3, [sp, #4]
 8006d5a:	d028      	beq.n	8006dae <__d2b+0x86>
 8006d5c:	4668      	mov	r0, sp
 8006d5e:	9600      	str	r6, [sp, #0]
 8006d60:	f7ff fd82 	bl	8006868 <__lo0bits>
 8006d64:	9900      	ldr	r1, [sp, #0]
 8006d66:	b300      	cbz	r0, 8006daa <__d2b+0x82>
 8006d68:	9a01      	ldr	r2, [sp, #4]
 8006d6a:	f1c0 0320 	rsb	r3, r0, #32
 8006d6e:	fa02 f303 	lsl.w	r3, r2, r3
 8006d72:	430b      	orrs	r3, r1
 8006d74:	40c2      	lsrs	r2, r0
 8006d76:	6163      	str	r3, [r4, #20]
 8006d78:	9201      	str	r2, [sp, #4]
 8006d7a:	9b01      	ldr	r3, [sp, #4]
 8006d7c:	61a3      	str	r3, [r4, #24]
 8006d7e:	2b00      	cmp	r3, #0
 8006d80:	bf14      	ite	ne
 8006d82:	2202      	movne	r2, #2
 8006d84:	2201      	moveq	r2, #1
 8006d86:	6122      	str	r2, [r4, #16]
 8006d88:	b1d5      	cbz	r5, 8006dc0 <__d2b+0x98>
 8006d8a:	f2a5 4533 	subw	r5, r5, #1075	; 0x433
 8006d8e:	4405      	add	r5, r0
 8006d90:	f8c9 5000 	str.w	r5, [r9]
 8006d94:	f1c0 0035 	rsb	r0, r0, #53	; 0x35
 8006d98:	f8c8 0000 	str.w	r0, [r8]
 8006d9c:	4620      	mov	r0, r4
 8006d9e:	b003      	add	sp, #12
 8006da0:	e8bd 83f0 	ldmia.w	sp!, {r4, r5, r6, r7, r8, r9, pc}
 8006da4:	f443 1380 	orr.w	r3, r3, #1048576	; 0x100000
 8006da8:	e7d5      	b.n	8006d56 <__d2b+0x2e>
 8006daa:	6161      	str	r1, [r4, #20]
 8006dac:	e7e5      	b.n	8006d7a <__d2b+0x52>
 8006dae:	a801      	add	r0, sp, #4
 8006db0:	f7ff fd5a 	bl	8006868 <__lo0bits>
 8006db4:	9b01      	ldr	r3, [sp, #4]
 8006db6:	6163      	str	r3, [r4, #20]
 8006db8:	2201      	movs	r2, #1
 8006dba:	6122      	str	r2, [r4, #16]
 8006dbc:	3020      	adds	r0, #32
 8006dbe:	e7e3      	b.n	8006d88 <__d2b+0x60>
 8006dc0:	eb04 0382 	add.w	r3, r4, r2, lsl #2
 8006dc4:	f2a0 4032 	subw	r0, r0, #1074	; 0x432
 8006dc8:	f8c9 0000 	str.w	r0, [r9]
 8006dcc:	6918      	ldr	r0, [r3, #16]
 8006dce:	f7ff fd2b 	bl	8006828 <__hi0bits>
 8006dd2:	ebc0 1042 	rsb	r0, r0, r2, lsl #5
 8006dd6:	e7df      	b.n	8006d98 <__d2b+0x70>
 8006dd8:	0800781f 	.word	0x0800781f
 8006ddc:	08007890 	.word	0x08007890

08006de0 <_calloc_r>:
 8006de0:	b537      	push	{r0, r1, r2, r4, r5, lr}
 8006de2:	fba1 2402 	umull	r2, r4, r1, r2
 8006de6:	b94c      	cbnz	r4, 8006dfc <_calloc_r+0x1c>
 8006de8:	4611      	mov	r1, r2
 8006dea:	9201      	str	r2, [sp, #4]
 8006dec:	f000 f87a 	bl	8006ee4 <_malloc_r>
 8006df0:	9a01      	ldr	r2, [sp, #4]
 8006df2:	4605      	mov	r5, r0
 8006df4:	b930      	cbnz	r0, 8006e04 <_calloc_r+0x24>
 8006df6:	4628      	mov	r0, r5
 8006df8:	b003      	add	sp, #12
 8006dfa:	bd30      	pop	{r4, r5, pc}
 8006dfc:	220c      	movs	r2, #12
 8006dfe:	6002      	str	r2, [r0, #0]
 8006e00:	2500      	movs	r5, #0
 8006e02:	e7f8      	b.n	8006df6 <_calloc_r+0x16>
 8006e04:	4621      	mov	r1, r4
 8006e06:	f7fd fe59 	bl	8004abc <memset>
 8006e0a:	e7f4      	b.n	8006df6 <_calloc_r+0x16>

08006e0c <_free_r>:
 8006e0c:	b537      	push	{r0, r1, r2, r4, r5, lr}
 8006e0e:	2900      	cmp	r1, #0
 8006e10:	d044      	beq.n	8006e9c <_free_r+0x90>
 8006e12:	f851 3c04 	ldr.w	r3, [r1, #-4]
 8006e16:	9001      	str	r0, [sp, #4]
 8006e18:	2b00      	cmp	r3, #0
 8006e1a:	f1a1 0404 	sub.w	r4, r1, #4
 8006e1e:	bfb8      	it	lt
 8006e20:	18e4      	addlt	r4, r4, r3
 8006e22:	f000 fbd9 	bl	80075d8 <__malloc_lock>
 8006e26:	4a1e      	ldr	r2, [pc, #120]	; (8006ea0 <_free_r+0x94>)
 8006e28:	9801      	ldr	r0, [sp, #4]
 8006e2a:	6813      	ldr	r3, [r2, #0]
 8006e2c:	b933      	cbnz	r3, 8006e3c <_free_r+0x30>
 8006e2e:	6063      	str	r3, [r4, #4]
 8006e30:	6014      	str	r4, [r2, #0]
 8006e32:	b003      	add	sp, #12
 8006e34:	e8bd 4030 	ldmia.w	sp!, {r4, r5, lr}
 8006e38:	f000 bbd4 	b.w	80075e4 <__malloc_unlock>
 8006e3c:	42a3      	cmp	r3, r4
 8006e3e:	d908      	bls.n	8006e52 <_free_r+0x46>
 8006e40:	6825      	ldr	r5, [r4, #0]
 8006e42:	1961      	adds	r1, r4, r5
 8006e44:	428b      	cmp	r3, r1
 8006e46:	bf01      	itttt	eq
 8006e48:	6819      	ldreq	r1, [r3, #0]
 8006e4a:	685b      	ldreq	r3, [r3, #4]
 8006e4c:	1949      	addeq	r1, r1, r5
 8006e4e:	6021      	streq	r1, [r4, #0]
 8006e50:	e7ed      	b.n	8006e2e <_free_r+0x22>
 8006e52:	461a      	mov	r2, r3
 8006e54:	685b      	ldr	r3, [r3, #4]
 8006e56:	b10b      	cbz	r3, 8006e5c <_free_r+0x50>
 8006e58:	42a3      	cmp	r3, r4
 8006e5a:	d9fa      	bls.n	8006e52 <_free_r+0x46>
 8006e5c:	6811      	ldr	r1, [r2, #0]
 8006e5e:	1855      	adds	r5, r2, r1
 8006e60:	42a5      	cmp	r5, r4
 8006e62:	d10b      	bne.n	8006e7c <_free_r+0x70>
 8006e64:	6824      	ldr	r4, [r4, #0]
 8006e66:	4421      	add	r1, r4
 8006e68:	1854      	adds	r4, r2, r1
 8006e6a:	42a3      	cmp	r3, r4
 8006e6c:	6011      	str	r1, [r2, #0]
 8006e6e:	d1e0      	bne.n	8006e32 <_free_r+0x26>
 8006e70:	681c      	ldr	r4, [r3, #0]
 8006e72:	685b      	ldr	r3, [r3, #4]
 8006e74:	6053      	str	r3, [r2, #4]
 8006e76:	4421      	add	r1, r4
 8006e78:	6011      	str	r1, [r2, #0]
 8006e7a:	e7da      	b.n	8006e32 <_free_r+0x26>
 8006e7c:	d902      	bls.n	8006e84 <_free_r+0x78>
 8006e7e:	230c      	movs	r3, #12
 8006e80:	6003      	str	r3, [r0, #0]
 8006e82:	e7d6      	b.n	8006e32 <_free_r+0x26>
 8006e84:	6825      	ldr	r5, [r4, #0]
 8006e86:	1961      	adds	r1, r4, r5
 8006e88:	428b      	cmp	r3, r1
 8006e8a:	bf04      	itt	eq
 8006e8c:	6819      	ldreq	r1, [r3, #0]
 8006e8e:	685b      	ldreq	r3, [r3, #4]
 8006e90:	6063      	str	r3, [r4, #4]
 8006e92:	bf04      	itt	eq
 8006e94:	1949      	addeq	r1, r1, r5
 8006e96:	6021      	streq	r1, [r4, #0]
 8006e98:	6054      	str	r4, [r2, #4]
 8006e9a:	e7ca      	b.n	8006e32 <_free_r+0x26>
 8006e9c:	b003      	add	sp, #12
 8006e9e:	bd30      	pop	{r4, r5, pc}
 8006ea0:	200005b8 	.word	0x200005b8

08006ea4 <sbrk_aligned>:
 8006ea4:	b570      	push	{r4, r5, r6, lr}
 8006ea6:	4e0e      	ldr	r6, [pc, #56]	; (8006ee0 <sbrk_aligned+0x3c>)
 8006ea8:	460c      	mov	r4, r1
 8006eaa:	6831      	ldr	r1, [r6, #0]
 8006eac:	4605      	mov	r5, r0
 8006eae:	b911      	cbnz	r1, 8006eb6 <sbrk_aligned+0x12>
 8006eb0:	f000 f9e6 	bl	8007280 <_sbrk_r>
 8006eb4:	6030      	str	r0, [r6, #0]
 8006eb6:	4621      	mov	r1, r4
 8006eb8:	4628      	mov	r0, r5
 8006eba:	f000 f9e1 	bl	8007280 <_sbrk_r>
 8006ebe:	1c43      	adds	r3, r0, #1
 8006ec0:	d00a      	beq.n	8006ed8 <sbrk_aligned+0x34>
 8006ec2:	1cc4      	adds	r4, r0, #3
 8006ec4:	f024 0403 	bic.w	r4, r4, #3
 8006ec8:	42a0      	cmp	r0, r4
 8006eca:	d007      	beq.n	8006edc <sbrk_aligned+0x38>
 8006ecc:	1a21      	subs	r1, r4, r0
 8006ece:	4628      	mov	r0, r5
 8006ed0:	f000 f9d6 	bl	8007280 <_sbrk_r>
 8006ed4:	3001      	adds	r0, #1
 8006ed6:	d101      	bne.n	8006edc <sbrk_aligned+0x38>
 8006ed8:	f04f 34ff 	mov.w	r4, #4294967295
 8006edc:	4620      	mov	r0, r4
 8006ede:	bd70      	pop	{r4, r5, r6, pc}
 8006ee0:	200005bc 	.word	0x200005bc

08006ee4 <_malloc_r>:
 8006ee4:	e92d 41f0 	stmdb	sp!, {r4, r5, r6, r7, r8, lr}
 8006ee8:	1ccd      	adds	r5, r1, #3
 8006eea:	f025 0503 	bic.w	r5, r5, #3
 8006eee:	3508      	adds	r5, #8
 8006ef0:	2d0c      	cmp	r5, #12
 8006ef2:	bf38      	it	cc
 8006ef4:	250c      	movcc	r5, #12
 8006ef6:	2d00      	cmp	r5, #0
 8006ef8:	4607      	mov	r7, r0
 8006efa:	db01      	blt.n	8006f00 <_malloc_r+0x1c>
 8006efc:	42a9      	cmp	r1, r5
 8006efe:	d905      	bls.n	8006f0c <_malloc_r+0x28>
 8006f00:	230c      	movs	r3, #12
 8006f02:	603b      	str	r3, [r7, #0]
 8006f04:	2600      	movs	r6, #0
 8006f06:	4630      	mov	r0, r6
 8006f08:	e8bd 81f0 	ldmia.w	sp!, {r4, r5, r6, r7, r8, pc}
 8006f0c:	4e2e      	ldr	r6, [pc, #184]	; (8006fc8 <_malloc_r+0xe4>)
 8006f0e:	f000 fb63 	bl	80075d8 <__malloc_lock>
 8006f12:	6833      	ldr	r3, [r6, #0]
 8006f14:	461c      	mov	r4, r3
 8006f16:	bb34      	cbnz	r4, 8006f66 <_malloc_r+0x82>
 8006f18:	4629      	mov	r1, r5
 8006f1a:	4638      	mov	r0, r7
 8006f1c:	f7ff ffc2 	bl	8006ea4 <sbrk_aligned>
 8006f20:	1c43      	adds	r3, r0, #1
 8006f22:	4604      	mov	r4, r0
 8006f24:	d14d      	bne.n	8006fc2 <_malloc_r+0xde>
 8006f26:	6834      	ldr	r4, [r6, #0]
 8006f28:	4626      	mov	r6, r4
 8006f2a:	2e00      	cmp	r6, #0
 8006f2c:	d140      	bne.n	8006fb0 <_malloc_r+0xcc>
 8006f2e:	6823      	ldr	r3, [r4, #0]
 8006f30:	4631      	mov	r1, r6
 8006f32:	4638      	mov	r0, r7
 8006f34:	eb04 0803 	add.w	r8, r4, r3
 8006f38:	f000 f9a2 	bl	8007280 <_sbrk_r>
 8006f3c:	4580      	cmp	r8, r0
 8006f3e:	d13a      	bne.n	8006fb6 <_malloc_r+0xd2>
 8006f40:	6821      	ldr	r1, [r4, #0]
 8006f42:	3503      	adds	r5, #3
 8006f44:	1a6d      	subs	r5, r5, r1
 8006f46:	f025 0503 	bic.w	r5, r5, #3
 8006f4a:	3508      	adds	r5, #8
 8006f4c:	2d0c      	cmp	r5, #12
 8006f4e:	bf38      	it	cc
 8006f50:	250c      	movcc	r5, #12
 8006f52:	4629      	mov	r1, r5
 8006f54:	4638      	mov	r0, r7
 8006f56:	f7ff ffa5 	bl	8006ea4 <sbrk_aligned>
 8006f5a:	3001      	adds	r0, #1
 8006f5c:	d02b      	beq.n	8006fb6 <_malloc_r+0xd2>
 8006f5e:	6823      	ldr	r3, [r4, #0]
 8006f60:	442b      	add	r3, r5
 8006f62:	6023      	str	r3, [r4, #0]
 8006f64:	e00e      	b.n	8006f84 <_malloc_r+0xa0>
 8006f66:	6822      	ldr	r2, [r4, #0]
 8006f68:	1b52      	subs	r2, r2, r5
 8006f6a:	d41e      	bmi.n	8006faa <_malloc_r+0xc6>
 8006f6c:	2a0b      	cmp	r2, #11
 8006f6e:	d916      	bls.n	8006f9e <_malloc_r+0xba>
 8006f70:	1961      	adds	r1, r4, r5
 8006f72:	42a3      	cmp	r3, r4
 8006f74:	6025      	str	r5, [r4, #0]
 8006f76:	bf18      	it	ne
 8006f78:	6059      	strne	r1, [r3, #4]
 8006f7a:	6863      	ldr	r3, [r4, #4]
 8006f7c:	bf08      	it	eq
 8006f7e:	6031      	streq	r1, [r6, #0]
 8006f80:	5162      	str	r2, [r4, r5]
 8006f82:	604b      	str	r3, [r1, #4]
 8006f84:	4638      	mov	r0, r7
 8006f86:	f104 060b 	add.w	r6, r4, #11
 8006f8a:	f000 fb2b 	bl	80075e4 <__malloc_unlock>
 8006f8e:	f026 0607 	bic.w	r6, r6, #7
 8006f92:	1d23      	adds	r3, r4, #4
 8006f94:	1af2      	subs	r2, r6, r3
 8006f96:	d0b6      	beq.n	8006f06 <_malloc_r+0x22>
 8006f98:	1b9b      	subs	r3, r3, r6
 8006f9a:	50a3      	str	r3, [r4, r2]
 8006f9c:	e7b3      	b.n	8006f06 <_malloc_r+0x22>
 8006f9e:	6862      	ldr	r2, [r4, #4]
 8006fa0:	42a3      	cmp	r3, r4
 8006fa2:	bf0c      	ite	eq
 8006fa4:	6032      	streq	r2, [r6, #0]
 8006fa6:	605a      	strne	r2, [r3, #4]
 8006fa8:	e7ec      	b.n	8006f84 <_malloc_r+0xa0>
 8006faa:	4623      	mov	r3, r4
 8006fac:	6864      	ldr	r4, [r4, #4]
 8006fae:	e7b2      	b.n	8006f16 <_malloc_r+0x32>
 8006fb0:	4634      	mov	r4, r6
 8006fb2:	6876      	ldr	r6, [r6, #4]
 8006fb4:	e7b9      	b.n	8006f2a <_malloc_r+0x46>
 8006fb6:	230c      	movs	r3, #12
 8006fb8:	603b      	str	r3, [r7, #0]
 8006fba:	4638      	mov	r0, r7
 8006fbc:	f000 fb12 	bl	80075e4 <__malloc_unlock>
 8006fc0:	e7a1      	b.n	8006f06 <_malloc_r+0x22>
 8006fc2:	6025      	str	r5, [r4, #0]
 8006fc4:	e7de      	b.n	8006f84 <_malloc_r+0xa0>
 8006fc6:	bf00      	nop
 8006fc8:	200005b8 	.word	0x200005b8

08006fcc <__sfputc_r>:
 8006fcc:	6893      	ldr	r3, [r2, #8]
 8006fce:	3b01      	subs	r3, #1
 8006fd0:	2b00      	cmp	r3, #0
 8006fd2:	b410      	push	{r4}
 8006fd4:	6093      	str	r3, [r2, #8]
 8006fd6:	da08      	bge.n	8006fea <__sfputc_r+0x1e>
 8006fd8:	6994      	ldr	r4, [r2, #24]
 8006fda:	42a3      	cmp	r3, r4
 8006fdc:	db01      	blt.n	8006fe2 <__sfputc_r+0x16>
 8006fde:	290a      	cmp	r1, #10
 8006fe0:	d103      	bne.n	8006fea <__sfputc_r+0x1e>
 8006fe2:	f85d 4b04 	ldr.w	r4, [sp], #4
 8006fe6:	f000 b99f 	b.w	8007328 <__swbuf_r>
 8006fea:	6813      	ldr	r3, [r2, #0]
 8006fec:	1c58      	adds	r0, r3, #1
 8006fee:	6010      	str	r0, [r2, #0]
 8006ff0:	7019      	strb	r1, [r3, #0]
 8006ff2:	4608      	mov	r0, r1
 8006ff4:	f85d 4b04 	ldr.w	r4, [sp], #4
 8006ff8:	4770      	bx	lr

08006ffa <__sfputs_r>:
 8006ffa:	b5f8      	push	{r3, r4, r5, r6, r7, lr}
 8006ffc:	4606      	mov	r6, r0
 8006ffe:	460f      	mov	r7, r1
 8007000:	4614      	mov	r4, r2
 8007002:	18d5      	adds	r5, r2, r3
 8007004:	42ac      	cmp	r4, r5
 8007006:	d101      	bne.n	800700c <__sfputs_r+0x12>
 8007008:	2000      	movs	r0, #0
 800700a:	e007      	b.n	800701c <__sfputs_r+0x22>
 800700c:	f814 1b01 	ldrb.w	r1, [r4], #1
 8007010:	463a      	mov	r2, r7
 8007012:	4630      	mov	r0, r6
 8007014:	f7ff ffda 	bl	8006fcc <__sfputc_r>
 8007018:	1c43      	adds	r3, r0, #1
 800701a:	d1f3      	bne.n	8007004 <__sfputs_r+0xa>
 800701c:	bdf8      	pop	{r3, r4, r5, r6, r7, pc}
	...

08007020 <_vfiprintf_r>:
 8007020:	e92d 4ff0 	stmdb	sp!, {r4, r5, r6, r7, r8, r9, sl, fp, lr}
 8007024:	460d      	mov	r5, r1
 8007026:	b09d      	sub	sp, #116	; 0x74
 8007028:	4614      	mov	r4, r2
 800702a:	4698      	mov	r8, r3
 800702c:	4606      	mov	r6, r0
 800702e:	b118      	cbz	r0, 8007038 <_vfiprintf_r+0x18>
 8007030:	6983      	ldr	r3, [r0, #24]
 8007032:	b90b      	cbnz	r3, 8007038 <_vfiprintf_r+0x18>
 8007034:	f7ff fa30 	bl	8006498 <__sinit>
 8007038:	4b89      	ldr	r3, [pc, #548]	; (8007260 <_vfiprintf_r+0x240>)
 800703a:	429d      	cmp	r5, r3
 800703c:	d11b      	bne.n	8007076 <_vfiprintf_r+0x56>
 800703e:	6875      	ldr	r5, [r6, #4]
 8007040:	6e6b      	ldr	r3, [r5, #100]	; 0x64
 8007042:	07d9      	lsls	r1, r3, #31
 8007044:	d405      	bmi.n	8007052 <_vfiprintf_r+0x32>
 8007046:	89ab      	ldrh	r3, [r5, #12]
 8007048:	059a      	lsls	r2, r3, #22
 800704a:	d402      	bmi.n	8007052 <_vfiprintf_r+0x32>
 800704c:	6da8      	ldr	r0, [r5, #88]	; 0x58
 800704e:	f7ff fac6 	bl	80065de <__retarget_lock_acquire_recursive>
 8007052:	89ab      	ldrh	r3, [r5, #12]
 8007054:	071b      	lsls	r3, r3, #28
 8007056:	d501      	bpl.n	800705c <_vfiprintf_r+0x3c>
 8007058:	692b      	ldr	r3, [r5, #16]
 800705a:	b9eb      	cbnz	r3, 8007098 <_vfiprintf_r+0x78>
 800705c:	4629      	mov	r1, r5
 800705e:	4630      	mov	r0, r6
 8007060:	f000 f9c6 	bl	80073f0 <__swsetup_r>
 8007064:	b1c0      	cbz	r0, 8007098 <_vfiprintf_r+0x78>
 8007066:	6e6b      	ldr	r3, [r5, #100]	; 0x64
 8007068:	07dc      	lsls	r4, r3, #31
 800706a:	d50e      	bpl.n	800708a <_vfiprintf_r+0x6a>
 800706c:	f04f 30ff 	mov.w	r0, #4294967295
 8007070:	b01d      	add	sp, #116	; 0x74
 8007072:	e8bd 8ff0 	ldmia.w	sp!, {r4, r5, r6, r7, r8, r9, sl, fp, pc}
 8007076:	4b7b      	ldr	r3, [pc, #492]	; (8007264 <_vfiprintf_r+0x244>)
 8007078:	429d      	cmp	r5, r3
 800707a:	d101      	bne.n	8007080 <_vfiprintf_r+0x60>
 800707c:	68b5      	ldr	r5, [r6, #8]
 800707e:	e7df      	b.n	8007040 <_vfiprintf_r+0x20>
 8007080:	4b79      	ldr	r3, [pc, #484]	; (8007268 <_vfiprintf_r+0x248>)
 8007082:	429d      	cmp	r5, r3
 8007084:	bf08      	it	eq
 8007086:	68f5      	ldreq	r5, [r6, #12]
 8007088:	e7da      	b.n	8007040 <_vfiprintf_r+0x20>
 800708a:	89ab      	ldrh	r3, [r5, #12]
 800708c:	0598      	lsls	r0, r3, #22
 800708e:	d4ed      	bmi.n	800706c <_vfiprintf_r+0x4c>
 8007090:	6da8      	ldr	r0, [r5, #88]	; 0x58
 8007092:	f7ff faa5 	bl	80065e0 <__retarget_lock_release_recursive>
 8007096:	e7e9      	b.n	800706c <_vfiprintf_r+0x4c>
 8007098:	2300      	movs	r3, #0
 800709a:	9309      	str	r3, [sp, #36]	; 0x24
 800709c:	2320      	movs	r3, #32
 800709e:	f88d 3029 	strb.w	r3, [sp, #41]	; 0x29
 80070a2:	f8cd 800c 	str.w	r8, [sp, #12]
 80070a6:	2330      	movs	r3, #48	; 0x30
 80070a8:	f8df 81c0 	ldr.w	r8, [pc, #448]	; 800726c <_vfiprintf_r+0x24c>
 80070ac:	f88d 302a 	strb.w	r3, [sp, #42]	; 0x2a
 80070b0:	f04f 0901 	mov.w	r9, #1
 80070b4:	4623      	mov	r3, r4
 80070b6:	469a      	mov	sl, r3
 80070b8:	f813 2b01 	ldrb.w	r2, [r3], #1
 80070bc:	b10a      	cbz	r2, 80070c2 <_vfiprintf_r+0xa2>
 80070be:	2a25      	cmp	r2, #37	; 0x25
 80070c0:	d1f9      	bne.n	80070b6 <_vfiprintf_r+0x96>
 80070c2:	ebba 0b04 	subs.w	fp, sl, r4
 80070c6:	d00b      	beq.n	80070e0 <_vfiprintf_r+0xc0>
 80070c8:	465b      	mov	r3, fp
 80070ca:	4622      	mov	r2, r4
 80070cc:	4629      	mov	r1, r5
 80070ce:	4630      	mov	r0, r6
 80070d0:	f7ff ff93 	bl	8006ffa <__sfputs_r>
 80070d4:	3001      	adds	r0, #1
 80070d6:	f000 80aa 	beq.w	800722e <_vfiprintf_r+0x20e>
 80070da:	9a09      	ldr	r2, [sp, #36]	; 0x24
 80070dc:	445a      	add	r2, fp
 80070de:	9209      	str	r2, [sp, #36]	; 0x24
 80070e0:	f89a 3000 	ldrb.w	r3, [sl]
 80070e4:	2b00      	cmp	r3, #0
 80070e6:	f000 80a2 	beq.w	800722e <_vfiprintf_r+0x20e>
 80070ea:	2300      	movs	r3, #0
 80070ec:	f04f 32ff 	mov.w	r2, #4294967295
 80070f0:	e9cd 2305 	strd	r2, r3, [sp, #20]
 80070f4:	f10a 0a01 	add.w	sl, sl, #1
 80070f8:	9304      	str	r3, [sp, #16]
 80070fa:	9307      	str	r3, [sp, #28]
 80070fc:	f88d 3053 	strb.w	r3, [sp, #83]	; 0x53
 8007100:	931a      	str	r3, [sp, #104]	; 0x68
 8007102:	4654      	mov	r4, sl
 8007104:	2205      	movs	r2, #5
 8007106:	f814 1b01 	ldrb.w	r1, [r4], #1
 800710a:	4858      	ldr	r0, [pc, #352]	; (800726c <_vfiprintf_r+0x24c>)
 800710c:	f7f9 f868 	bl	80001e0 <memchr>
 8007110:	9a04      	ldr	r2, [sp, #16]
 8007112:	b9d8      	cbnz	r0, 800714c <_vfiprintf_r+0x12c>
 8007114:	06d1      	lsls	r1, r2, #27
 8007116:	bf44      	itt	mi
 8007118:	2320      	movmi	r3, #32
 800711a:	f88d 3053 	strbmi.w	r3, [sp, #83]	; 0x53
 800711e:	0713      	lsls	r3, r2, #28
 8007120:	bf44      	itt	mi
 8007122:	232b      	movmi	r3, #43	; 0x2b
 8007124:	f88d 3053 	strbmi.w	r3, [sp, #83]	; 0x53
 8007128:	f89a 3000 	ldrb.w	r3, [sl]
 800712c:	2b2a      	cmp	r3, #42	; 0x2a
 800712e:	d015      	beq.n	800715c <_vfiprintf_r+0x13c>
 8007130:	9a07      	ldr	r2, [sp, #28]
 8007132:	4654      	mov	r4, sl
 8007134:	2000      	movs	r0, #0
 8007136:	f04f 0c0a 	mov.w	ip, #10
 800713a:	4621      	mov	r1, r4
 800713c:	f811 3b01 	ldrb.w	r3, [r1], #1
 8007140:	3b30      	subs	r3, #48	; 0x30
 8007142:	2b09      	cmp	r3, #9
 8007144:	d94e      	bls.n	80071e4 <_vfiprintf_r+0x1c4>
 8007146:	b1b0      	cbz	r0, 8007176 <_vfiprintf_r+0x156>
 8007148:	9207      	str	r2, [sp, #28]
 800714a:	e014      	b.n	8007176 <_vfiprintf_r+0x156>
 800714c:	eba0 0308 	sub.w	r3, r0, r8
 8007150:	fa09 f303 	lsl.w	r3, r9, r3
 8007154:	4313      	orrs	r3, r2
 8007156:	9304      	str	r3, [sp, #16]
 8007158:	46a2      	mov	sl, r4
 800715a:	e7d2      	b.n	8007102 <_vfiprintf_r+0xe2>
 800715c:	9b03      	ldr	r3, [sp, #12]
 800715e:	1d19      	adds	r1, r3, #4
 8007160:	681b      	ldr	r3, [r3, #0]
 8007162:	9103      	str	r1, [sp, #12]
 8007164:	2b00      	cmp	r3, #0
 8007166:	bfbb      	ittet	lt
 8007168:	425b      	neglt	r3, r3
 800716a:	f042 0202 	orrlt.w	r2, r2, #2
 800716e:	9307      	strge	r3, [sp, #28]
 8007170:	9307      	strlt	r3, [sp, #28]
 8007172:	bfb8      	it	lt
 8007174:	9204      	strlt	r2, [sp, #16]
 8007176:	7823      	ldrb	r3, [r4, #0]
 8007178:	2b2e      	cmp	r3, #46	; 0x2e
 800717a:	d10c      	bne.n	8007196 <_vfiprintf_r+0x176>
 800717c:	7863      	ldrb	r3, [r4, #1]
 800717e:	2b2a      	cmp	r3, #42	; 0x2a
 8007180:	d135      	bne.n	80071ee <_vfiprintf_r+0x1ce>
 8007182:	9b03      	ldr	r3, [sp, #12]
 8007184:	1d1a      	adds	r2, r3, #4
 8007186:	681b      	ldr	r3, [r3, #0]
 8007188:	9203      	str	r2, [sp, #12]
 800718a:	2b00      	cmp	r3, #0
 800718c:	bfb8      	it	lt
 800718e:	f04f 33ff 	movlt.w	r3, #4294967295
 8007192:	3402      	adds	r4, #2
 8007194:	9305      	str	r3, [sp, #20]
 8007196:	f8df a0e4 	ldr.w	sl, [pc, #228]	; 800727c <_vfiprintf_r+0x25c>
 800719a:	7821      	ldrb	r1, [r4, #0]
 800719c:	2203      	movs	r2, #3
 800719e:	4650      	mov	r0, sl
 80071a0:	f7f9 f81e 	bl	80001e0 <memchr>
 80071a4:	b140      	cbz	r0, 80071b8 <_vfiprintf_r+0x198>
 80071a6:	2340      	movs	r3, #64	; 0x40
 80071a8:	eba0 000a 	sub.w	r0, r0, sl
 80071ac:	fa03 f000 	lsl.w	r0, r3, r0
 80071b0:	9b04      	ldr	r3, [sp, #16]
 80071b2:	4303      	orrs	r3, r0
 80071b4:	3401      	adds	r4, #1
 80071b6:	9304      	str	r3, [sp, #16]
 80071b8:	f814 1b01 	ldrb.w	r1, [r4], #1
 80071bc:	482c      	ldr	r0, [pc, #176]	; (8007270 <_vfiprintf_r+0x250>)
 80071be:	f88d 1028 	strb.w	r1, [sp, #40]	; 0x28
 80071c2:	2206      	movs	r2, #6
 80071c4:	f7f9 f80c 	bl	80001e0 <memchr>
 80071c8:	2800      	cmp	r0, #0
 80071ca:	d03f      	beq.n	800724c <_vfiprintf_r+0x22c>
 80071cc:	4b29      	ldr	r3, [pc, #164]	; (8007274 <_vfiprintf_r+0x254>)
 80071ce:	bb1b      	cbnz	r3, 8007218 <_vfiprintf_r+0x1f8>
 80071d0:	9b03      	ldr	r3, [sp, #12]
 80071d2:	3307      	adds	r3, #7
 80071d4:	f023 0307 	bic.w	r3, r3, #7
 80071d8:	3308      	adds	r3, #8
 80071da:	9303      	str	r3, [sp, #12]
 80071dc:	9b09      	ldr	r3, [sp, #36]	; 0x24
 80071de:	443b      	add	r3, r7
 80071e0:	9309      	str	r3, [sp, #36]	; 0x24
 80071e2:	e767      	b.n	80070b4 <_vfiprintf_r+0x94>
 80071e4:	fb0c 3202 	mla	r2, ip, r2, r3
 80071e8:	460c      	mov	r4, r1
 80071ea:	2001      	movs	r0, #1
 80071ec:	e7a5      	b.n	800713a <_vfiprintf_r+0x11a>
 80071ee:	2300      	movs	r3, #0
 80071f0:	3401      	adds	r4, #1
 80071f2:	9305      	str	r3, [sp, #20]
 80071f4:	4619      	mov	r1, r3
 80071f6:	f04f 0c0a 	mov.w	ip, #10
 80071fa:	4620      	mov	r0, r4
 80071fc:	f810 2b01 	ldrb.w	r2, [r0], #1
 8007200:	3a30      	subs	r2, #48	; 0x30
 8007202:	2a09      	cmp	r2, #9
 8007204:	d903      	bls.n	800720e <_vfiprintf_r+0x1ee>
 8007206:	2b00      	cmp	r3, #0
 8007208:	d0c5      	beq.n	8007196 <_vfiprintf_r+0x176>
 800720a:	9105      	str	r1, [sp, #20]
 800720c:	e7c3      	b.n	8007196 <_vfiprintf_r+0x176>
 800720e:	fb0c 2101 	mla	r1, ip, r1, r2
 8007212:	4604      	mov	r4, r0
 8007214:	2301      	movs	r3, #1
 8007216:	e7f0      	b.n	80071fa <_vfiprintf_r+0x1da>
 8007218:	ab03      	add	r3, sp, #12
 800721a:	9300      	str	r3, [sp, #0]
 800721c:	462a      	mov	r2, r5
 800721e:	4b16      	ldr	r3, [pc, #88]	; (8007278 <_vfiprintf_r+0x258>)
 8007220:	a904      	add	r1, sp, #16
 8007222:	4630      	mov	r0, r6
 8007224:	f7fd fcf2 	bl	8004c0c <_printf_float>
 8007228:	4607      	mov	r7, r0
 800722a:	1c78      	adds	r0, r7, #1
 800722c:	d1d6      	bne.n	80071dc <_vfiprintf_r+0x1bc>
 800722e:	6e6b      	ldr	r3, [r5, #100]	; 0x64
 8007230:	07d9      	lsls	r1, r3, #31
 8007232:	d405      	bmi.n	8007240 <_vfiprintf_r+0x220>
 8007234:	89ab      	ldrh	r3, [r5, #12]
 8007236:	059a      	lsls	r2, r3, #22
 8007238:	d402      	bmi.n	8007240 <_vfiprintf_r+0x220>
 800723a:	6da8      	ldr	r0, [r5, #88]	; 0x58
 800723c:	f7ff f9d0 	bl	80065e0 <__retarget_lock_release_recursive>
 8007240:	89ab      	ldrh	r3, [r5, #12]
 8007242:	065b      	lsls	r3, r3, #25
 8007244:	f53f af12 	bmi.w	800706c <_vfiprintf_r+0x4c>
 8007248:	9809      	ldr	r0, [sp, #36]	; 0x24
 800724a:	e711      	b.n	8007070 <_vfiprintf_r+0x50>
 800724c:	ab03      	add	r3, sp, #12
 800724e:	9300      	str	r3, [sp, #0]
 8007250:	462a      	mov	r2, r5
 8007252:	4b09      	ldr	r3, [pc, #36]	; (8007278 <_vfiprintf_r+0x258>)
 8007254:	a904      	add	r1, sp, #16
 8007256:	4630      	mov	r0, r6
 8007258:	f7fd ff7c 	bl	8005154 <_printf_i>
 800725c:	e7e4      	b.n	8007228 <_vfiprintf_r+0x208>
 800725e:	bf00      	nop
 8007260:	08007850 	.word	0x08007850
 8007264:	08007870 	.word	0x08007870
 8007268:	08007830 	.word	0x08007830
 800726c:	080079ec 	.word	0x080079ec
 8007270:	080079f6 	.word	0x080079f6
 8007274:	08004c0d 	.word	0x08004c0d
 8007278:	08006ffb 	.word	0x08006ffb
 800727c:	080079f2 	.word	0x080079f2

08007280 <_sbrk_r>:
 8007280:	b538      	push	{r3, r4, r5, lr}
 8007282:	4d06      	ldr	r5, [pc, #24]	; (800729c <_sbrk_r+0x1c>)
 8007284:	2300      	movs	r3, #0
 8007286:	4604      	mov	r4, r0
 8007288:	4608      	mov	r0, r1
 800728a:	602b      	str	r3, [r5, #0]
 800728c:	f7fa f9f2 	bl	8001674 <_sbrk>
 8007290:	1c43      	adds	r3, r0, #1
 8007292:	d102      	bne.n	800729a <_sbrk_r+0x1a>
 8007294:	682b      	ldr	r3, [r5, #0]
 8007296:	b103      	cbz	r3, 800729a <_sbrk_r+0x1a>
 8007298:	6023      	str	r3, [r4, #0]
 800729a:	bd38      	pop	{r3, r4, r5, pc}
 800729c:	200005c0 	.word	0x200005c0

080072a0 <__sread>:
 80072a0:	b510      	push	{r4, lr}
 80072a2:	460c      	mov	r4, r1
 80072a4:	f9b1 100e 	ldrsh.w	r1, [r1, #14]
 80072a8:	f000 f9a2 	bl	80075f0 <_read_r>
 80072ac:	2800      	cmp	r0, #0
 80072ae:	bfab      	itete	ge
 80072b0:	6d63      	ldrge	r3, [r4, #84]	; 0x54
 80072b2:	89a3      	ldrhlt	r3, [r4, #12]
 80072b4:	181b      	addge	r3, r3, r0
 80072b6:	f423 5380 	biclt.w	r3, r3, #4096	; 0x1000
 80072ba:	bfac      	ite	ge
 80072bc:	6563      	strge	r3, [r4, #84]	; 0x54
 80072be:	81a3      	strhlt	r3, [r4, #12]
 80072c0:	bd10      	pop	{r4, pc}

080072c2 <__swrite>:
 80072c2:	e92d 41f0 	stmdb	sp!, {r4, r5, r6, r7, r8, lr}
 80072c6:	461f      	mov	r7, r3
 80072c8:	898b      	ldrh	r3, [r1, #12]
 80072ca:	05db      	lsls	r3, r3, #23
 80072cc:	4605      	mov	r5, r0
 80072ce:	460c      	mov	r4, r1
 80072d0:	4616      	mov	r6, r2
 80072d2:	d505      	bpl.n	80072e0 <__swrite+0x1e>
 80072d4:	f9b1 100e 	ldrsh.w	r1, [r1, #14]
 80072d8:	2302      	movs	r3, #2
 80072da:	2200      	movs	r2, #0
 80072dc:	f000 f958 	bl	8007590 <_lseek_r>
 80072e0:	89a3      	ldrh	r3, [r4, #12]
 80072e2:	f9b4 100e 	ldrsh.w	r1, [r4, #14]
 80072e6:	f423 5380 	bic.w	r3, r3, #4096	; 0x1000
 80072ea:	81a3      	strh	r3, [r4, #12]
 80072ec:	4632      	mov	r2, r6
 80072ee:	463b      	mov	r3, r7
 80072f0:	4628      	mov	r0, r5
 80072f2:	e8bd 41f0 	ldmia.w	sp!, {r4, r5, r6, r7, r8, lr}
 80072f6:	f000 b869 	b.w	80073cc <_write_r>

080072fa <__sseek>:
 80072fa:	b510      	push	{r4, lr}
 80072fc:	460c      	mov	r4, r1
 80072fe:	f9b1 100e 	ldrsh.w	r1, [r1, #14]
 8007302:	f000 f945 	bl	8007590 <_lseek_r>
 8007306:	1c43      	adds	r3, r0, #1
 8007308:	89a3      	ldrh	r3, [r4, #12]
 800730a:	bf15      	itete	ne
 800730c:	6560      	strne	r0, [r4, #84]	; 0x54
 800730e:	f423 5380 	biceq.w	r3, r3, #4096	; 0x1000
 8007312:	f443 5380 	orrne.w	r3, r3, #4096	; 0x1000
 8007316:	81a3      	strheq	r3, [r4, #12]
 8007318:	bf18      	it	ne
 800731a:	81a3      	strhne	r3, [r4, #12]
 800731c:	bd10      	pop	{r4, pc}

0800731e <__sclose>:
 800731e:	f9b1 100e 	ldrsh.w	r1, [r1, #14]
 8007322:	f000 b8f1 	b.w	8007508 <_close_r>
	...

08007328 <__swbuf_r>:
 8007328:	b5f8      	push	{r3, r4, r5, r6, r7, lr}
 800732a:	460e      	mov	r6, r1
 800732c:	4614      	mov	r4, r2
 800732e:	4605      	mov	r5, r0
 8007330:	b118      	cbz	r0, 800733a <__swbuf_r+0x12>
 8007332:	6983      	ldr	r3, [r0, #24]
 8007334:	b90b      	cbnz	r3, 800733a <__swbuf_r+0x12>
 8007336:	f7ff f8af 	bl	8006498 <__sinit>
 800733a:	4b21      	ldr	r3, [pc, #132]	; (80073c0 <__swbuf_r+0x98>)
 800733c:	429c      	cmp	r4, r3
 800733e:	d12b      	bne.n	8007398 <__swbuf_r+0x70>
 8007340:	686c      	ldr	r4, [r5, #4]
 8007342:	69a3      	ldr	r3, [r4, #24]
 8007344:	60a3      	str	r3, [r4, #8]
 8007346:	89a3      	ldrh	r3, [r4, #12]
 8007348:	071a      	lsls	r2, r3, #28
 800734a:	d52f      	bpl.n	80073ac <__swbuf_r+0x84>
 800734c:	6923      	ldr	r3, [r4, #16]
 800734e:	b36b      	cbz	r3, 80073ac <__swbuf_r+0x84>
 8007350:	6923      	ldr	r3, [r4, #16]
 8007352:	6820      	ldr	r0, [r4, #0]
 8007354:	1ac0      	subs	r0, r0, r3
 8007356:	6963      	ldr	r3, [r4, #20]
 8007358:	b2f6      	uxtb	r6, r6
 800735a:	4283      	cmp	r3, r0
 800735c:	4637      	mov	r7, r6
 800735e:	dc04      	bgt.n	800736a <__swbuf_r+0x42>
 8007360:	4621      	mov	r1, r4
 8007362:	4628      	mov	r0, r5
 8007364:	f7ff f804 	bl	8006370 <_fflush_r>
 8007368:	bb30      	cbnz	r0, 80073b8 <__swbuf_r+0x90>
 800736a:	68a3      	ldr	r3, [r4, #8]
 800736c:	3b01      	subs	r3, #1
 800736e:	60a3      	str	r3, [r4, #8]
 8007370:	6823      	ldr	r3, [r4, #0]
 8007372:	1c5a      	adds	r2, r3, #1
 8007374:	6022      	str	r2, [r4, #0]
 8007376:	701e      	strb	r6, [r3, #0]
 8007378:	6963      	ldr	r3, [r4, #20]
 800737a:	3001      	adds	r0, #1
 800737c:	4283      	cmp	r3, r0
 800737e:	d004      	beq.n	800738a <__swbuf_r+0x62>
 8007380:	89a3      	ldrh	r3, [r4, #12]
 8007382:	07db      	lsls	r3, r3, #31
 8007384:	d506      	bpl.n	8007394 <__swbuf_r+0x6c>
 8007386:	2e0a      	cmp	r6, #10
 8007388:	d104      	bne.n	8007394 <__swbuf_r+0x6c>
 800738a:	4621      	mov	r1, r4
 800738c:	4628      	mov	r0, r5
 800738e:	f7fe ffef 	bl	8006370 <_fflush_r>
 8007392:	b988      	cbnz	r0, 80073b8 <__swbuf_r+0x90>
 8007394:	4638      	mov	r0, r7
 8007396:	bdf8      	pop	{r3, r4, r5, r6, r7, pc}
 8007398:	4b0a      	ldr	r3, [pc, #40]	; (80073c4 <__swbuf_r+0x9c>)
 800739a:	429c      	cmp	r4, r3
 800739c:	d101      	bne.n	80073a2 <__swbuf_r+0x7a>
 800739e:	68ac      	ldr	r4, [r5, #8]
 80073a0:	e7cf      	b.n	8007342 <__swbuf_r+0x1a>
 80073a2:	4b09      	ldr	r3, [pc, #36]	; (80073c8 <__swbuf_r+0xa0>)
 80073a4:	429c      	cmp	r4, r3
 80073a6:	bf08      	it	eq
 80073a8:	68ec      	ldreq	r4, [r5, #12]
 80073aa:	e7ca      	b.n	8007342 <__swbuf_r+0x1a>
 80073ac:	4621      	mov	r1, r4
 80073ae:	4628      	mov	r0, r5
 80073b0:	f000 f81e 	bl	80073f0 <__swsetup_r>
 80073b4:	2800      	cmp	r0, #0
 80073b6:	d0cb      	beq.n	8007350 <__swbuf_r+0x28>
 80073b8:	f04f 37ff 	mov.w	r7, #4294967295
 80073bc:	e7ea      	b.n	8007394 <__swbuf_r+0x6c>
 80073be:	bf00      	nop
 80073c0:	08007850 	.word	0x08007850
 80073c4:	08007870 	.word	0x08007870
 80073c8:	08007830 	.word	0x08007830

080073cc <_write_r>:
 80073cc:	b538      	push	{r3, r4, r5, lr}
 80073ce:	4d07      	ldr	r5, [pc, #28]	; (80073ec <_write_r+0x20>)
 80073d0:	4604      	mov	r4, r0
 80073d2:	4608      	mov	r0, r1
 80073d4:	4611      	mov	r1, r2
 80073d6:	2200      	movs	r2, #0
 80073d8:	602a      	str	r2, [r5, #0]
 80073da:	461a      	mov	r2, r3
 80073dc:	f7fa f92e 	bl	800163c <_write>
 80073e0:	1c43      	adds	r3, r0, #1
 80073e2:	d102      	bne.n	80073ea <_write_r+0x1e>
 80073e4:	682b      	ldr	r3, [r5, #0]
 80073e6:	b103      	cbz	r3, 80073ea <_write_r+0x1e>
 80073e8:	6023      	str	r3, [r4, #0]
 80073ea:	bd38      	pop	{r3, r4, r5, pc}
 80073ec:	200005c0 	.word	0x200005c0

080073f0 <__swsetup_r>:
 80073f0:	4b32      	ldr	r3, [pc, #200]	; (80074bc <__swsetup_r+0xcc>)
 80073f2:	b570      	push	{r4, r5, r6, lr}
 80073f4:	681d      	ldr	r5, [r3, #0]
 80073f6:	4606      	mov	r6, r0
 80073f8:	460c      	mov	r4, r1
 80073fa:	b125      	cbz	r5, 8007406 <__swsetup_r+0x16>
 80073fc:	69ab      	ldr	r3, [r5, #24]
 80073fe:	b913      	cbnz	r3, 8007406 <__swsetup_r+0x16>
 8007400:	4628      	mov	r0, r5
 8007402:	f7ff f849 	bl	8006498 <__sinit>
 8007406:	4b2e      	ldr	r3, [pc, #184]	; (80074c0 <__swsetup_r+0xd0>)
 8007408:	429c      	cmp	r4, r3
 800740a:	d10f      	bne.n	800742c <__swsetup_r+0x3c>
 800740c:	686c      	ldr	r4, [r5, #4]
 800740e:	89a3      	ldrh	r3, [r4, #12]
 8007410:	f9b4 200c 	ldrsh.w	r2, [r4, #12]
 8007414:	0719      	lsls	r1, r3, #28
 8007416:	d42c      	bmi.n	8007472 <__swsetup_r+0x82>
 8007418:	06dd      	lsls	r5, r3, #27
 800741a:	d411      	bmi.n	8007440 <__swsetup_r+0x50>
 800741c:	2309      	movs	r3, #9
 800741e:	6033      	str	r3, [r6, #0]
 8007420:	f042 0340 	orr.w	r3, r2, #64	; 0x40
 8007424:	81a3      	strh	r3, [r4, #12]
 8007426:	f04f 30ff 	mov.w	r0, #4294967295
 800742a:	e03e      	b.n	80074aa <__swsetup_r+0xba>
 800742c:	4b25      	ldr	r3, [pc, #148]	; (80074c4 <__swsetup_r+0xd4>)
 800742e:	429c      	cmp	r4, r3
 8007430:	d101      	bne.n	8007436 <__swsetup_r+0x46>
 8007432:	68ac      	ldr	r4, [r5, #8]
 8007434:	e7eb      	b.n	800740e <__swsetup_r+0x1e>
 8007436:	4b24      	ldr	r3, [pc, #144]	; (80074c8 <__swsetup_r+0xd8>)
 8007438:	429c      	cmp	r4, r3
 800743a:	bf08      	it	eq
 800743c:	68ec      	ldreq	r4, [r5, #12]
 800743e:	e7e6      	b.n	800740e <__swsetup_r+0x1e>
 8007440:	0758      	lsls	r0, r3, #29
 8007442:	d512      	bpl.n	800746a <__swsetup_r+0x7a>
 8007444:	6b61      	ldr	r1, [r4, #52]	; 0x34
 8007446:	b141      	cbz	r1, 800745a <__swsetup_r+0x6a>
 8007448:	f104 0344 	add.w	r3, r4, #68	; 0x44
 800744c:	4299      	cmp	r1, r3
 800744e:	d002      	beq.n	8007456 <__swsetup_r+0x66>
 8007450:	4630      	mov	r0, r6
 8007452:	f7ff fcdb 	bl	8006e0c <_free_r>
 8007456:	2300      	movs	r3, #0
 8007458:	6363      	str	r3, [r4, #52]	; 0x34
 800745a:	89a3      	ldrh	r3, [r4, #12]
 800745c:	f023 0324 	bic.w	r3, r3, #36	; 0x24
 8007460:	81a3      	strh	r3, [r4, #12]
 8007462:	2300      	movs	r3, #0
 8007464:	6063      	str	r3, [r4, #4]
 8007466:	6923      	ldr	r3, [r4, #16]
 8007468:	6023      	str	r3, [r4, #0]
 800746a:	89a3      	ldrh	r3, [r4, #12]
 800746c:	f043 0308 	orr.w	r3, r3, #8
 8007470:	81a3      	strh	r3, [r4, #12]
 8007472:	6923      	ldr	r3, [r4, #16]
 8007474:	b94b      	cbnz	r3, 800748a <__swsetup_r+0x9a>
 8007476:	89a3      	ldrh	r3, [r4, #12]
 8007478:	f403 7320 	and.w	r3, r3, #640	; 0x280
 800747c:	f5b3 7f00 	cmp.w	r3, #512	; 0x200
 8007480:	d003      	beq.n	800748a <__swsetup_r+0x9a>
 8007482:	4621      	mov	r1, r4
 8007484:	4630      	mov	r0, r6
 8007486:	f7ff f8d1 	bl	800662c <__smakebuf_r>
 800748a:	89a0      	ldrh	r0, [r4, #12]
 800748c:	f9b4 200c 	ldrsh.w	r2, [r4, #12]
 8007490:	f010 0301 	ands.w	r3, r0, #1
 8007494:	d00a      	beq.n	80074ac <__swsetup_r+0xbc>
 8007496:	2300      	movs	r3, #0
 8007498:	60a3      	str	r3, [r4, #8]
 800749a:	6963      	ldr	r3, [r4, #20]
 800749c:	425b      	negs	r3, r3
 800749e:	61a3      	str	r3, [r4, #24]
 80074a0:	6923      	ldr	r3, [r4, #16]
 80074a2:	b943      	cbnz	r3, 80074b6 <__swsetup_r+0xc6>
 80074a4:	f010 0080 	ands.w	r0, r0, #128	; 0x80
 80074a8:	d1ba      	bne.n	8007420 <__swsetup_r+0x30>
 80074aa:	bd70      	pop	{r4, r5, r6, pc}
 80074ac:	0781      	lsls	r1, r0, #30
 80074ae:	bf58      	it	pl
 80074b0:	6963      	ldrpl	r3, [r4, #20]
 80074b2:	60a3      	str	r3, [r4, #8]
 80074b4:	e7f4      	b.n	80074a0 <__swsetup_r+0xb0>
 80074b6:	2000      	movs	r0, #0
 80074b8:	e7f7      	b.n	80074aa <__swsetup_r+0xba>
 80074ba:	bf00      	nop
 80074bc:	2000000c 	.word	0x2000000c
 80074c0:	08007850 	.word	0x08007850
 80074c4:	08007870 	.word	0x08007870
 80074c8:	08007830 	.word	0x08007830

080074cc <__assert_func>:
 80074cc:	b51f      	push	{r0, r1, r2, r3, r4, lr}
 80074ce:	4614      	mov	r4, r2
 80074d0:	461a      	mov	r2, r3
 80074d2:	4b09      	ldr	r3, [pc, #36]	; (80074f8 <__assert_func+0x2c>)
 80074d4:	681b      	ldr	r3, [r3, #0]
 80074d6:	4605      	mov	r5, r0
 80074d8:	68d8      	ldr	r0, [r3, #12]
 80074da:	b14c      	cbz	r4, 80074f0 <__assert_func+0x24>
 80074dc:	4b07      	ldr	r3, [pc, #28]	; (80074fc <__assert_func+0x30>)
 80074de:	9100      	str	r1, [sp, #0]
 80074e0:	e9cd 3401 	strd	r3, r4, [sp, #4]
 80074e4:	4906      	ldr	r1, [pc, #24]	; (8007500 <__assert_func+0x34>)
 80074e6:	462b      	mov	r3, r5
 80074e8:	f000 f81e 	bl	8007528 <fiprintf>
 80074ec:	f000 f89f 	bl	800762e <abort>
 80074f0:	4b04      	ldr	r3, [pc, #16]	; (8007504 <__assert_func+0x38>)
 80074f2:	461c      	mov	r4, r3
 80074f4:	e7f3      	b.n	80074de <__assert_func+0x12>
 80074f6:	bf00      	nop
 80074f8:	2000000c 	.word	0x2000000c
 80074fc:	080079fd 	.word	0x080079fd
 8007500:	08007a0a 	.word	0x08007a0a
 8007504:	08007a38 	.word	0x08007a38

08007508 <_close_r>:
 8007508:	b538      	push	{r3, r4, r5, lr}
 800750a:	4d06      	ldr	r5, [pc, #24]	; (8007524 <_close_r+0x1c>)
 800750c:	2300      	movs	r3, #0
 800750e:	4604      	mov	r4, r0
 8007510:	4608      	mov	r0, r1
 8007512:	602b      	str	r3, [r5, #0]
 8007514:	f7fa f8a0 	bl	8001658 <_close>
 8007518:	1c43      	adds	r3, r0, #1
 800751a:	d102      	bne.n	8007522 <_close_r+0x1a>
 800751c:	682b      	ldr	r3, [r5, #0]
 800751e:	b103      	cbz	r3, 8007522 <_close_r+0x1a>
 8007520:	6023      	str	r3, [r4, #0]
 8007522:	bd38      	pop	{r3, r4, r5, pc}
 8007524:	200005c0 	.word	0x200005c0

08007528 <fiprintf>:
 8007528:	b40e      	push	{r1, r2, r3}
 800752a:	b503      	push	{r0, r1, lr}
 800752c:	4601      	mov	r1, r0
 800752e:	ab03      	add	r3, sp, #12
 8007530:	4805      	ldr	r0, [pc, #20]	; (8007548 <fiprintf+0x20>)
 8007532:	f853 2b04 	ldr.w	r2, [r3], #4
 8007536:	6800      	ldr	r0, [r0, #0]
 8007538:	9301      	str	r3, [sp, #4]
 800753a:	f7ff fd71 	bl	8007020 <_vfiprintf_r>
 800753e:	b002      	add	sp, #8
 8007540:	f85d eb04 	ldr.w	lr, [sp], #4
 8007544:	b003      	add	sp, #12
 8007546:	4770      	bx	lr
 8007548:	2000000c 	.word	0x2000000c

0800754c <_fstat_r>:
 800754c:	b538      	push	{r3, r4, r5, lr}
 800754e:	4d07      	ldr	r5, [pc, #28]	; (800756c <_fstat_r+0x20>)
 8007550:	2300      	movs	r3, #0
 8007552:	4604      	mov	r4, r0
 8007554:	4608      	mov	r0, r1
 8007556:	4611      	mov	r1, r2
 8007558:	602b      	str	r3, [r5, #0]
 800755a:	f7fa f881 	bl	8001660 <_fstat>
 800755e:	1c43      	adds	r3, r0, #1
 8007560:	d102      	bne.n	8007568 <_fstat_r+0x1c>
 8007562:	682b      	ldr	r3, [r5, #0]
 8007564:	b103      	cbz	r3, 8007568 <_fstat_r+0x1c>
 8007566:	6023      	str	r3, [r4, #0]
 8007568:	bd38      	pop	{r3, r4, r5, pc}
 800756a:	bf00      	nop
 800756c:	200005c0 	.word	0x200005c0

08007570 <_isatty_r>:
 8007570:	b538      	push	{r3, r4, r5, lr}
 8007572:	4d06      	ldr	r5, [pc, #24]	; (800758c <_isatty_r+0x1c>)
 8007574:	2300      	movs	r3, #0
 8007576:	4604      	mov	r4, r0
 8007578:	4608      	mov	r0, r1
 800757a:	602b      	str	r3, [r5, #0]
 800757c:	f7fa f876 	bl	800166c <_isatty>
 8007580:	1c43      	adds	r3, r0, #1
 8007582:	d102      	bne.n	800758a <_isatty_r+0x1a>
 8007584:	682b      	ldr	r3, [r5, #0]
 8007586:	b103      	cbz	r3, 800758a <_isatty_r+0x1a>
 8007588:	6023      	str	r3, [r4, #0]
 800758a:	bd38      	pop	{r3, r4, r5, pc}
 800758c:	200005c0 	.word	0x200005c0

08007590 <_lseek_r>:
 8007590:	b538      	push	{r3, r4, r5, lr}
 8007592:	4d07      	ldr	r5, [pc, #28]	; (80075b0 <_lseek_r+0x20>)
 8007594:	4604      	mov	r4, r0
 8007596:	4608      	mov	r0, r1
 8007598:	4611      	mov	r1, r2
 800759a:	2200      	movs	r2, #0
 800759c:	602a      	str	r2, [r5, #0]
 800759e:	461a      	mov	r2, r3
 80075a0:	f7fa f866 	bl	8001670 <_lseek>
 80075a4:	1c43      	adds	r3, r0, #1
 80075a6:	d102      	bne.n	80075ae <_lseek_r+0x1e>
 80075a8:	682b      	ldr	r3, [r5, #0]
 80075aa:	b103      	cbz	r3, 80075ae <_lseek_r+0x1e>
 80075ac:	6023      	str	r3, [r4, #0]
 80075ae:	bd38      	pop	{r3, r4, r5, pc}
 80075b0:	200005c0 	.word	0x200005c0

080075b4 <__ascii_mbtowc>:
 80075b4:	b082      	sub	sp, #8
 80075b6:	b901      	cbnz	r1, 80075ba <__ascii_mbtowc+0x6>
 80075b8:	a901      	add	r1, sp, #4
 80075ba:	b142      	cbz	r2, 80075ce <__ascii_mbtowc+0x1a>
 80075bc:	b14b      	cbz	r3, 80075d2 <__ascii_mbtowc+0x1e>
 80075be:	7813      	ldrb	r3, [r2, #0]
 80075c0:	600b      	str	r3, [r1, #0]
 80075c2:	7812      	ldrb	r2, [r2, #0]
 80075c4:	1e10      	subs	r0, r2, #0
 80075c6:	bf18      	it	ne
 80075c8:	2001      	movne	r0, #1
 80075ca:	b002      	add	sp, #8
 80075cc:	4770      	bx	lr
 80075ce:	4610      	mov	r0, r2
 80075d0:	e7fb      	b.n	80075ca <__ascii_mbtowc+0x16>
 80075d2:	f06f 0001 	mvn.w	r0, #1
 80075d6:	e7f8      	b.n	80075ca <__ascii_mbtowc+0x16>

080075d8 <__malloc_lock>:
 80075d8:	4801      	ldr	r0, [pc, #4]	; (80075e0 <__malloc_lock+0x8>)
 80075da:	f7ff b800 	b.w	80065de <__retarget_lock_acquire_recursive>
 80075de:	bf00      	nop
 80075e0:	200005b4 	.word	0x200005b4

080075e4 <__malloc_unlock>:
 80075e4:	4801      	ldr	r0, [pc, #4]	; (80075ec <__malloc_unlock+0x8>)
 80075e6:	f7fe bffb 	b.w	80065e0 <__retarget_lock_release_recursive>
 80075ea:	bf00      	nop
 80075ec:	200005b4 	.word	0x200005b4

080075f0 <_read_r>:
 80075f0:	b538      	push	{r3, r4, r5, lr}
 80075f2:	4d07      	ldr	r5, [pc, #28]	; (8007610 <_read_r+0x20>)
 80075f4:	4604      	mov	r4, r0
 80075f6:	4608      	mov	r0, r1
 80075f8:	4611      	mov	r1, r2
 80075fa:	2200      	movs	r2, #0
 80075fc:	602a      	str	r2, [r5, #0]
 80075fe:	461a      	mov	r2, r3
 8007600:	f7fa f80e 	bl	8001620 <_read>
 8007604:	1c43      	adds	r3, r0, #1
 8007606:	d102      	bne.n	800760e <_read_r+0x1e>
 8007608:	682b      	ldr	r3, [r5, #0]
 800760a:	b103      	cbz	r3, 800760e <_read_r+0x1e>
 800760c:	6023      	str	r3, [r4, #0]
 800760e:	bd38      	pop	{r3, r4, r5, pc}
 8007610:	200005c0 	.word	0x200005c0

08007614 <__ascii_wctomb>:
 8007614:	b149      	cbz	r1, 800762a <__ascii_wctomb+0x16>
 8007616:	2aff      	cmp	r2, #255	; 0xff
 8007618:	bf85      	ittet	hi
 800761a:	238a      	movhi	r3, #138	; 0x8a
 800761c:	6003      	strhi	r3, [r0, #0]
 800761e:	700a      	strbls	r2, [r1, #0]
 8007620:	f04f 30ff 	movhi.w	r0, #4294967295
 8007624:	bf98      	it	ls
 8007626:	2001      	movls	r0, #1
 8007628:	4770      	bx	lr
 800762a:	4608      	mov	r0, r1
 800762c:	4770      	bx	lr

0800762e <abort>:
 800762e:	b508      	push	{r3, lr}
 8007630:	2006      	movs	r0, #6
 8007632:	f000 f82b 	bl	800768c <raise>
 8007636:	2001      	movs	r0, #1
 8007638:	f7f9 ffec 	bl	8001614 <_exit>

0800763c <_raise_r>:
 800763c:	291f      	cmp	r1, #31
 800763e:	b538      	push	{r3, r4, r5, lr}
 8007640:	4604      	mov	r4, r0
 8007642:	460d      	mov	r5, r1
 8007644:	d904      	bls.n	8007650 <_raise_r+0x14>
 8007646:	2316      	movs	r3, #22
 8007648:	6003      	str	r3, [r0, #0]
 800764a:	f04f 30ff 	mov.w	r0, #4294967295
 800764e:	bd38      	pop	{r3, r4, r5, pc}
 8007650:	6c42      	ldr	r2, [r0, #68]	; 0x44
 8007652:	b112      	cbz	r2, 800765a <_raise_r+0x1e>
 8007654:	f852 3021 	ldr.w	r3, [r2, r1, lsl #2]
 8007658:	b94b      	cbnz	r3, 800766e <_raise_r+0x32>
 800765a:	4620      	mov	r0, r4
 800765c:	f000 f830 	bl	80076c0 <_getpid_r>
 8007660:	462a      	mov	r2, r5
 8007662:	4601      	mov	r1, r0
 8007664:	4620      	mov	r0, r4
 8007666:	e8bd 4038 	ldmia.w	sp!, {r3, r4, r5, lr}
 800766a:	f000 b817 	b.w	800769c <_kill_r>
 800766e:	2b01      	cmp	r3, #1
 8007670:	d00a      	beq.n	8007688 <_raise_r+0x4c>
 8007672:	1c59      	adds	r1, r3, #1
 8007674:	d103      	bne.n	800767e <_raise_r+0x42>
 8007676:	2316      	movs	r3, #22
 8007678:	6003      	str	r3, [r0, #0]
 800767a:	2001      	movs	r0, #1
 800767c:	e7e7      	b.n	800764e <_raise_r+0x12>
 800767e:	2400      	movs	r4, #0
 8007680:	f842 4025 	str.w	r4, [r2, r5, lsl #2]
 8007684:	4628      	mov	r0, r5
 8007686:	4798      	blx	r3
 8007688:	2000      	movs	r0, #0
 800768a:	e7e0      	b.n	800764e <_raise_r+0x12>

0800768c <raise>:
 800768c:	4b02      	ldr	r3, [pc, #8]	; (8007698 <raise+0xc>)
 800768e:	4601      	mov	r1, r0
 8007690:	6818      	ldr	r0, [r3, #0]
 8007692:	f7ff bfd3 	b.w	800763c <_raise_r>
 8007696:	bf00      	nop
 8007698:	2000000c 	.word	0x2000000c

0800769c <_kill_r>:
 800769c:	b538      	push	{r3, r4, r5, lr}
 800769e:	4d07      	ldr	r5, [pc, #28]	; (80076bc <_kill_r+0x20>)
 80076a0:	2300      	movs	r3, #0
 80076a2:	4604      	mov	r4, r0
 80076a4:	4608      	mov	r0, r1
 80076a6:	4611      	mov	r1, r2
 80076a8:	602b      	str	r3, [r5, #0]
 80076aa:	f7f9 ffab 	bl	8001604 <_kill>
 80076ae:	1c43      	adds	r3, r0, #1
 80076b0:	d102      	bne.n	80076b8 <_kill_r+0x1c>
 80076b2:	682b      	ldr	r3, [r5, #0]
 80076b4:	b103      	cbz	r3, 80076b8 <_kill_r+0x1c>
 80076b6:	6023      	str	r3, [r4, #0]
 80076b8:	bd38      	pop	{r3, r4, r5, pc}
 80076ba:	bf00      	nop
 80076bc:	200005c0 	.word	0x200005c0

080076c0 <_getpid_r>:
 80076c0:	f7f9 bf9e 	b.w	8001600 <_getpid>

080076c4 <_init>:
 80076c4:	b5f8      	push	{r3, r4, r5, r6, r7, lr}
 80076c6:	bf00      	nop
 80076c8:	bcf8      	pop	{r3, r4, r5, r6, r7}
 80076ca:	bc08      	pop	{r3}
 80076cc:	469e      	mov	lr, r3
 80076ce:	4770      	bx	lr

080076d0 <_fini>:
 80076d0:	b5f8      	push	{r3, r4, r5, r6, r7, lr}
 80076d2:	bf00      	nop
 80076d4:	bcf8      	pop	{r3, r4, r5, r6, r7}
 80076d6:	bc08      	pop	{r3}
 80076d8:	469e      	mov	lr, r3
 80076da:	4770      	bx	lr
